 ImageAna

 Timestamp is 4dc36303 (Fri May 06 10:54:59 2011)

 Preferred load address is 10000000

 Start         Length     Name                   Class
 0001:00000000 0004e3cfH .text                   CODE
 0001:0004e3d0 00003c6fH .text$x                 CODE
 0001:00052040 00000052H .text$yc                CODE
 0001:000520a0 0000000aH .text$yd                CODE
 0002:00000000 00000328H .idata$5                DATA
 0002:00000328 00000004H .CRT$XCA                DATA
 0002:0000032c 00000010H .CRT$XCU                DATA
 0002:0000033c 00000004H .CRT$XCZ                DATA
 0002:00000340 00000004H .CRT$XIA                DATA
 0002:00000344 00000004H .CRT$XIAA               DATA
 0002:00000348 00000004H .CRT$XIC                DATA
 0002:0000034c 00000004H .CRT$XIZ                DATA
 0002:00000350 00020153H .rdata                  DATA
 0002:000204a4 0000004fH .rdata$debug            DATA
 0002:000204f4 00000810H .rdata$r                DATA
 0002:00020d04 00000004H .rtc$IAA                DATA
 0002:00020d08 00000004H .rtc$IZZ                DATA
 0002:00020d0c 00000004H .rtc$TAA                DATA
 0002:00020d10 00000004H .rtc$TZZ                DATA
 0002:00020d18 00003ddcH .xdata$x                DATA
 0002:00024af4 00000000H ATL$__a                 DATA
 0002:00024af4 00000000H ATL$__z                 DATA
 0002:00024af4 00000078H .idata$2                DATA
 0002:00024b6c 00000014H .idata$3                DATA
 0002:00024b80 00000328H .idata$4                DATA
 0002:00024ea8 0000118eH .idata$6                DATA
 0002:00026040 000006e5H .edata                  DATA
 0003:00000000 000091d0H .data                   DATA
 0003:000091e0 000019f8H .bss                    DATA
 0004:00000000 00000030H IMAQVisionColorConstants DATA
 0005:00000000 00000193H MachineVisionStringData DATA
 0006:00000000 00000058H .rsrc$01                DATA
 0006:00000060 00000420H .rsrc$02                DATA

  Address         Publics by Value              Rva+Base       Lib:Object

 0000:00000000       ___safe_se_handler_table   00000000     <absolute>
 0000:00000000       ___safe_se_handler_count   00000000     <absolute>
 0000:00000000       __except_list              00000000     <absolute>
 0000:00009876       __ldused                   00009876     <absolute>
 0000:00009876       __fltused                  00009876     <absolute>
 0000:00000000       ___ImageBase               10000000     <linker-defined>
 0001:00000000       _enlog2_init               10001000 f   enlog2static:enLog2.obj
 0001:00000060       _enlog2_finish             10001060 f   enlog2static:enLog2.obj
 0001:000000b0       _enlog2_set_level          100010b0 f   enlog2static:enLog2.obj
 0001:000000c0       _format_prefix             100010c0 f   enlog2static:enLog2.obj
 0001:00000180       _enlog2_log1               10001180 f   enlog2static:enLog2.obj
 0001:00000200       _LOG_INFO                  10001200 f   enlog2static:enLog2.obj
 0001:00000220       _LOG_DEBUG                 10001220 f   enlog2static:enLog2.obj
 0001:00000250       _LOG_WARNING               10001250 f   enlog2static:enLog2.obj
 0001:00000280       _LOG_ERROR                 10001280 f   enlog2static:enLog2.obj
 0001:000002b0       _LOG_FATAL                 100012b0 f   enlog2static:enLog2.obj
 0001:000002e0       ??0bad_alloc@std@@QAE@PBD@Z 100012e0 f i DataStat.obj
 0001:00000340       ??1bad_alloc@std@@UAE@XZ   10001340 f i DataStat.obj
 0001:00000390       ??_Gbad_alloc@std@@UAEPAXI@Z 10001390 f i DataStat.obj
 0001:00000390       ??_Ebad_alloc@std@@UAEPAXI@Z 10001390 f i DataStat.obj
 0001:00000400       ??2@YAPAXIPAX@Z            10001400 f i DataStat.obj
 0001:00000410       ??0_Aux_cont@std@@QAE@QBV_Container_base_aux@1@@Z 10001410 f i DataStat.obj
 0001:00000420       ??3@YAXPAX0@Z              10001420 f i DataStat.obj
 0001:00000420       ?SetMyError@@YAXPB_W@Z     10001420 f i IAMain.obj
 0001:00000420       ??1_Container_base_aux@std@@QAE@XZ 10001420 f i DataStat.obj
 0001:00000420       ?ClearMyError@@YAXXZ       10001420 f i IAMain.obj
 0001:00000430       ??0_Iterator_base_aux@std@@QAE@XZ 10001430 f i DataStat.obj
 0001:00000430       ??0?$_Ranit@NHPBNABN@std@@QAE@XZ 10001430 f i PolygonNIFloat.obj
 0001:00000440       ?_Set_container@_Iterator_base_aux@std@@QAEXQBV_Container_base_aux@2@@Z 10001440 f i DataStat.obj
 0001:00000450       ?_Getmycont@_Iterator_base_aux@std@@QBEPBV_Container_base_aux@2@XZ 10001450 f i DataStat.obj
 0001:00000460       ?_Same_container@_Iterator_base_aux@std@@QBE_NABV12@@Z 10001460 f i DataStat.obj
 0001:00000480       ?_Has_container@_Iterator_base_aux@std@@QBE_NXZ 10001480 f i DataStat.obj
 0001:00000490       ??0logic_error@std@@QAE@ABV?$basic_string@DU?$char_traits@D@std@@V?$allocator@D@2@@1@@Z 10001490 f i DataStat.obj
 0001:00000500       ??1logic_error@std@@UAE@XZ 10001500 f i DataStat.obj
 0001:00000560       ??_Glogic_error@std@@UAEPAXI@Z 10001560 f i DataStat.obj
 0001:00000560       ??_Elogic_error@std@@UAEPAXI@Z 10001560 f i DataStat.obj
 0001:00000580       ??0length_error@std@@QAE@ABV?$basic_string@DU?$char_traits@D@std@@V?$allocator@D@2@@1@@Z 10001580 f i DataStat.obj
 0001:000005e0       ??1length_error@std@@UAE@XZ 100015e0 f i DataStat.obj
 0001:00000630       ??_Elength_error@std@@UAEPAXI@Z 10001630 f i DataStat.obj
 0001:00000630       ??_Glength_error@std@@UAEPAXI@Z 10001630 f i DataStat.obj
 0001:00000690       ?_Xlen@?$vector@HV?$allocator@H@std@@@std@@KAXXZ 10001690 f i DataStat.obj
 0001:00000690       ?_Xlen@?$vector@U?$pair@Upoint@@U1@@std@@V?$allocator@U?$pair@Upoint@@U1@@std@@@2@@std@@KAXXZ 10001690 f i IACalcDiameter.obj
 0001:00000690       ?_Xlen@?$vector@V?$vector@Upoint@@V?$allocator@Upoint@@@std@@@std@@V?$allocator@V?$vector@Upoint@@V?$allocator@Upoint@@@std@@@std@@@2@@std@@KAXXZ 10001690 f i IACalcThreadDamage.obj
 0001:00000690       ?_Xlen@?$vector@UPointFloat_struct@@V?$allocator@UPointFloat_struct@@@std@@@std@@KAXXZ 10001690 f i IACalcTeeth.obj
 0001:00000690       ?_Xlen@?$vector@MV?$allocator@M@std@@@std@@KAXXZ 10001690 f i IAFindShape.obj
 0001:00000690       ?_Xlen@?$vector@Upoint@@V?$allocator@Upoint@@@std@@@std@@KAXXZ 10001690 f i IACalcThreadDamage.obj
 0001:00000690       ?_Xlen@?$vector@NV?$allocator@N@std@@@std@@KAXXZ 10001690 f i PolygonNIFloat.obj
 0001:000006f0       ??0logic_error@std@@QAE@ABV01@@Z 100016f0 f i DataStat.obj
 0001:00000760       ??0bad_alloc@std@@QAE@ABV01@@Z 10001760 f i DataStat.obj
 0001:000007c0       ?allocate@?$allocator@V_Aux_cont@std@@@std@@QAEPAV_Aux_cont@2@I@Z 100017c0 f i DataStat.obj
 0001:000007c0       ?allocate@?$allocator@H@std@@QAEPAHI@Z 100017c0 f i DataStat.obj
 0001:000007c0       ?allocate@?$allocator@M@std@@QAEPAMI@Z 100017c0 f i IAFindShape.obj
 0001:00000810       ??0length_error@std@@QAE@ABV01@@Z 10001810 f i DataStat.obj
 0001:00000870       ??H?$_Vector_iterator@HV?$allocator@H@std@@@std@@QBE?AV01@H@Z 10001870 f i DataStat.obj
 0001:000008c0       ??$fill@PAHH@std@@YAXPAH0ABH@Z 100018c0 f i DataStat.obj
 0001:000008e0       ??$_Umove@PAH@?$vector@HV?$allocator@H@std@@@std@@IAEPAHPAH00@Z 100018e0 f i DataStat.obj
 0001:000008e0       ??$_Umove@PAM@?$vector@MV?$allocator@M@std@@@std@@IAEPAMPAM00@Z 100018e0 f i IAFindShape.obj
 0001:00000920       ?_Ufill@?$vector@HV?$allocator@H@std@@@std@@IAEPAHPAHIABH@Z 10001920 f i DataStat.obj
 0001:00000950       ?_Insert_n@?$vector@HV?$allocator@H@std@@@std@@IAEXV?$_Vector_const_iterator@HV?$allocator@H@std@@@2@IABH@Z 10001950 f i DataStat.obj
 0001:00000b70       ?insert@?$vector@HV?$allocator@H@std@@@std@@QAE?AV?$_Vector_iterator@HV?$allocator@H@std@@@2@V?$_Vector_const_iterator@HV?$allocator@H@std@@@2@ABH@Z 10001b70 f i DataStat.obj
 0001:00000c30       ?push_back@?$vector@HV?$allocator@H@std@@@std@@QAEXABH@Z 10001c30 f i DataStat.obj
 0001:00000ca0       _DllMain@12                10001ca0 f   dllmain.obj
 0001:00001390       ?md5_update@@YAXPAUMD5_CTX@@PAEI@Z 10002390 f   encrypt.obj
 0001:00001450       ?md5_final@@YAXQAEPAUMD5_CTX@@@Z 10002450 f   encrypt.obj
 0001:00001530       ?encrypt_md5_key@@YAPADPAD@Z 10002530 f   encrypt.obj
 0001:00001780       ?RetrieveMACAddress@@YA?AW4RETVALUE@@QAE@Z 10002780 f   encrypt.obj
 0001:00001860       ??$_Pow_int@M@@YAMMH@Z     10002860 f i encrypt.obj
 0001:000018f0       ?CharToInt@@YAHPADHH@Z     100028f0 f   encrypt.obj
 0001:00001980       _MakeNumber                10002980 f   encrypt.obj
 0001:00001a50       _match_sn                  10002a50 f   encrypt.obj
 0001:00001af0       ??1log_entry@@QAE@XZ       10002af0 f i IACalcAngle.obj
 0001:00001b10       ??0point@@QAE@XZ           10002b10 f i IACalcAngle.obj
 0001:00001b20       ??0shadow_image@@QAE@PAUImage_struct@@@Z 10002b20 f i IACalcAngle.obj
 0001:00001b50       ??1shadow_image@@QAE@XZ    10002b50 f i IACalcAngle.obj
 0001:00001b80       ?get_point_on_circle@@YA?AUPointFloat_struct@@PBU1@MM@Z 10002b80 f   IACalcAngle.obj
 0001:00001c00       ?draw_tangent@@YAHPAUImage_struct@@PBUtrack_options@@@Z 10002c00 f   IACalcAngle.obj
 0001:00001ce0       ?find_edge_annulus@@YAPAUStraightEdgeReport_struct@@PAUImage_struct@@UAnnulus_struct@@_NW4RakeDirection_enum@@@Z 10002ce0 f   IACalcAngle.obj
 0001:00001f80       ??1?$RegisterDisposeBase@PAUStraightEdgeReport_struct@@@@UAE@XZ 10002f80 f i IACalcAngle.obj
 0001:00001fa0       ??_E?$RegisterDisposeBase@PAUStraightEdgeReport_struct@@@@UAEPAXI@Z 10002fa0 f i IACalcAngle.obj
 0001:00001fa0       ??_G?$RegisterDisposeBase@PAUStraightEdgeReport_struct@@@@UAEPAXI@Z 10002fa0 f i IACalcAngle.obj
 0001:00001fe0       ??0RegisterDisposeSER@@QAE@PAUStraightEdgeReport_struct@@@Z 10002fe0 f i IACalcAngle.obj
 0001:00002050       ??1RegisterDisposeSER@@UAE@XZ 10003050 f i IACalcAngle.obj
 0001:000020b0       ?get_angle@@YAHPAUImage_struct@@UAnnulus_struct@@PAM@Z 100030b0 f   IACalcAngle.obj
 0001:00002350       _IA_Calc_FindAngle         10003350 f   IACalcAngle.obj
 0001:000024b0       ??_GRegisterDisposeSER@@UAEPAXI@Z 100034b0 f i IACalcAngle.obj
 0001:000024b0       ??_ERegisterDisposeSER@@UAEPAXI@Z 100034b0 f i IACalcAngle.obj
 0001:000024d0       ??1?$RegisterDisposeBase@PAX@@UAE@XZ 100034d0 f i IACalcArea.obj
 0001:000024f0       ??_E?$RegisterDisposeBase@PAX@@UAEPAXI@Z 100034f0 f i IACalcArea.obj
 0001:000024f0       ??_G?$RegisterDisposeBase@PAX@@UAEPAXI@Z 100034f0 f i IACalcArea.obj
 0001:00002520       ??0RegisterDispose@@QAE@PAX@Z 10003520 f i IACalcArea.obj
 0001:00002590       ??1RegisterDispose@@UAE@XZ 10003590 f i IACalcArea.obj
 0001:000025f0       _IA_Calc_Area              100035f0 f   IACalcArea.obj
 0001:00002770       ??_GRegisterDispose@@UAEPAXI@Z 10003770 f i IACalcArea.obj
 0001:00002770       ??_ERegisterDispose@@UAEPAXI@Z 10003770 f i IACalcArea.obj
 0001:00002790       ?SpeckBits@@YAXPAEMHH@Z    10003790 f   IACalcCrack.obj
 0001:00002830       ?Shadow@@YAPAMPAEEHHH@Z    10003830 f   IACalcCrack.obj
 0001:000029c0       ?Kernel@@YAPAMEPAMH@Z      100039c0 f   IACalcCrack.obj
 0001:00002ae0       ?Diff@@YAPAMPAMH@Z         10003ae0 f   IACalcCrack.obj
 0001:00002c10       ?Judge@@YAMPAUImage_struct@@PAMHHUAnnulus_struct@@_NM@Z 10003c10 f   IACalcCrack.obj
 0001:00002ff0       ??1?$auto_array@M@@UAE@XZ  10003ff0 f i IACalcCrack.obj
 0001:00003010       ??_E?$auto_array@M@@UAEPAXI@Z 10004010 f i IACalcCrack.obj
 0001:00003010       ??_G?$auto_array@M@@UAEPAXI@Z 10004010 f i IACalcCrack.obj
 0001:00003050       _IA_Calc_FindCrack         10004050 f   IACalcCrack.obj
 0001:00003560       _IA_Calc_Cushion           10004560 f   IACalcCushion.obj
 0001:00003960       ?GetSafeIndex@@YAHHH@Z     10004960 f i IACalcDiameter.obj
 0001:00003980       ?detach@shadow_image@@QAEXXZ 10004980 f i IACalcDiameter.obj
 0001:000039a0       ?symmetric_point@@YA?AUpoint@@ABU1@0_NM@Z 100049a0 f i IACalcDiameter.obj
 0001:00003ae0       _IA_Calc_FindDiameter      10004ae0 f   IACalcDiameter.obj
 0001:00003dd0       ??A?$vector@U?$pair@Upoint@@U1@@std@@V?$allocator@U?$pair@Upoint@@U1@@std@@@2@@std@@QAEAAU?$pair@Upoint@@U1@@1@I@Z 10004dd0 f i IACalcDiameter.obj
 0001:00003e00       ?allocate@?$allocator@U?$pair@Upoint@@U1@@std@@@std@@QAEPAU?$pair@Upoint@@U1@@2@I@Z 10004e00 f i IACalcDiameter.obj
 0001:00003e50       ??$_Copy_opt@PAU?$pair@Upoint@@U1@@std@@PAU12@@std@@YAPAU?$pair@Upoint@@U1@@0@PAU10@00Urandom_access_iterator_tag@0@U_Nonscalar_ptr_iterator_tag@0@U_Range_checked_iterator_tag@0@@Z 10004e50 f i IACalcDiameter.obj
 0001:00003ea0       ??$_Copy_backward_opt@PAU?$pair@Upoint@@U1@@std@@PAU12@@std@@YAPAU?$pair@Upoint@@U1@@0@PAU10@00Urandom_access_iterator_tag@0@U_Nonscalar_ptr_iterator_tag@0@U_Range_checked_iterator_tag@0@@Z 10004ea0 f i IACalcDiameter.obj
 0001:00003f00       ??$_Construct@U?$pair@Upoint@@U1@@std@@U12@@std@@YAXPAU?$pair@Upoint@@U1@@0@ABU10@@Z 10004f00 f i IACalcDiameter.obj
 0001:00003f70       ??$unchecked_copy@PAUpoint@@PAU1@@stdext@@YAPAUpoint@@PAU1@00@Z 10004f70 f i IACalcDiameter.obj
 0001:00003fb0       ??$fill@PAU?$pair@Upoint@@U1@@std@@U12@@std@@YAXPAU?$pair@Upoint@@U1@@0@0ABU10@@Z 10004fb0 f i IACalcDiameter.obj
 0001:00003ff0       ?construct@?$allocator@U?$pair@Upoint@@U1@@std@@@std@@QAEXPAU?$pair@Upoint@@U1@@2@ABU32@@Z 10004ff0 f i IACalcDiameter.obj
 0001:00004010       ??$_Uninit_copy@PAU?$pair@Upoint@@U1@@std@@PAU12@V?$allocator@U?$pair@Upoint@@U1@@std@@@2@@std@@YAPAU?$pair@Upoint@@U1@@0@PAU10@00AAV?$allocator@U?$pair@Upoint@@U1@@std@@@0@U_Nonscalar_ptr_iterator_tag@0@U_Range_checked_iterator_tag@0@@Z 10005010 f i IACalcDiameter.obj
 0001:000040a0       ??$_Unchecked_move_backward@PAU?$pair@Upoint@@U1@@std@@PAU12@@stdext@@YAPAU?$pair@Upoint@@U1@@std@@PAU12@00@Z 100050a0 f i IACalcDiameter.obj
 0001:000040d0       ??$_Uninit_fill_n@PAU?$pair@Upoint@@U1@@std@@IU12@V?$allocator@U?$pair@Upoint@@U1@@std@@@2@@std@@YAXPAU?$pair@Upoint@@U1@@0@IABU10@AAV?$allocator@U?$pair@Upoint@@U1@@std@@@0@U_Nonscalar_ptr_iterator_tag@0@U_Range_checked_iterator_tag@0@@Z 100050d0 f i IACalcDiameter.obj
 0001:00004150       ?erase@?$vector@U?$pair@Upoint@@U1@@std@@V?$allocator@U?$pair@Upoint@@U1@@std@@@2@@std@@QAE?AV?$_Vector_iterator@U?$pair@Upoint@@U1@@std@@V?$allocator@U?$pair@Upoint@@U1@@std@@@2@@2@V?$_Vector_const_iterator@U?$pair@Upoint@@U1@@std@@V?$allocator@U?$pair@Upoint@@U1@@std@@@2@@2@0@Z 10005150 f i IACalcDiameter.obj
 0001:000041e0       ?_Ufill@?$vector@U?$pair@Upoint@@U1@@std@@V?$allocator@U?$pair@Upoint@@U1@@std@@@2@@std@@IAEPAU?$pair@Upoint@@U1@@2@PAU32@IABU32@@Z 100051e0 f i IACalcDiameter.obj
 0001:00004220       ??$_Umove@PAU?$pair@Upoint@@U1@@std@@@?$vector@U?$pair@Upoint@@U1@@std@@V?$allocator@U?$pair@Upoint@@U1@@std@@@2@@std@@IAEPAU?$pair@Upoint@@U1@@1@PAU21@00@Z 10005220 f i IACalcDiameter.obj
 0001:00004250       ?_Insert_n@?$vector@U?$pair@Upoint@@U1@@std@@V?$allocator@U?$pair@Upoint@@U1@@std@@@2@@std@@IAEXV?$_Vector_const_iterator@U?$pair@Upoint@@U1@@std@@V?$allocator@U?$pair@Upoint@@U1@@std@@@2@@2@IABU?$pair@Upoint@@U1@@2@@Z 10005250 f i IACalcDiameter.obj
 0001:00004480       ?_Assign_n@?$vector@U?$pair@Upoint@@U1@@std@@V?$allocator@U?$pair@Upoint@@U1@@std@@@2@@std@@IAEXIABU?$pair@Upoint@@U1@@2@@Z 10005480 f i IACalcDiameter.obj
 0001:00004520       ?match_pairs@@YAXABV?$vector@Upoint@@V?$allocator@Upoint@@@std@@@std@@ABUpoint@@AAV?$vector@U?$pair@Upoint@@U1@@std@@V?$allocator@U?$pair@Upoint@@U1@@std@@@2@@2@_NM@Z 10005520 f   IACalcDiameter.obj
 0001:00004830       ?fill_color@@YAXHHHHPAUImage_struct@@PBURGBValue_struct@@@Z 10005830 f   IACalcDistance.obj
 0001:000048d0       ?preprocess@@YA_NAAVsub_image@@PAUImage_struct@@AAURect_struct@@PBURGBValue_struct@@HH@Z 100058d0 f   IACalcDistance.obj
 0001:00004a00       ?find_angle@@YA_NPAUImage_struct@@PBURect_struct@@PAURotatedRect_struct@@W4RakeDirection_enum@@H@Z 10005a00 f   IACalcDistance.obj
 0001:00004d20       _IA_Calc_FindDistance      10005d20 f   IACalcDistance.obj
 0001:000051d0       _IA_Calc_FillArea          100061d0 f   IACalcFillArea.obj
 0001:00005560       _IA_Calc_FindHead          10006560 f   IACalcHead.obj
 0001:00005820       ?init_hexagon_report@@YAHPAUHexagonReport@@@Z 10006820 f   IACalcHexagon.obj
 0001:00005880       ?Register@?$RegisterDisposeBase@PAUCircularEdgeReport_struct@@@@QAEXPAUCircularEdgeReport_struct@@@Z 10006880 f i IACalcHexagon.obj
 0001:00005880       ?Register@?$RegisterDisposeBase@PAX@@QAEXPAX@Z 10006880 f i IACalcHexagon.obj
 0001:000058a0       ?Dispose@?$RegisterDisposeBase@PAUCircularEdgeReport_struct@@@@QAEXXZ 100068a0 f i IACalcHexagon.obj
 0001:000058a0       ?Dispose@?$RegisterDisposeBase@PAX@@QAEXXZ 100068a0 f i IACalcArea.obj
 0001:000058c0       ??1?$RegisterDisposeBase@PAUCircularEdgeReport_struct@@@@UAE@XZ 100068c0 f i IACalcHexagon.obj
 0001:000058e0       ??_E?$RegisterDisposeBase@PAUCircularEdgeReport_struct@@@@UAEPAXI@Z 100068e0 f i IACalcHexagon.obj
 0001:000058e0       ??_G?$RegisterDisposeBase@PAUCircularEdgeReport_struct@@@@UAEPAXI@Z 100068e0 f i IACalcHexagon.obj
 0001:00005910       ??0RegisterDispose@@QAE@XZ 10006910 f i IACalcHexagon.obj
 0001:00005970       ??0RegisterDisposeCER@@QAE@PAUCircularEdgeReport_struct@@@Z 10006970 f i IACalcHexagon.obj
 0001:000059e0       ??1RegisterDisposeCER@@UAE@XZ 100069e0 f i IACalcHexagon.obj
 0001:00005a40       ??1?$auto_array@UPointFloat_struct@@@@UAE@XZ 10006a40 f i IACalcHexagon.obj
 0001:00005a60       ??1?$auto_array@PAUBestLine_struct@@@@UAE@XZ 10006a60 f i IACalcHexagon.obj
 0001:00005a80       ??_G?$auto_array@UPointFloat_struct@@@@UAEPAXI@Z 10006a80 f i IACalcHexagon.obj
 0001:00005a80       ??_E?$auto_array@UPointFloat_struct@@@@UAEPAXI@Z 10006a80 f i IACalcHexagon.obj
 0001:00005ac0       ??_G?$auto_array@PAUBestLine_struct@@@@UAEPAXI@Z 10006ac0 f i IACalcHexagon.obj
 0001:00005ac0       ??_E?$auto_array@PAUBestLine_struct@@@@UAEPAXI@Z 10006ac0 f i IACalcHexagon.obj
 0001:00005b00       ?Alloc@?$auto_array@UPointFloat_struct@@@@QAEHH@Z 10006b00 f i IACalcHexagon.obj
 0001:00005b60       ??_ERegisterDisposeCER@@UAEPAXI@Z 10006b60 f i IACalcHexagon.obj
 0001:00005b60       ??_GRegisterDisposeCER@@UAEPAXI@Z 10006b60 f i IACalcHexagon.obj
 0001:00005b80       ??0?$auto_array@UPointFloat_struct@@@@QAE@H@Z 10006b80 f i IACalcHexagon.obj
 0001:00005bb0       _IA_Calc_FindHexagon       10006bb0 f   IACalcHexagon.obj
 0001:00007380       ??_H@YGXPAXIHP6EPAX0@Z@Z   10008380 f i IACalcMarking.obj
 0001:000073c0       _IA_Calc_FindMarking       100083c0 f   IACalcMarking.obj
 0001:00007a20       _IA_Calc_Matching          10008a20 f   IACalcMatching.obj
 0001:00007ba0       _IA_Calc_FindNode          10008ba0 f   IACAlcNode.obj
 0001:00008170       ?switch_point@@YAXUPointFloat_struct@@AAU1@UAnnulus_struct@@M@Z 10009170 f   IACalcRingCrack.obj
 0001:000081e0       _IA_Calc_RingCrack         100091e0 f   IACalcRingCrack.obj
 0001:000084a0       ?init_square_report@@YAHPAUSquareReport@@@Z 100094a0 f   IACalcSquare.obj
 0001:000084f0       _IA_Calc_FindSquare        100094f0 f   IACalcSquare.obj
 0001:000091d0       _IA_Calc_FindStarving      1000a1d0 f   IACalcStarving.obj
 0001:000096b0       ?HelixAngle@@YAXPAUTeethReport@@@Z 1000a6b0 f   IACalcTeeth.obj
 0001:00009710       ?rotate@point@@QAEAAU1@ABU1@M@Z 1000a710 f i IACalcTeeth.obj
 0001:00009840       ?FitMidPoints@@YAXPAUImage_struct@@ABV?$vector@UPointFloat_struct@@V?$allocator@UPointFloat_struct@@@std@@@std@@1UPointFloat_struct@@2MAAM3@Z 1000a840 f   IACalcTeeth.obj
 0001:00009f20       ?SortPointsOfX@@YAXAAV?$vector@UPointFloat_struct@@V?$allocator@UPointFloat_struct@@@std@@@std@@@Z 1000af20 f   IACalcTeeth.obj
 0001:0000a060       ?get_inflexion@@YAHABV?$vector@UPointFloat_struct@@V?$allocator@UPointFloat_struct@@@std@@@std@@HAAUPointFloat_struct@@@Z 1000b060 f   IACalcTeeth.obj
 0001:0000a190       ?MinDistance@@YAMABV?$vector@UPointFloat_struct@@V?$allocator@UPointFloat_struct@@@std@@@std@@UPointFloat_struct@@1@Z 1000b190 f   IACalcTeeth.obj
 0001:0000a220       ?apply_bottom_diameter@@YAMABV?$vector@UPointFloat_struct@@V?$allocator@UPointFloat_struct@@@std@@@std@@0MMAAUPointFloat_struct@@1@Z 1000b220 f   IACalcTeeth.obj
 0001:0000a440       ?allocate@?$allocator@UPointFloat_struct@@@std@@QAEPAUPointFloat_struct@@I@Z 1000b440 f i IACalcTeeth.obj
 0001:0000a440       ?allocate@?$allocator@N@std@@QAEPANI@Z 1000b440 f i PolygonNIFloat.obj
 0001:0000a440       ?allocate@?$allocator@Upoint@@@std@@QAEPAUpoint@@I@Z 1000b440 f i IACalcThreadDamage.obj
 0001:0000a490       ?construct@?$allocator@UPointFloat_struct@@@std@@QAEXPAUPointFloat_struct@@ABU3@@Z 1000b490 f i IACalcTeeth.obj
 0001:0000a4b0       ??$_Uninit_copy@PAUPointFloat_struct@@PAU1@V?$allocator@UPointFloat_struct@@@std@@@std@@YAPAUPointFloat_struct@@PAU1@00AAV?$allocator@UPointFloat_struct@@@0@U_Nonscalar_ptr_iterator_tag@0@U_Range_checked_iterator_tag@0@@Z 1000b4b0 f i IACalcTeeth.obj
 0001:0000a540       ??1?$_Vector_val@UPointFloat_struct@@V?$allocator@UPointFloat_struct@@@std@@@std@@QAE@XZ 1000b540 f i IACalcTeeth.obj
 0001:0000a540       ??1?$_Vector_val@U?$pair@Upoint@@U1@@std@@V?$allocator@U?$pair@Upoint@@U1@@std@@@2@@std@@QAE@XZ 1000b540 f i Utilities.obj
 0001:0000a540       ??1?$_Vector_val@V?$vector@Upoint@@V?$allocator@Upoint@@@std@@@std@@V?$allocator@V?$vector@Upoint@@V?$allocator@Upoint@@@std@@@std@@@2@@std@@QAE@XZ 1000b540 f i IACalcThreadDamage.obj
 0001:0000a540       ??1?$_Vector_val@MV?$allocator@M@std@@@std@@QAE@XZ 1000b540 f i IAFindShape.obj
 0001:0000a540       ??1?$_Vector_val@Upoint@@V?$allocator@Upoint@@@std@@@std@@QAE@XZ 1000b540 f i IACalcThreadDamage.obj
 0001:0000a540       ??1?$_Vector_val@HV?$allocator@H@std@@@std@@QAE@XZ 1000b540 f i DataStat.obj
 0001:0000a540       ??1?$_Vector_val@NV?$allocator@N@std@@@std@@QAE@XZ 1000b540 f i PolygonNIFloat.obj
 0001:0000a590       ??$fill@PAUPointFloat_struct@@U1@@std@@YAXPAUPointFloat_struct@@0ABU1@@Z 1000b590 f i IACalcTeeth.obj
 0001:0000a590       ??$fill@PAV?$Point_@H@cv@@V12@@std@@YAXPAV?$Point_@H@cv@@0ABV12@@Z 1000b590 f i cxcore210:cxdrawing.obj
 0001:0000a5c0       ??$_Uninit_fill_n@PAUPointFloat_struct@@IU1@V?$allocator@UPointFloat_struct@@@std@@@std@@YAXPAUPointFloat_struct@@IABU1@AAV?$allocator@UPointFloat_struct@@@0@U_Nonscalar_ptr_iterator_tag@0@U_Range_checked_iterator_tag@0@@Z 1000b5c0 f i IACalcTeeth.obj
 0001:0000a640       ??$_Unchecked_move_backward@PAUPointFloat_struct@@PAU1@@stdext@@YAPAUPointFloat_struct@@PAU1@00@Z 1000b640 f i IACalcTeeth.obj
 0001:0000a640       ??$_Unchecked_move_backward@PAV?$Point_@H@cv@@PAV12@@stdext@@YAPAV?$Point_@H@cv@@PAV12@00@Z 1000b640 f i cxcore210:cxdrawing.obj
 0001:0000a680       ?_Ufill@?$vector@UPointFloat_struct@@V?$allocator@UPointFloat_struct@@@std@@@std@@IAEPAUPointFloat_struct@@PAU3@IABU3@@Z 1000b680 f i IACalcTeeth.obj
 0001:0000a6c0       ?erase@?$vector@UPointFloat_struct@@V?$allocator@UPointFloat_struct@@@std@@@std@@QAE?AV?$_Vector_iterator@UPointFloat_struct@@V?$allocator@UPointFloat_struct@@@std@@@2@V?$_Vector_const_iterator@UPointFloat_struct@@V?$allocator@UPointFloat_struct@@@std@@@2@@Z 1000b6c0 f i IACalcTeeth.obj
 0001:0000a720       ?erase@?$vector@UPointFloat_struct@@V?$allocator@UPointFloat_struct@@@std@@@std@@QAE?AV?$_Vector_iterator@UPointFloat_struct@@V?$allocator@UPointFloat_struct@@@std@@@2@V?$_Vector_const_iterator@UPointFloat_struct@@V?$allocator@UPointFloat_struct@@@std@@@2@0@Z 1000b720 f i IACalcTeeth.obj
 0001:0000a7c0       ??$_Umove@PAUPointFloat_struct@@@?$vector@UPointFloat_struct@@V?$allocator@UPointFloat_struct@@@std@@@std@@IAEPAUPointFloat_struct@@PAU2@00@Z 1000b7c0 f i IACalcTeeth.obj
 0001:0000a7f0       ?filter_same_points@@YAXAAV?$vector@UPointFloat_struct@@V?$allocator@UPointFloat_struct@@@std@@@std@@@Z 1000b7f0 f   IACalcTeeth.obj
 0001:0000a8f0       ?_Insert_n@?$vector@UPointFloat_struct@@V?$allocator@UPointFloat_struct@@@std@@@std@@IAEXV?$_Vector_const_iterator@UPointFloat_struct@@V?$allocator@UPointFloat_struct@@@std@@@2@IABUPointFloat_struct@@@Z 1000b8f0 f i IACalcTeeth.obj
 0001:0000ab20       ?insert@?$vector@UPointFloat_struct@@V?$allocator@UPointFloat_struct@@@std@@@std@@QAE?AV?$_Vector_iterator@UPointFloat_struct@@V?$allocator@UPointFloat_struct@@@std@@@2@V?$_Vector_const_iterator@UPointFloat_struct@@V?$allocator@UPointFloat_struct@@@std@@@2@ABUPointFloat_struct@@@Z 1000bb20 f i IACalcTeeth.obj
 0001:0000abe0       ?push_back@?$vector@UPointFloat_struct@@V?$allocator@UPointFloat_struct@@@std@@@std@@QAEXABUPointFloat_struct@@@Z 1000bbe0 f i IACalcTeeth.obj
 0001:0000ac60       ?MakeMidLine@@YAXPAUImage_struct@@AAV?$vector@UPointFloat_struct@@V?$allocator@UPointFloat_struct@@@std@@@std@@ABV23@UPointFloat_struct@@3M_N@Z 1000bc60 f   IACalcTeeth.obj
 0001:0000ae30       ?get_points_interested@@YAXPBUCurve_struct@@PBUinterested_options@@AAUinterested_report@@AAV?$vector@UPointFloat_struct@@V?$allocator@UPointFloat_struct@@@std@@@std@@33@Z 1000be30 f   IACalcTeeth.obj
 0001:0000b210       ?find_top_points@@YAXABV?$vector@UPointFloat_struct@@V?$allocator@UPointFloat_struct@@@std@@@std@@ABUPointFloat_struct@@1HAAV12@@Z 1000c210 f   IACalcTeeth.obj
 0001:0000b480       _IA_Calc_FindTeeth         1000c480 f   IACalcTeeth.obj
 0001:0000cc50       ??1dispose_ipl@@QAE@XZ     1000dc50 f i IACalcThreadDamage.obj
 0001:0000cc60       ?cvSize@@YA?AUCvSize@@HH@Z 1000dc60 f i IACalcThreadDamage.obj
 0001:0000cc60       ?cvPoint@@YA?AUCvPoint@@HH@Z 1000dc60 f i IACalcThreadDamage.obj
 0001:0000cc70       ?cvScalar@@YA?AUCvScalar@@NNNN@Z 1000dc70 f i IACalcThreadDamage.obj
 0001:0000cca0       ?GetExternalContour@CBlob@@QAEPAVCBlobContour@@XZ 1000dca0 f i IACalcThreadDamage.obj
 0001:0000ccb0       ?draw_defect@@YAXPAUImage_struct@@PBUPointFloat_struct@@PBURGBValue_struct@@H_N@Z 1000dcb0 f   IACalcThreadDamage.obj
 0001:0000cf90       ?get_points_safe@@YAXPAUpoint@@PBU1@HHH@Z 1000df90 f   IACalcThreadDamage.obj
 0001:0000d030       ??A?$vector@HV?$allocator@H@std@@@std@@QAEAAHI@Z 1000e030 f i IACalcThreadDamage.obj
 0001:0000d060       ?size@?$vector@PAVCBlob@@V?$allocator@PAVCBlob@@@std@@@std@@QBEIXZ 1000e060 f i IACalcThreadDamage.obj
 0001:0000d070       ??Y?$_Vector_const_iterator@V?$vector@Upoint@@V?$allocator@Upoint@@@std@@@std@@V?$allocator@V?$vector@Upoint@@V?$allocator@Upoint@@@std@@@std@@@2@@std@@QAEAAV01@H@Z 1000e070 f i IACalcThreadDamage.obj
 0001:0000d0d0       ?GetNumBlobs@CBlobResult@@QBEHXZ 1000e0d0 f i IACalcThreadDamage.obj
 0001:0000d0e0       ?judge_crack@@YAHVCBlobResult@@URect_struct@@AAUPointFloat_struct@@@Z 1000e0e0 f   IACalcThreadDamage.obj
 0001:0000d310       ??1?$auto_array@Upoint@@@@UAE@XZ 1000e310 f i IACalcThreadDamage.obj
 0001:0000d330       ??_G?$auto_array@Upoint@@@@UAEPAXI@Z 1000e330 f i IACalcThreadDamage.obj
 0001:0000d330       ??_E?$auto_array@Upoint@@@@UAEPAXI@Z 1000e330 f i IACalcThreadDamage.obj
 0001:0000d370       ?Alloc@?$auto_array@Upoint@@@@QAEHH@Z 1000e370 f i IACalcThreadDamage.obj
 0001:0000d430       ?allocate@?$allocator@V?$vector@Upoint@@V?$allocator@Upoint@@@std@@@std@@@std@@QAEPAV?$vector@Upoint@@V?$allocator@Upoint@@@std@@@2@I@Z 1000e430 f i IACalcThreadDamage.obj
 0001:0000d480       ??$_Construct@Upoint@@U1@@std@@YAXPAUpoint@@ABU1@@Z 1000e480 f i IACalcThreadDamage.obj
 0001:0000d4e0       ?get_ipl@@YAPAU_IplImage@@PAUImage_struct@@@Z 1000e4e0 f   IACalcThreadDamage.obj
 0001:0000d5e0       ?locate@@YAHPAUImage_struct@@URect_struct@@@Z 1000e5e0 f   IACalcThreadDamage.obj
 0001:0000d6f0       ?_Buy@?$vector@NV?$allocator@N@std@@@std@@IAE_NI@Z 1000e6f0 f i PolygonNIFloat.obj
 0001:0000d6f0       ?_Buy@?$vector@Upoint@@V?$allocator@Upoint@@@std@@@std@@IAE_NI@Z 1000e6f0 f i IACalcThreadDamage.obj
 0001:0000d740       ??$fill@PAUpoint@@U1@@std@@YAXPAUpoint@@0ABU1@@Z 1000e740 f i IACalcThreadDamage.obj
 0001:0000d770       ?construct@?$allocator@Upoint@@@std@@QAEXPAUpoint@@ABU3@@Z 1000e770 f i IACalcThreadDamage.obj
 0001:0000d790       ??$_Uninit_copy@PBUpoint@@PAU1@V?$allocator@Upoint@@@std@@@std@@YAPAUpoint@@PBU1@0PAU1@AAV?$allocator@Upoint@@@0@U_Nonscalar_ptr_iterator_tag@0@U_Range_checked_iterator_tag@0@@Z 1000e790 f i IACalcThreadDamage.obj
 0001:0000d790       ??$_Uninit_copy@PAUpoint@@PAU1@V?$allocator@Upoint@@@std@@@std@@YAPAUpoint@@PAU1@00AAV?$allocator@Upoint@@@0@U_Nonscalar_ptr_iterator_tag@0@U_Range_checked_iterator_tag@0@@Z 1000e790 f i IACalcThreadDamage.obj
 0001:0000d820       ?end@?$vector@HV?$allocator@H@std@@@std@@QBE?AV?$_Vector_const_iterator@HV?$allocator@H@std@@@2@XZ 1000e820 f i IACalcThreadDamage.obj
 0001:0000d820       ?end@?$vector@Upoint@@V?$allocator@Upoint@@@std@@@std@@QBE?AV?$_Vector_const_iterator@Upoint@@V?$allocator@Upoint@@@std@@@2@XZ 1000e820 f i IACalcThreadDamage.obj
 0001:0000d820       ?end@?$vector@NV?$allocator@N@std@@@std@@QAE?AV?$_Vector_iterator@NV?$allocator@N@std@@@2@XZ 1000e820 f i PolygonNIFloat.obj
 0001:0000d850       ?begin@?$vector@NV?$allocator@N@std@@@std@@QAE?AV?$_Vector_iterator@NV?$allocator@N@std@@@2@XZ 1000e850 f i PolygonNIFloat.obj
 0001:0000d850       ?begin@?$vector@Upoint@@V?$allocator@Upoint@@@std@@@std@@QBE?AV?$_Vector_const_iterator@Upoint@@V?$allocator@Upoint@@@std@@@2@XZ 1000e850 f i IACalcThreadDamage.obj
 0001:0000d850       ?begin@?$vector@HV?$allocator@H@std@@@std@@QBE?AV?$_Vector_const_iterator@HV?$allocator@H@std@@@2@XZ 1000e850 f i IACalcThreadDamage.obj
 0001:0000d880       ??$_Unchecked_move_backward@PAUpoint@@PAU1@@stdext@@YAPAUpoint@@PAU1@00@Z 1000e880 f i IACalcThreadDamage.obj
 0001:0000d8c0       ??$_Uninit_fill_n@PAUpoint@@IU1@V?$allocator@Upoint@@@std@@@std@@YAXPAUpoint@@IABU1@AAV?$allocator@Upoint@@@0@U_Nonscalar_ptr_iterator_tag@0@U_Range_checked_iterator_tag@0@@Z 1000e8c0 f i IACalcThreadDamage.obj
 0001:0000d940       ?erase@?$vector@HV?$allocator@H@std@@@std@@QAE?AV?$_Vector_iterator@HV?$allocator@H@std@@@2@V?$_Vector_const_iterator@HV?$allocator@H@std@@@2@0@Z 1000e940 f i IACalcThreadDamage.obj
 0001:0000d9d0       ??$_Ucopy@V?$_Vector_const_iterator@HV?$allocator@H@std@@@std@@@?$vector@HV?$allocator@H@std@@@std@@IAEPAHV?$_Vector_const_iterator@HV?$allocator@H@std@@@1@0PAH@Z 1000e9d0 f i IACalcThreadDamage.obj
 0001:0000da10       ??$_Ucopy@V?$_Vector_const_iterator@Upoint@@V?$allocator@Upoint@@@std@@@std@@@?$vector@Upoint@@V?$allocator@Upoint@@@std@@@std@@IAEPAUpoint@@V?$_Vector_const_iterator@Upoint@@V?$allocator@Upoint@@@std@@@1@0PAU2@@Z 1000ea10 f i IACalcThreadDamage.obj
 0001:0000da40       ?get_damage@@YAHPAUImage_struct@@HV?$vector@HV?$allocator@H@std@@@std@@Upoint@@URect_struct@@M1AAUPointFloat_struct@@@Z 1000ea40 f   IACalcThreadDamage.obj
 0001:0000ddf0       ??0?$vector@HV?$allocator@H@std@@@std@@QAE@ABV01@@Z 1000edf0 f i IACalcThreadDamage.obj
 0001:0000dee0       ?back@?$vector@V?$vector@Upoint@@V?$allocator@Upoint@@@std@@@std@@V?$allocator@V?$vector@Upoint@@V?$allocator@Upoint@@@std@@@std@@@2@@std@@QAEAAV?$vector@Upoint@@V?$allocator@Upoint@@@std@@@2@XZ 1000eee0 f i IACalcThreadDamage.obj
 0001:0000df40       ?erase@?$vector@Upoint@@V?$allocator@Upoint@@@std@@@std@@QAE?AV?$_Vector_iterator@Upoint@@V?$allocator@Upoint@@@std@@@2@V?$_Vector_const_iterator@Upoint@@V?$allocator@Upoint@@@std@@@2@0@Z 1000ef40 f i IACalcThreadDamage.obj
 0001:0000dfc0       ?_Tidy@?$vector@NV?$allocator@N@std@@@std@@IAEXXZ 1000efc0 f i PolygonNIFloat.obj
 0001:0000dfc0       ?_Tidy@?$vector@HV?$allocator@H@std@@@std@@IAEXXZ 1000efc0 f i DataStat.obj
 0001:0000dfc0       ?_Tidy@?$vector@Upoint@@V?$allocator@Upoint@@@std@@@std@@IAEXXZ 1000efc0 f i IACalcThreadDamage.obj
 0001:0000dff0       ?_Ufill@?$vector@Upoint@@V?$allocator@Upoint@@@std@@@std@@IAEPAUpoint@@PAU3@IABU3@@Z 1000eff0 f i IACalcThreadDamage.obj
 0001:0000e030       ??0?$vector@Upoint@@V?$allocator@Upoint@@@std@@@std@@QAE@ABV01@@Z 1000f030 f i IACalcThreadDamage.obj
 0001:0000e120       ?clear@?$vector@Upoint@@V?$allocator@Upoint@@@std@@@std@@QAEXXZ 1000f120 f i IACalcThreadDamage.obj
 0001:0000e170       ??$_Ucopy@PAUpoint@@@?$vector@Upoint@@V?$allocator@Upoint@@@std@@@std@@IAEPAUpoint@@PAU2@00@Z 1000f170 f i IACalcThreadDamage.obj
 0001:0000e170       ??$_Umove@PAUpoint@@@?$vector@Upoint@@V?$allocator@Upoint@@@std@@@std@@IAEPAUpoint@@PAU2@00@Z 1000f170 f i IACalcThreadDamage.obj
 0001:0000e1a0       ??4?$vector@Upoint@@V?$allocator@Upoint@@@std@@@std@@QAEAAV01@ABV01@@Z 1000f1a0 f i IACalcThreadDamage.obj
 0001:0000e290       ??$_Construct@V?$vector@Upoint@@V?$allocator@Upoint@@@std@@@std@@V12@@std@@YAXPAV?$vector@Upoint@@V?$allocator@Upoint@@@std@@@0@ABV10@@Z 1000f290 f i IACalcThreadDamage.obj
 0001:0000e2f0       ?resize@?$vector@HV?$allocator@H@std@@@std@@QAEXIH@Z 1000f2f0 f i IACalcThreadDamage.obj
 0001:0000e3a0       ?_Insert_n@?$vector@Upoint@@V?$allocator@Upoint@@@std@@@std@@IAEXV?$_Vector_const_iterator@Upoint@@V?$allocator@Upoint@@@std@@@2@IABUpoint@@@Z 1000f3a0 f i IACalcThreadDamage.obj
 0001:0000e5e0       ?construct@?$allocator@V?$vector@Upoint@@V?$allocator@Upoint@@@std@@@std@@@std@@QAEXPAV?$vector@Upoint@@V?$allocator@Upoint@@@std@@@2@ABV32@@Z 1000f5e0 f i IACalcThreadDamage.obj
 0001:0000e600       ?insert@?$vector@Upoint@@V?$allocator@Upoint@@@std@@@std@@QAE?AV?$_Vector_iterator@Upoint@@V?$allocator@Upoint@@@std@@@2@V?$_Vector_const_iterator@Upoint@@V?$allocator@Upoint@@@std@@@2@ABUpoint@@@Z 1000f600 f i IACalcThreadDamage.obj
 0001:0000e6c0       ??$fill@PAV?$vector@Upoint@@V?$allocator@Upoint@@@std@@@std@@V12@@std@@YAXPAV?$vector@Upoint@@V?$allocator@Upoint@@@std@@@0@0ABV10@@Z 1000f6c0 f i IACalcThreadDamage.obj
 0001:0000e6f0       ??$_Uninit_move@PAV?$vector@Upoint@@V?$allocator@Upoint@@@std@@@std@@PAV12@V?$allocator@V?$vector@Upoint@@V?$allocator@Upoint@@@std@@@std@@@2@@std@@YAPAV?$vector@Upoint@@V?$allocator@Upoint@@@std@@@0@PAV10@00AAV?$allocator@V?$vector@Upoint@@V?$allocator@Upoint@@@std@@@std@@@0@U_Swap_move_tag@0@U_Range_checked_iterator_tag@0@@Z 1000f6f0 f i IACalcThreadDamage.obj
 0001:0000e800       ??$_Move_backward_opt@PAV?$vector@Upoint@@V?$allocator@Upoint@@@std@@@std@@PAV12@Uforward_iterator_tag@2@@std@@YAPAV?$vector@Upoint@@V?$allocator@Upoint@@@std@@@0@PAV10@00Uforward_iterator_tag@0@U_Swap_move_tag@0@U_Range_checked_iterator_tag@0@@Z 1000f800 f i IACalcThreadDamage.obj
 0001:0000e8a0       ?get_sum_kernel@@YA_NV?$vector@Upoint@@V?$allocator@Upoint@@@std@@@std@@HAAV?$vector@HV?$allocator@H@std@@@2@AAUpoint@@21@Z 1000f8a0 f   IACalcThreadDamage.obj
 0001:0000ecd0       ?push_back@?$vector@Upoint@@V?$allocator@Upoint@@@std@@@std@@QAEXABUpoint@@@Z 1000fcd0 f i IACalcThreadDamage.obj
 0001:0000ed50       ??$_Uninit_fill_n@PAV?$vector@Upoint@@V?$allocator@Upoint@@@std@@@std@@IV12@V?$allocator@V?$vector@Upoint@@V?$allocator@Upoint@@@std@@@std@@@2@@std@@YAXPAV?$vector@Upoint@@V?$allocator@Upoint@@@std@@@0@IABV10@AAV?$allocator@V?$vector@Upoint@@V?$allocator@Upoint@@@std@@@std@@@0@U_Nonscalar_ptr_iterator_tag@0@U_Range_checked_iterator_tag@0@@Z 1000fd50 f i IACalcThreadDamage.obj
 0001:0000edf0       ?get_contour@@YAHPAVCBlob@@AAV?$vector@Upoint@@V?$allocator@Upoint@@@std@@@std@@@Z 1000fdf0 f   IACalcThreadDamage.obj
 0001:0000eec0       ??$_Umove@PAV?$vector@Upoint@@V?$allocator@Upoint@@@std@@@std@@@?$vector@V?$vector@Upoint@@V?$allocator@Upoint@@@std@@@std@@V?$allocator@V?$vector@Upoint@@V?$allocator@Upoint@@@std@@@std@@@2@@std@@IAEPAV?$vector@Upoint@@V?$allocator@Upoint@@@std@@@1@PAV21@00@Z 1000fec0 f i IACalcThreadDamage.obj
 0001:0000eef0       ??$_Unchecked_move_backward@PAV?$vector@Upoint@@V?$allocator@Upoint@@@std@@@std@@PAV12@@stdext@@YAPAV?$vector@Upoint@@V?$allocator@Upoint@@@std@@@std@@PAV12@00@Z 1000fef0 f i IACalcThreadDamage.obj
 0001:0000ef50       ?_Ufill@?$vector@V?$vector@Upoint@@V?$allocator@Upoint@@@std@@@std@@V?$allocator@V?$vector@Upoint@@V?$allocator@Upoint@@@std@@@std@@@2@@std@@IAEPAV?$vector@Upoint@@V?$allocator@Upoint@@@std@@@2@PAV32@IABV32@@Z 1000ff50 f i IACalcThreadDamage.obj
 0001:0000ef90       ?_Destroy@?$vector@V?$vector@Upoint@@V?$allocator@Upoint@@@std@@@std@@V?$allocator@V?$vector@Upoint@@V?$allocator@Upoint@@@std@@@std@@@2@@std@@IAEXPAV?$vector@Upoint@@V?$allocator@Upoint@@@std@@@2@0@Z 1000ff90 f i IACalcThreadDamage.obj
 0001:0000efc0       ?_Insert_n@?$vector@V?$vector@Upoint@@V?$allocator@Upoint@@@std@@@std@@V?$allocator@V?$vector@Upoint@@V?$allocator@Upoint@@@std@@@std@@@2@@std@@IAEXV?$_Vector_const_iterator@V?$vector@Upoint@@V?$allocator@Upoint@@@std@@@std@@V?$allocator@V?$vector@Upoint@@V?$allocator@Upoint@@@std@@@std@@@2@@2@IABV?$vector@Upoint@@V?$allocator@Upoint@@@std@@@2@@Z 1000ffc0 f i IACalcThreadDamage.obj
 0001:0000f280       ?insert@?$vector@V?$vector@Upoint@@V?$allocator@Upoint@@@std@@@std@@V?$allocator@V?$vector@Upoint@@V?$allocator@Upoint@@@std@@@std@@@2@@std@@QAE?AV?$_Vector_iterator@V?$vector@Upoint@@V?$allocator@Upoint@@@std@@@std@@V?$allocator@V?$vector@Upoint@@V?$allocator@Upoint@@@std@@@std@@@2@@2@V?$_Vector_const_iterator@V?$vector@Upoint@@V?$allocator@Upoint@@@std@@@std@@V?$allocator@V?$vector@Upoint@@V?$allocator@Upoint@@@std@@@std@@@2@@2@ABV?$vector@Upoint@@V?$allocator@Upoint@@@std@@@2@@Z 10010280 f i IACalcThreadDamage.obj
 0001:0000f330       ?_Tidy@?$vector@V?$vector@Upoint@@V?$allocator@Upoint@@@std@@@std@@V?$allocator@V?$vector@Upoint@@V?$allocator@Upoint@@@std@@@std@@@2@@std@@IAEXXZ 10010330 f i IACalcThreadDamage.obj
 0001:0000f380       ??1?$vector@V?$vector@Upoint@@V?$allocator@Upoint@@@std@@@std@@V?$allocator@V?$vector@Upoint@@V?$allocator@Upoint@@@std@@@std@@@2@@std@@QAE@XZ 10010380 f i IACalcThreadDamage.obj
 0001:0000f3e0       ?push_back@?$vector@V?$vector@Upoint@@V?$allocator@Upoint@@@std@@@std@@V?$allocator@V?$vector@Upoint@@V?$allocator@Upoint@@@std@@@std@@@2@@std@@QAEXABV?$vector@Upoint@@V?$allocator@Upoint@@@std@@@2@@Z 100103e0 f i IACalcThreadDamage.obj
 0001:0000f480       _IA_Calc_ThreadDamage      10010480 f   IACalcThreadDamage.obj
 0001:0000fad0       _IA_Calc_FindThreadLocating 10010ad0 f   IACalcThreadLocating.obj
 0001:0000feb0       ?overlay_text_threads@@YAHPAUImage_struct@@UPoint_struct@@PBDPBURGBValue_struct@@@Z 10010eb0 f   IACalcThreads.obj
 0001:0000ff20       ?_Construct_n@?$vector@HV?$allocator@H@std@@@std@@QAEXIABH@Z 10010f20 f i IACalcThreads.obj
 0001:0000ffd0       ??0?$vector@HV?$allocator@H@std@@@std@@QAE@I@Z 10010fd0 f i IACalcThreads.obj
 0001:00010040       ?most_y_row@@YAXPAUImage_struct@@HAAV?$vector@HV?$allocator@H@std@@@std@@@Z 10011040 f   IACalcThreads.obj
 0001:000102e0       _IA_Calc_Threads           100112e0 f   IACalcThreads.obj
 0001:000108f0       ?init_find_shape_report@@YAHPAUFindShapeReport@@@Z 100118f0 f   IAFindShape.obj
 0001:000109b0       ?remove_small@@YAHPAUImage_struct@@@Z 100119b0 f   IAFindShape.obj
 0001:00010a60       ?visible_copy@@YAHHPAUImage_struct@@@Z 10011a60 f   IAFindShape.obj
 0001:00010ab0       ?find_fine_circle@@YA?AV?$basic_string@_WU?$char_traits@_W@std@@V?$allocator@_W@2@@std@@PAUImage_struct@@AAUpoint@@AAM@Z 10011ab0 f   IAFindShape.obj
 0001:00010cd0       ?mask_down@@YA?AV?$basic_string@_WU?$char_traits@_W@std@@V?$allocator@_W@2@@std@@PAUImage_struct@@ABUPointFloat_struct@@M_N@Z 10011cd0 f   IAFindShape.obj
 0001:00010f60       ?find_and_remove_border@@YAHPAUImage_struct@@@Z 10011f60 f   IAFindShape.obj
 0001:00011330       ??$fill@PAMM@std@@YAXPAM0ABM@Z 10012330 f i IAFindShape.obj
 0001:00011350       ??$_Unchecked_move_backward@PAHPAH@stdext@@YAPAHPAH00@Z 10012350 f i DataStat.obj
 0001:00011350       ??$_Unchecked_move_backward@PAMPAM@stdext@@YAPAMPAM00@Z 10012350 f i IAFindShape.obj
 0001:00011380       ??0?$vector@V?$vector@Upoint@@V?$allocator@Upoint@@@std@@@std@@V?$allocator@V?$vector@Upoint@@V?$allocator@Upoint@@@std@@@std@@@2@@std@@QAE@XZ 10012380 f i IACalcThreadDamage.obj
 0001:00011380       ??0?$vector@UPointFloat_struct@@V?$allocator@UPointFloat_struct@@@std@@@std@@QAE@XZ 10012380 f i IACalcTeeth.obj
 0001:00011380       ??0?$vector@U?$pair@Upoint@@U1@@std@@V?$allocator@U?$pair@Upoint@@U1@@std@@@2@@std@@QAE@XZ 10012380 f i Utilities.obj
 0001:00011380       ??0?$vector@NV?$allocator@N@std@@@std@@QAE@XZ 10012380 f i PolygonNIFloat.obj
 0001:00011380       ??0?$vector@MV?$allocator@M@std@@@std@@QAE@XZ 10012380 f i IAFindShape.obj
 0001:00011380       ??0?$vector@Upoint@@V?$allocator@Upoint@@@std@@@std@@QAE@XZ 10012380 f i IACalcThreadDamage.obj
 0001:00011380       ??0?$vector@HV?$allocator@H@std@@@std@@QAE@XZ 10012380 f i DataStat.obj
 0001:000113f0       ??1?$vector@UPointFloat_struct@@V?$allocator@UPointFloat_struct@@@std@@@std@@QAE@XZ 100123f0 f i IACalcTeeth.obj
 0001:000113f0       ??1?$vector@HV?$allocator@H@std@@@std@@QAE@XZ 100123f0 f i DataStat.obj
 0001:000113f0       ??1?$vector@MV?$allocator@M@std@@@std@@QAE@XZ 100123f0 f i IAFindShape.obj
 0001:000113f0       ??1?$vector@U?$pair@Upoint@@U1@@std@@V?$allocator@U?$pair@Upoint@@U1@@std@@@2@@std@@QAE@XZ 100123f0 f i Utilities.obj
 0001:000113f0       ??1?$vector@Upoint@@V?$allocator@Upoint@@@std@@@std@@QAE@XZ 100123f0 f i IACalcThreadDamage.obj
 0001:000113f0       ??1?$vector@NV?$allocator@N@std@@@std@@QAE@XZ 100123f0 f i PolygonNIFloat.obj
 0001:00011460       ?_Ufill@?$vector@MV?$allocator@M@std@@@std@@IAEPAMPAMIABM@Z 10012460 f i IAFindShape.obj
 0001:00011490       ?_Insert_n@?$vector@MV?$allocator@M@std@@@std@@IAEXV?$_Vector_const_iterator@MV?$allocator@M@std@@@2@IABM@Z 10012490 f i IAFindShape.obj
 0001:000116c0       ?insert@?$vector@MV?$allocator@M@std@@@std@@QAE?AV?$_Vector_iterator@MV?$allocator@M@std@@@2@V?$_Vector_const_iterator@MV?$allocator@M@std@@@2@ABM@Z 100126c0 f i IAFindShape.obj
 0001:00011780       ?push_back@?$vector@MV?$allocator@M@std@@@std@@QAEXABM@Z 10012780 f i IAFindShape.obj
 0001:000117f0       ?SideCrack@@YAMPAUImage_struct@@UAnnulus_struct@@H@Z 100127f0 f   IAFindShape.obj
 0001:00011c00       ?find_shape@@YAHPAUImage_struct@@PBUFindShapeOptions@@PAUFindShapeReport@@@Z 10012c00 f   IAFindShape.obj
 0001:00012080       ?find_and_remove_trench@@YA?AV?$basic_string@_WU?$char_traits@_W@std@@V?$allocator@_W@2@@std@@PAUImage_struct@@AAUPointFloat_struct@@AAM@Z 10013080 f   IAFindShape.obj
 0001:00012570       _IA_Calc_FindShape         10013570 f   IAFindShape.obj
 0001:00012cd0       ?GetImage@@YAPAUImage_struct@@HH@Z 10013cd0 f   IAMain.obj
 0001:00012cf0       ?IsEmpty@@YAHPAUImage_struct@@@Z 10013cf0 f   IAMain.obj
 0001:00012d20       _IA_IsEmpty                10013d20 f   IAMain.obj
 0001:00012d60       _IA_GetMyError             10013d60 f   IAMain.obj
 0001:00012d70       _IA_ShowWindow             10013d70 f   IAMain.obj
 0001:00012df0       ?internalEventCallback@@YAXW4WindowEventType_enum@@HW4Tool_enum@@URect_struct@@@Z 10013df0 f   IAMain.obj
 0001:00012e30       _IA_Free                   10013e30 f   IAMain.obj
 0001:00012ee0       _IA_Initialize             10013ee0 f   IAMain.obj
 0001:00013010       _IA_SetTool                10014010 f   IAMain.obj
 0001:00013020       _IA_SetupWindow            10014020 f   IAMain.obj
 0001:00013140       _IA_ReadImage              10014140 f   IAMain.obj
 0001:000132b0       ?save_image@@YAPAUImage_struct@@HH@Z 100142b0 f   IAMain.obj
 0001:000133b0       ?restore_image@@YAHHHPAUImage_struct@@@Z 100143b0 f   IAMain.obj
 0001:00013480       _IA_CopyImage              10014480 f   IAMain.obj
 0001:00013520       _IA_Refresh                10014520 f   IAMain.obj
 0001:000135b0       _IA_AqcuiredImage          100145b0 f   IAMain.obj
 0001:00013640       _IA_GetZoom                10014640 f   IAMain.obj
 0001:00013880       _IA_SetZoom                10014880 f   IAMain.obj
 0001:00013970       _IA_OverlayClear           10014970 f   IAMain.obj
 0001:00013a20       ?GetColor@@YA?AURGBValue_struct@@H@Z 10014a20 f   IAMain.obj
 0001:00013ab0       _IA_OverlayDrawLine        10014ab0 f   IAMain.obj
 0001:00013b70       _IA_OverlayDrawText        10014b70 f   IAMain.obj
 0001:00013ca0       _IA_OverlayDrawText2       10014ca0 f   IAMain.obj
 0001:00013d80       _IA_ShowScrollbar          10014d80 f   IAMain.obj
 0001:00013da0       _IA_ViewBinary             10014da0 f   IAMain.obj
 0001:00013dc0       _IA_ViewGray               10014dc0 f   IAMain.obj
 0001:00013de0       ?copy_overlay_from@@YAHPAUImage_struct@@HH@Z 10014de0 f   IAMain.obj
 0001:00013f00       _log_debug                 10014f00 f   IAMain.obj
 0001:00013f10       _log_error                 10014f10 f   IAMain.obj
 0001:00013f20       _log_info                  10014f20 f   IAMain.obj
 0001:00013f30       _log_warning               10014f30 f   IAMain.obj
 0001:00013f40       _log_fatal                 10014f40 f   IAMain.obj
 0001:00013f50       _log_set_level             10014f50 f   IAMain.obj
 0001:00013f60       _log_init                  10014f60 f   IAMain.obj
 0001:00013f70       _log_finish                10014f70 f   IAMain.obj
 0001:00013f80       _IA_GetLastError           10014f80 f   IAMain.obj
 0001:00014040       _IA_Screenshot             10015040 f   IAMain.obj
 0001:00014170       _IA_Screenshot_Display     10015170 f   IAMain.obj
 0001:000142a0       _IA_Process_BinarizeManual 100152a0 f   IAProcess.obj
 0001:00014460       _IA_Process_RemoveNoise    10015460 f   IAProcess.obj
 0001:000145a0       _IA_Process_BinarizeAuto   100155a0 f   IAProcess.obj
 0001:00014740       ?GetROI@@YAPAUROI_struct@@H@Z 10015740 f   IAROI.obj
 0001:00014750       _IA_ROI_GetBoundary        10015750 f   IAROI.obj
 0001:00014760       _IA_ROI_Remove             10015760 f   IAROI.obj
 0001:00014810       _IA_ROI_SetColor           10015810 f   IAROI.obj
 0001:000148c0       ??$GetBoundingGeneral@URotatedRect_struct@@@@YAHPBURotatedRect_struct@@PAURect_struct@@@Z 100158c0 f i IAROI.obj
 0001:00014990       ??$AddTool@URotatedRect_struct@@@@YAHHPBURotatedRect_struct@@@Z 10015990 f i IAROI.obj
 0001:00014b00       ??$GetBoundingGeneral@UAnnulus_struct@@@@YAHPBUAnnulus_struct@@PAURect_struct@@@Z 10015b00 f i IAROI.obj
 0001:00014be0       ??$AddTool@UAnnulus_struct@@@@YAHHPBUAnnulus_struct@@@Z 10015be0 f i IAROI.obj
 0001:00014d50       ??$GetBoundingGeneral@URect_struct@@@@YAHPBURect_struct@@PAU0@@Z 10015d50 f i IAROI.obj
 0001:00014f20       _IA_ROI_AddRotatedRectangle 10015f20 f   IAROI.obj
 0001:00014f40       _IA_ROI_GetRotatedRectangle 10015f40 f   IAROI.obj
 0001:00014f70       _IA_ROI_AddAnnulus         10015f70 f   IAROI.obj
 0001:00014f90       _IA_ROI_GetAnnulus         10015f90 f   IAROI.obj
 0001:00014fc0       _IA_ROI_AddRectangle       10015fc0 f   IAROI.obj
 0001:00015020       _IA_ROI_GetRectangle       10016020 f   IAROI.obj
 0001:00015050       _imaqDisposeStraightEdgeReport@4 10016050 f   NIMachineVision.obj
 0001:00015050       _imaqDisposeCircularEdgeReport@4 10016050 f   NIMachineVision.obj
 0001:00015080       _imaqFindExtremeEdge       10016080 f   NIMachineVision.obj
 0001:00015250       _imaqMakePointFromPointFloat 10016250 f   NIMachineVision.obj
 0001:000152a0       _imaqMeasureMaxDistance    100162a0 f   NIMachineVision.obj
 0001:00015460       _imaqMeasureMinDistance    10016460 f   NIMachineVision.obj
 0001:00015640       _imaqOverlayArrow          10016640 f   NIMachineVision.obj
 0001:000158a0       _imaqOverlayLineWithArrow  100168a0 f   NIMachineVision.obj
 0001:00015940       _imaqPrepareForExit        10016940 f   NIMachineVision.obj
 0001:00015980       _imaqSplitRotatedRectangle 10016980 f   NIMachineVision.obj
 0001:00015c50       _imaqOverlayClampResults   10016c50 f   NIMachineVision.obj
 0001:00016570       _imaqOverlayFindCircularEdgeResults 10017570 f   NIMachineVision.obj
 0001:00016990       _imaqOverlayFindEdgeResults 10017990 f   NIMachineVision.obj
 0001:00016e40       _imaqFindCircularEdge@52   10017e40 f   NIMachineVision.obj
 0001:00017140       _imaqFindEdge@40           10018140 f   NIMachineVision.obj
 0001:000174f0       _imaqClampMax@52           100184f0 f   NIMachineVision.obj
 0001:00017730       _imaqClampMin@52           10018730 f   NIMachineVision.obj
 0001:00017bd0       ?get_point@@YA?AUPoint_struct@@ABUPointFloat_struct@@MM@Z 10018bd0 f   NIPoints.obj
 0001:00017c00       ?draw_circle@@YAXPAUImage_struct@@ABUPointFloat_struct@@MPBURGBValue_struct@@@Z 10018c00 f   NIPoints.obj
 0001:00017d00       ?draw_line@@YAXPAUImage_struct@@ABUPointFloat_struct@@1HHPBURGBValue_struct@@HH@Z 10018d00 f   NIPoints.obj
 0001:00017d80       ?point2point@@YAMABUPoint_struct@@0@Z 10018d80 f   NIPoints.obj
 0001:00017de0       ?point2point@@YAMABUPointFloat_struct@@0@Z 10018de0 f   NIPoints.obj
 0001:00017de0       ?point2point@@YAMABUpoint@@0@Z 10018de0 f   NIPoints.obj
 0001:00017e60       ?point2line@@YAMABUPointFloat_struct@@00_N@Z 10018e60 f   NIPoints.obj
 0001:00017fd0       ?radian2degree@@YAMM@Z     10018fd0 f   NIPoints.obj
 0001:00017ff0       ?Angle@@YAMABUPointFloat_struct@@00@Z 10018ff0 f   NIPoints.obj
 0001:00018170       ?draw_point@@YAHPAUImage_struct@@UPointFloat_struct@@URGBValue_struct@@@Z 10019170 f   overlay.obj
 0001:00018200       ?overlay_result@@YAHPAUImage_struct@@ABUoptions_overlay_result@@@Z 10019200 f   overlay.obj
 0001:000184f0       ?overlay_result_max@@YAHPAUImage_struct@@ABURotatedRect_struct@@ABUPointFloat_struct@@2W4RakeDirection_enum@@@Z 100194f0 f   overlay.obj
 0001:000185b0       ?overlay_result_min@@YAHPAUImage_struct@@ABURotatedRect_struct@@ABUPointFloat_struct@@2W4RakeDirection_enum@@@Z 100195b0 f   overlay.obj
 0001:00018680       ??0point@@QAE@ABUPoint_struct@@@Z 10019680 f   point.obj
 0001:000186a0       ?pt@point@@QBE?AUPoint_struct@@XZ 100196a0 f   point.obj
 0001:000186e0       ??8@YA_NABUpoint@@0@Z      100196e0 f   point.obj
 0001:00018730       ??0point@@QAE@ABUPointFloat_struct@@@Z 10019730 f   point.obj
 0001:00018730       ??4point@@QAEAAU0@ABUPointFloat_struct@@@Z 10019730 f   point.obj
 0001:00018750       ?_Reverse@?$vector@Upoint@@V?$allocator@Upoint@@@std@@@std@@QAEXPAUpoint@@0@Z 10019750 f i point.obj
 0001:00018790       ??$_Uninit_copy@PBUPointFloat_struct@@PAUpoint@@V?$allocator@Upoint@@@std@@@std@@YAPAUpoint@@PBUPointFloat_struct@@0PAU1@AAV?$allocator@Upoint@@@0@U_Nonscalar_ptr_iterator_tag@0@U_Range_checked_iterator_tag@0@@Z 10019790 f i point.obj
 0001:00018830       ??$_Ucopy@PBUPointFloat_struct@@@?$vector@Upoint@@V?$allocator@Upoint@@@std@@@std@@IAEPAUpoint@@PBUPointFloat_struct@@0PAU2@@Z 10019830 f i point.obj
 0001:00018860       ??$_Insert@PBUPointFloat_struct@@@?$vector@Upoint@@V?$allocator@Upoint@@@std@@@std@@QAEXV?$_Vector_const_iterator@Upoint@@V?$allocator@Upoint@@@std@@@1@PBUPointFloat_struct@@1Uforward_iterator_tag@1@@Z 10019860 f i point.obj
 0001:00018a00       ??$_Assign@PBUPointFloat_struct@@@?$vector@Upoint@@V?$allocator@Upoint@@@std@@@std@@QAEXPBUPointFloat_struct@@0Uinput_iterator_tag@1@@Z 10019a00 f i point.obj
 0001:00018a70       ?get_points@@YAXPBUPointFloat_struct@@HAAV?$vector@Upoint@@V?$allocator@Upoint@@@std@@@std@@@Z 10019a70 f   point.obj
 0001:00018c90       ?back@?$vector@Upoint@@V?$allocator@Upoint@@@std@@@std@@QBEABUpoint@@XZ 10019c90 f i polygon_moments.obj
 0001:00018d00       ?polygon_moments@@YAXABV?$vector@Upoint@@V?$allocator@Upoint@@@std@@@std@@PAUmoments@@@Z 10019d00 f   polygon_moments.obj
 0001:000191d0       ?translate_points@@YAXPBUPointFloat_struct@@HAAV?$vector@Upoint@@V?$allocator@Upoint@@@std@@@std@@HH@Z 1001a1d0 f   polygon_moments.obj
 0001:00019350       ?size@?$vector@NV?$allocator@N@std@@@std@@QBEIXZ 1001a350 f i PolygonNIFloat.obj
 0001:00019360       ??A?$vector@UPointFloat_struct@@V?$allocator@UPointFloat_struct@@@std@@@std@@QAEAAUPointFloat_struct@@I@Z 1001a360 f i IACalcTeeth.obj
 0001:00019360       ??A?$vector@NV?$allocator@N@std@@@std@@QAEAANI@Z 1001a360 f i PolygonNIFloat.obj
 0001:00019390       ?capacity@?$vector@NV?$allocator@N@std@@@std@@QBEIXZ 1001a390 f i PolygonNIFloat.obj
 0001:000193b0       ??0_Container_base_aux@std@@QAE@XZ 1001a3b0 f i DataStat.obj
 0001:000193b0       ??0?$allocator@N@std@@QAE@XZ 1001a3b0 f i PolygonNIFloat.obj
 0001:000193c0       ??0?$allocator@N@std@@QAE@ABV01@@Z 1001a3c0 f i PolygonNIFloat.obj
 0001:000193d0       ?deallocate@?$allocator@V_Aux_cont@std@@@std@@QAEXPAV_Aux_cont@2@I@Z 1001a3d0 f i DataStat.obj
 0001:000193d0       ?deallocate@?$allocator@N@std@@QAEXPANI@Z 1001a3d0 f i PolygonNIFloat.obj
 0001:000193e0       ??$_Ptr_cat@PANPAN@std@@YA?AU_Scalar_ptr_iterator_tag@0@AAPAN0@Z 1001a3e0 f i PolygonNIFloat.obj
 0001:000193f0       ??$_Iter_random@PANPAN@std@@YA?AUrandom_access_iterator_tag@0@ABQAN0@Z 1001a3f0 f i PolygonNIFloat.obj
 0001:00019400       ??$_Checked_base@PAN@std@@YAPANAAPAN@Z 1001a400 f i PolygonNIFloat.obj
 0001:00019410       ??$unchecked_uninitialized_copy@PANPANV?$allocator@N@std@@@stdext@@YAPANPAN00AAV?$allocator@N@std@@@Z 1001a410 f i PolygonNIFloat.obj
 0001:00019450       ?_Destroy@?$vector@NV?$allocator@N@std@@@std@@IAEXPAN0@Z 1001a450 f i PolygonNIFloat.obj
 0001:00019460       ??0?$_Vector_iterator@NV?$allocator@N@std@@@std@@QAE@PANPBV_Container_base_aux@1@@Z 1001a460 f i PolygonNIFloat.obj
 0001:00019460       ??0?$_Vector_const_iterator@NV?$allocator@N@std@@@std@@QAE@PANPBV_Container_base_aux@1@@Z 1001a460 f i PolygonNIFloat.obj
 0001:000194a0       ?_Ufill@?$vector@NV?$allocator@N@std@@@std@@IAEPANPANIABN@Z 1001a4a0 f i PolygonNIFloat.obj
 0001:000194d0       ?normalize_rect@@YAHPAUImage_struct@@PBURect_struct@@PAU2@@Z 1001a4d0 f   sub_image.obj
 0001:00019610       ?get@sub_image@@QAEXPAUImage_struct@@PBURect_struct@@@Z 1001a610 f   sub_image.obj
 0001:00019770       ??0sub_image@@QAE@XZ       1001a770 f   sub_image.obj
 0001:00019790       ??0sub_image@@QAE@PAUImage_struct@@PBURect_struct@@@Z 1001a790 f   sub_image.obj
 0001:000197d0       ?Commit@sub_image@@QAEXPAUImage_struct@@@Z 1001a7d0 f   sub_image.obj
 0001:00019850       ??1sub_image@@UAE@XZ       1001a850 f   sub_image.obj
 0001:000198c0       ??_Gsub_image@@UAEPAXI@Z   1001a8c0 f i sub_image.obj
 0001:000198c0       ??_Esub_image@@UAEPAXI@Z   1001a8c0 f i sub_image.obj
 0001:000198e0       ?point_mid@@YA?AUPointFloat_struct@@PBU1@0@Z 1001a8e0 f   tools_geometry.obj
 0001:00019960       ?symmetrical_point@@YA?AUPointFloat_struct@@PBU1@0@Z 1001a960 f   tools_geometry.obj
 0001:000199e0       ?rotate_point@@YA?AUPointFloat_struct@@PBU1@0M@Z 1001a9e0 f   tools_geometry.obj
 0001:00019b10       ?make_rotated_rect@@YA?AURotatedRect_struct@@HHUPointFloat_struct@@M@Z 1001ab10 f   tools_ni.obj
 0001:00019ba0       ?point_to_pointfloat@@YA?AUPointFloat_struct@@PBUPoint_struct@@@Z 1001aba0 f   tools_ni.obj
 0001:00019bd0       ?remove_small@@YAHPAUImage_struct@@HH@Z 1001abd0 f   tools_ni.obj
 0001:00019c70       ?morphology@@YAHPAUImage_struct@@W4MorphologyMethod_enum@@@Z 1001ac70 f   tools_ni.obj
 0001:00019d10       ?keep_particle_between@@YAHPAUImage_struct@@W4MeasurementType_enum@@MMPAH@Z 1001ad10 f   tools_ni.obj
 0001:00019d90       ?find_edge@@YAPAUStraightEdgeReport_struct@@PAUImage_struct@@PBUfind_edge_options@@@Z 1001ad90 f   tools_ni.obj
 0001:00019e20       ?keep_particle_largest@@YAHPAUImage_struct@@@Z 1001ae20 f   tools_ni.obj
 0001:00019f30       ?rotate_rect@@YA?AUpoints_rect@@ABURotatedRect_struct@@@Z 1001af30 f   tools_ni.obj
 0001:0001a050       ?fill_circle@@YAHPAUImage_struct@@ABUPointFloat_struct@@ABMH@Z 1001b050 f   tools_ni.obj
 0001:0001a110       ?find_shape@@YAHPAUImage_struct@@UAnnulus_struct@@AAHH@Z 1001b110 f   tools_ni.obj
 0001:0001a220       ?find_diameter@@YAPAUCircularEdgeReport_struct@@PAUImage_struct@@PBUedge_circle_options@@PAPAUSpokeReport_struct@@@Z 1001b220 f   tools_ni.obj
 0001:0001a2a0       ?make_calculatible@@YAHPAUImage_struct@@@Z 1001b2a0 f   tools_ni.obj
 0001:0001a2d0       ?edge_tool@@YAPAUEdgeReport_struct@@PAUImage_struct@@Upoint@@1PAH@Z 1001b2d0 f   tools_ni.obj
 0001:0001a420       ?fill_holes_side@@YAHPAUImage_struct@@@Z 1001b420 f   tools_ni.obj
 0001:0001a590       ?locating@@YAHPAUImage_struct@@PAMPAUPointFloat_struct@@@Z 1001b590 f   tools_ni.obj
 0001:0001a660       ?mask_down@@YAHPAUImage_struct@@URect_struct@@@Z 1001b660 f   tools_ni.obj
 0001:0001a7a0       ?rake@@YAPAURakeReport_struct@@PAUImage_struct@@W4RakeDirection_enum@@W4EdgeProcess_enum@@URect_struct@@@Z 1001b7a0 f   tools_ni.obj
 0001:0001a8a0       ?DrawSmallRect@@YAXPAUImage_struct@@UPointFloat_struct@@HPBURGBValue_struct@@@Z 1001b8a0 f   Utilities.obj
 0001:0001a930       ?FindDiameter@@YAPAUCircularEdgeReport_struct@@PAUImage_struct@@PBUAnnulus_struct@@HHHHHPAPAUSpokeReport_struct@@@Z 1001b930 f   Utilities.obj
 0001:0001a9d0       ?init_diameter_report@@YAHPAUDiameterReport@@@Z 1001b9d0 f   Utilities.obj
 0001:0001aa90       ?FindDistance@@YAMPAUImage_struct@@PBURotatedRect_struct@@HHHPAUPointFloat_struct@@2_N@Z 1001ba90 f   Utilities.obj
 0001:0001ac00       ?GetBounding@@YAHHHPAURect_struct@@@Z 1001bc00 f   Utilities.obj
 0001:0001ace0       ?debug_ni_err@@YA?AV?$basic_string@DU?$char_traits@D@std@@V?$allocator@D@2@@std@@H@Z 1001bce0 f   Utilities.obj
 0001:0001ad80       ??0?$_Container_base_aux_alloc_real@V?$allocator@V?$vector@Upoint@@V?$allocator@Upoint@@@std@@@std@@@std@@@std@@IAE@V?$allocator@V?$vector@Upoint@@V?$allocator@Upoint@@@std@@@std@@@1@@Z 1001bd80 f i IACalcThreadDamage.obj
 0001:0001ad80       ??0?$_Container_base_aux_alloc_real@V?$allocator@N@std@@@std@@IAE@V?$allocator@N@1@@Z 1001bd80 f i PolygonNIFloat.obj
 0001:0001ad80       ??0?$_Container_base_aux_alloc_real@V?$allocator@UPointFloat_struct@@@std@@@std@@IAE@V?$allocator@UPointFloat_struct@@@1@@Z 1001bd80 f i IACalcTeeth.obj
 0001:0001ad80       ??0?$_Container_base_aux_alloc_real@V?$allocator@Upoint@@@std@@@std@@IAE@V?$allocator@Upoint@@@1@@Z 1001bd80 f i IACalcThreadDamage.obj
 0001:0001ad80       ??0?$_Container_base_aux_alloc_real@V?$allocator@U?$pair@Upoint@@U1@@std@@@std@@@std@@IAE@V?$allocator@U?$pair@Upoint@@U1@@std@@@1@@Z 1001bd80 f i Utilities.obj
 0001:0001ad80       ??0?$_Container_base_aux_alloc_real@V?$allocator@H@std@@@std@@IAE@V?$allocator@H@1@@Z 1001bd80 f i DataStat.obj
 0001:0001ad80       ??0?$_Container_base_aux_alloc_real@V?$allocator@M@std@@@std@@IAE@V?$allocator@M@1@@Z 1001bd80 f i IAFindShape.obj
 0001:0001adf0       ??0?$_Vector_val@MV?$allocator@M@std@@@std@@IAE@V?$allocator@M@1@@Z 1001bdf0 f i IAFindShape.obj
 0001:0001adf0       ??0?$_Vector_val@Upoint@@V?$allocator@Upoint@@@std@@@std@@IAE@V?$allocator@Upoint@@@1@@Z 1001bdf0 f i IACalcThreadDamage.obj
 0001:0001adf0       ??0?$_Vector_val@NV?$allocator@N@std@@@std@@IAE@V?$allocator@N@1@@Z 1001bdf0 f i PolygonNIFloat.obj
 0001:0001adf0       ??0?$_Vector_val@V?$vector@Upoint@@V?$allocator@Upoint@@@std@@@std@@V?$allocator@V?$vector@Upoint@@V?$allocator@Upoint@@@std@@@std@@@2@@std@@IAE@V?$allocator@V?$vector@Upoint@@V?$allocator@Upoint@@@std@@@std@@@1@@Z 1001bdf0 f i IACalcThreadDamage.obj
 0001:0001adf0       ??0?$_Vector_val@HV?$allocator@H@std@@@std@@IAE@V?$allocator@H@1@@Z 1001bdf0 f i DataStat.obj
 0001:0001adf0       ??0?$_Vector_val@UPointFloat_struct@@V?$allocator@UPointFloat_struct@@@std@@@std@@IAE@V?$allocator@UPointFloat_struct@@@1@@Z 1001bdf0 f i IACalcTeeth.obj
 0001:0001adf0       ??0?$_Vector_val@U?$pair@Upoint@@U1@@std@@V?$allocator@U?$pair@Upoint@@U1@@std@@@2@@std@@IAE@V?$allocator@U?$pair@Upoint@@U1@@std@@@1@@Z 1001bdf0 f i Utilities.obj
 0001:0001ae50       ?CalcDiameter@@YAHPAUImage_struct@@PBUDiameterOptions@@PAUDiameterReport@@@Z 1001be50 f   Utilities.obj
 0001:0001b2e7       ??_U@YAPAXI@Z              1001c2e7 f   msvcprt:newaop_s.obj
 0001:0001b350       _imaqCloseToolWindow@0     1001c350 f   nivision:nivision.dll
 0001:0001b356       _imaqCloseWindow@4         1001c356 f   nivision:nivision.dll
 0001:0001b360       ___CxxFrameHandler3        1001c360 f   MSVCRT:MSVCR90.dll
 0001:0001b366       @__security_check_cookie@4 1001c366 f   MSVCRT:secchk.obj
 0001:0001b375       ??_Etype_info@@UAEPAXI@Z   1001c375 f i MSVCRT:ti_inst.obj
 0001:0001b3c2       ?what@exception@std@@UBEPBDXZ 1001c3c2 f   MSVCRT:MSVCR90.dll
 0001:0001b3c8       ??3@YAXPAX@Z               1001c3c8 f   MSVCRT:MSVCR90.dll
 0001:0001b3ce       __CxxThrowException@8      1001c3ce f   MSVCRT:MSVCR90.dll
 0001:0001b3d4       ??0exception@std@@QAE@ABV01@@Z 1001c3d4 f   MSVCRT:MSVCR90.dll
 0001:0001b3da       ??2@YAPAXI@Z               1001c3da f   MSVCRT:MSVCR90.dll
 0001:0001b3e0       _memset                    1001c3e0 f   MSVCRT:MSVCR90.dll
 0001:0001b3e6       _memcpy                    1001c3e6 f   MSVCRT:MSVCR90.dll
 0001:0001b3f0       __ftol2_sse                1001c3f0 f   MSVCRT:ftol2.obj
 0001:0001b3f9       __ftol2_pentium4           1001c3f9 f   MSVCRT:ftol2.obj
 0001:0001b40c       __ftol2_sse_excpt          1001c40c f   MSVCRT:ftol2.obj
 0001:0001b426       __ftol2                    1001c426 f   MSVCRT:ftol2.obj
 0001:0001b49c       __CIcos                    1001c49c f   MSVCRT:MSVCR90.dll
 0001:0001b4a2       __CIsin                    1001c4a2 f   MSVCRT:MSVCR90.dll
 0001:0001b4a8       ??_V@YAXPAX@Z              1001c4a8 f   MSVCRT:MSVCR90.dll
 0001:0001b4ae       __CIatan2                  1001c4ae f   MSVCRT:MSVCR90.dll
 0001:0001b4b4       ?__ArrayUnwind@@YGXPAXIHP6EX0@Z@Z 1001c4b4 f   MSVCRT:ehvecdtr.obj
 0001:0001b512       ??_M@YGXPAXIHP6EX0@Z@Z     1001c512 f   MSVCRT:ehvecdtr.obj
 0001:0001b575       ??_L@YGXPAXIHP6EX0@Z1@Z    1001c575 f   MSVCRT:ehvecctr.obj
 0001:0001b5da       __CIsqrt                   1001c5da f   MSVCRT:MSVCR90.dll
 0001:0001b5e0       __CItan                    1001c5e0 f   MSVCRT:MSVCR90.dll
 0001:0001b5e6       __CIatan                   1001c5e6 f   MSVCRT:MSVCR90.dll
 0001:0001b5ec       __CIacos                   1001c5ec f   MSVCRT:MSVCR90.dll
 0001:0001b641       __CRT_INIT@12              1001c641 f   MSVCRT:crtdll.obj
 0001:0001b97d       __DllMainCRTStartup@12     1001c97d f   MSVCRT:crtdll.obj
 0001:0001b9a0       __onexit                   1001c9a0 f   MSVCRT:atonexit.obj
 0001:0001ba45       _atexit                    1001ca45 f   MSVCRT:atonexit.obj
 0001:0001ba5c       ___report_gsfailure        1001ca5c f   MSVCRT:gs_report.obj
 0001:0001bbb2       __get_sse2_info            1001cbb2 f   MSVCRT:cpu_disp.obj
 0001:0001bc14       ___sse2_available_init     1001cc14 f   MSVCRT:cpu_disp.obj
 0001:0001bc22       ?terminate@@YAXXZ          1001cc22 f   MSVCRT:MSVCR90.dll
 0001:0001bc28       __SEH_prolog4              1001cc28 f   MSVCRT:sehprolg4.obj
 0001:0001bc6d       __SEH_epilog4              1001cc6d f   MSVCRT:sehprolg4.obj
 0001:0001bc81       __except_handler4          1001cc81 f   MSVCRT:chandler4gs.obj
 0001:0001bca6       ___clean_type_info_names   1001cca6 f   MSVCRT:tncleanup.obj
 0001:0001bcb2       __RTC_Initialize           1001ccb2 f   MSVCRT:_initsect_.obj
 0001:0001bcd8       __RTC_Terminate            1001ccd8 f   MSVCRT:_initsect_.obj
 0001:0001bd00       __ValidateImageBase        1001cd00 f   MSVCRT:pesect.obj
 0001:0001bd40       __FindPESection            1001cd40 f   MSVCRT:pesect.obj
 0001:0001bd90       __IsNonwritableInCurrentImage 1001cd90 f   MSVCRT:pesect.obj
 0001:0001be4e       __initterm                 1001ce4e f   MSVCRT:MSVCR90.dll
 0001:0001be54       __initterm_e               1001ce54 f   MSVCRT:MSVCR90.dll
 0001:0001be5a       __amsg_exit                1001ce5a f   MSVCRT:MSVCR90.dll
 0001:0001be60       ___CppXcptFilter           1001ce60 f   MSVCRT:MSVCR90.dll
 0001:0001be66       ___security_init_cookie    1001ce66 f   MSVCRT:gs_support.obj
 0001:0001befc       __unlock                   1001cefc f   MSVCRT:MSVCR90.dll
 0001:0001bf02       ___dllonexit               1001cf02 f   MSVCRT:MSVCR90.dll
 0001:0001bf08       __lock                     1001cf08 f   MSVCRT:MSVCR90.dll
 0001:0001bf0e       __crt_debugger_hook        1001cf0e f   MSVCRT:MSVCR90.dll
 0001:0001bf14       ??1type_info@@UAE@XZ       1001cf14 f   MSVCRT:MSVCR90.dll
 0001:0001bf14       ?_type_info_dtor_internal_method@type_info@@QAEXXZ 1001cf14 f   MSVCRT:MSVCR90.dll
 0001:0001bf1a       __except_handler4_common   1001cf1a f   MSVCRT:MSVCR90.dll
 0001:0001bf20       ___clean_type_info_names_internal 1001cf20 f   MSVCRT:MSVCR90.dll
 0001:0001bf30       ??0CBlob@@QAE@XZ           1001cf30 f   cvblobslib:blob.obj
 0001:0001c010       ??0CBlob@@QAE@IUCvPoint@@UCvSize@@@Z 1001d010 f   cvblobslib:blob.obj
 0001:0001c1a0       ??0CBlob@@QAE@ABV0@@Z      1001d1a0 f   cvblobslib:blob.obj
 0001:0001c220       ??0CBlob@@QAE@PBV0@@Z      1001d220 f   cvblobslib:blob.obj
 0001:0001c2a0       ??4CBlob@@QAEAAV0@ABV0@@Z  1001d2a0 f   cvblobslib:blob.obj
 0001:0001c690       ??1CBlob@@QAE@XZ           1001d690 f   cvblobslib:blob.obj
 0001:0001c710       ?ClearContours@CBlob@@AAEXXZ 1001d710 f   cvblobslib:blob.obj
 0001:0001c7a0       ?AddInternalContour@CBlob@@QAEXABVCBlobContour@@@Z 1001d7a0 f   cvblobslib:blob.obj
 0001:0001c7c0       ?IsEmpty@CBlob@@QAE_NXZ    1001d7c0 f   cvblobslib:blob.obj
 0001:0001c7e0       ?Area@CBlob@@QAENXZ        1001d7e0 f   cvblobslib:blob.obj
 0001:0001c870       ?Perimeter@CBlob@@QAENXZ   1001d870 f   cvblobslib:blob.obj
 0001:0001c900       ?Exterior@CBlob@@QAEHPAU_IplImage@@_N1@Z 1001d900 f   cvblobslib:blob.obj
 0001:0001c940       ?ExternPerimeter@CBlob@@QAENPAU_IplImage@@_N1@Z 1001d940 f   cvblobslib:blob.obj
 0001:0001cd50       ?Moment@CBlob@@QAENHH@Z    1001dd50 f   cvblobslib:blob.obj
 0001:0001cdf0       ?Mean@CBlob@@QAENPAU_IplImage@@@Z 1001ddf0 f   cvblobslib:blob.obj
 0001:0001d170       ?StdDev@CBlob@@QAENPAU_IplImage@@@Z 1001e170 f   cvblobslib:blob.obj
 0001:0001d1a0       ?GetBoundingBox@CBlob@@QAE?AUCvRect@@XZ 1001e1a0 f   cvblobslib:blob.obj
 0001:0001d410       ?GetEllipse@CBlob@@QAE?AUCvBox2D@@XZ 1001e410 f   cvblobslib:blob.obj
 0001:0001d820       ?FillBlob@CBlob@@QAEXPAU_IplImage@@UCvScalar@@HH@Z 1001e820 f   cvblobslib:blob.obj
 0001:0001d890       ?GetConvexHull@CBlob@@QAEPAUCvSeq@@XZ 1001e890 f   cvblobslib:blob.obj
 0001:0001d8e0       ?JoinBlob@CBlob@@QAEXPAV1@@Z 1001e8e0 f   cvblobslib:blob.obj
 0001:0001d9c0       _cvCloneSeq                1001e9c0 f i cvblobslib:blob.obj
 0001:0001da00       ?cvSlice@@YA?AUCvSlice@@HH@Z 1001ea00 f i cvblobslib:blob.obj
 0001:0001da20       ?GetStartPoint@CBlobContour@@IBE?AUCvPoint@@XZ 1001ea20 f i cvblobslib:blob.obj
 0001:0001da50       ??0?$list@VCBlobContour@@V?$allocator@VCBlobContour@@@std@@@std@@QAE@XZ 1001ea50 f i cvblobslib:blob.obj
 0001:0001dad0       ??0?$list@VCBlobContour@@V?$allocator@VCBlobContour@@@std@@@std@@QAE@I@Z 1001ead0 f i cvblobslib:blob.obj
 0001:0001dba0       ??1?$list@VCBlobContour@@V?$allocator@VCBlobContour@@@std@@@std@@QAE@XZ 1001eba0 f i cvblobslib:blob.obj
 0001:0001dc00       ??4?$list@VCBlobContour@@V?$allocator@VCBlobContour@@@std@@@std@@QAEAAV01@ABV01@@Z 1001ec00 f i cvblobslib:blob.obj
 0001:0001dc50       ?begin@?$list@VCBlobContour@@V?$allocator@VCBlobContour@@@std@@@std@@QAE?AV?$_Iterator@$00@12@XZ 1001ec50 f i cvblobslib:blob.obj
 0001:0001dc80       ?begin@?$list@VCBlobContour@@V?$allocator@VCBlobContour@@@std@@@std@@QBE?AV?$_Const_iterator@$00@12@XZ 1001ec80 f i cvblobslib:blob.obj
 0001:0001dcb0       ?end@?$list@VCBlobContour@@V?$allocator@VCBlobContour@@@std@@@std@@QAE?AV?$_Iterator@$00@12@XZ 1001ecb0 f i cvblobslib:blob.obj
 0001:0001dce0       ?end@?$list@VCBlobContour@@V?$allocator@VCBlobContour@@@std@@@std@@QBE?AV?$_Const_iterator@$00@12@XZ 1001ece0 f i cvblobslib:blob.obj
 0001:0001dd10       ?size@?$list@VCBlobContour@@V?$allocator@VCBlobContour@@@std@@@std@@QBEIXZ 1001ed10 f i cvblobslib:blob.obj
 0001:0001dd30       ?push_back@?$list@VCBlobContour@@V?$allocator@VCBlobContour@@@std@@@std@@QAEXABVCBlobContour@@@Z 1001ed30 f i cvblobslib:blob.obj
 0001:0001dd70       ?clear@?$list@VCBlobContour@@V?$allocator@VCBlobContour@@@std@@@std@@QAEXXZ 1001ed70 f i cvblobslib:blob.obj
 0001:0001de10       ??0?$_Const_iterator@$00@?$list@VCBlobContour@@V?$allocator@VCBlobContour@@@std@@@std@@QAE@XZ 1001ee10 f i cvblobslib:blob.obj
 0001:0001de30       ??D?$_Const_iterator@$00@?$list@VCBlobContour@@V?$allocator@VCBlobContour@@@std@@@std@@QBEABVCBlobContour@@XZ 1001ee30 f i cvblobslib:blob.obj
 0001:0001de90       ??E?$_Const_iterator@$00@?$list@VCBlobContour@@V?$allocator@VCBlobContour@@@std@@@std@@QAE?AV012@H@Z 1001ee90 f i cvblobslib:blob.obj
 0001:0001ded0       ??9?$_Const_iterator@$00@?$list@VCBlobContour@@V?$allocator@VCBlobContour@@@std@@@std@@QBE_NABV012@@Z 1001eed0 f i cvblobslib:blob.obj
 0001:0001df00       ??0?$_Iterator@$00@?$list@VCBlobContour@@V?$allocator@VCBlobContour@@@std@@@std@@QAE@XZ 1001ef00 f i cvblobslib:blob.obj
 0001:0001df20       ??D?$_Iterator@$00@?$list@VCBlobContour@@V?$allocator@VCBlobContour@@@std@@@std@@QBEAAVCBlobContour@@XZ 1001ef20 f i cvblobslib:blob.obj
 0001:0001df40       ??E?$_Iterator@$00@?$list@VCBlobContour@@V?$allocator@VCBlobContour@@@std@@@std@@QAE?AV012@H@Z 1001ef40 f i cvblobslib:blob.obj
 0001:0001df80       ??1?$_List_val@VCBlobContour@@V?$allocator@VCBlobContour@@@std@@@std@@QAE@XZ 1001ef80 f i cvblobslib:blob.obj
 0001:0001dfa0       ??0?$_Ranit@PAVCBlob@@HPBQAV1@ABQAV1@@std@@QAE@XZ 1001efa0 f i cvblobslib:BlobResult.obj
 0001:0001dfa0       ??0?$_Bidit@VCBlobContour@@HPBV1@ABV1@@std@@QAE@XZ 1001efa0 f i cvblobslib:blob.obj
 0001:0001dfc0       ??1?$_List_ptr@VCBlobContour@@V?$allocator@VCBlobContour@@@std@@@std@@QAE@XZ 1001efc0 f i cvblobslib:blob.obj
 0001:0001dfe0       ?_Nextnode@?$list@VCBlobContour@@V?$allocator@VCBlobContour@@@std@@@std@@KAAAPAU_Node@?$_List_nod@VCBlobContour@@V?$allocator@VCBlobContour@@@std@@@2@PAU342@@Z 1001efe0 f i cvblobslib:blob.obj
 0001:0001dff0       ?_Prevnode@?$list@VCBlobContour@@V?$allocator@VCBlobContour@@@std@@@std@@KAAAPAU_Node@?$_List_nod@VCBlobContour@@V?$allocator@VCBlobContour@@@std@@@2@PAU342@@Z 1001eff0 f i cvblobslib:blob.obj
 0001:0001e000       ?_Myval@?$list@VCBlobContour@@V?$allocator@VCBlobContour@@@std@@@std@@KAAAVCBlobContour@@PAU_Node@?$_List_nod@VCBlobContour@@V?$allocator@VCBlobContour@@@std@@@2@@Z 1001f000 f i cvblobslib:blob.obj
 0001:0001e010       ?_Construct_n@?$list@VCBlobContour@@V?$allocator@VCBlobContour@@@std@@@std@@QAEXIABVCBlobContour@@@Z 1001f010 f i cvblobslib:blob.obj
 0001:0001e0c0       ?_Insert@?$list@VCBlobContour@@V?$allocator@VCBlobContour@@@std@@@std@@QAEXV?$_Const_iterator@$00@12@ABVCBlobContour@@@Z 1001f0c0 f i cvblobslib:blob.obj
 0001:0001e140       ?_Buynode@?$list@VCBlobContour@@V?$allocator@VCBlobContour@@@std@@@std@@IAEPAU_Node@?$_List_nod@VCBlobContour@@V?$allocator@VCBlobContour@@@std@@@2@XZ 1001f140 f i cvblobslib:blob.obj
 0001:0001e240       ?_Tidy@?$list@VCBlobContour@@V?$allocator@VCBlobContour@@@std@@@std@@IAEXXZ 1001f240 f i cvblobslib:blob.obj
 0001:0001e2b0       ??0?$_List_val@VCBlobContour@@V?$allocator@VCBlobContour@@@std@@@std@@QAE@V?$allocator@VCBlobContour@@@1@@Z 1001f2b0 f i cvblobslib:blob.obj
 0001:0001e2f0       ?deallocate@?$allocator@U_Node@?$_List_nod@VCBlobContour@@V?$allocator@VCBlobContour@@@std@@@std@@@std@@QAEXPAU_Node@?$_List_nod@VCBlobContour@@V?$allocator@VCBlobContour@@@std@@@2@I@Z 1001f2f0 f i cvblobslib:blob.obj
 0001:0001e2f0       ?deallocate@?$allocator@PAVCBlob@@@std@@QAEXPAPAVCBlob@@I@Z 1001f2f0 f i cvblobslib:BlobResult.obj
 0001:0001e310       ?destroy@?$allocator@U_Node@?$_List_nod@VCBlobContour@@V?$allocator@VCBlobContour@@@std@@@std@@@std@@QAEXPAU_Node@?$_List_nod@VCBlobContour@@V?$allocator@VCBlobContour@@@std@@@2@@Z 1001f310 f i cvblobslib:blob.obj
 0001:0001e330       ??0?$_Const_iterator@$00@?$list@VCBlobContour@@V?$allocator@VCBlobContour@@@std@@@std@@QAE@PAU_Node@?$_List_nod@VCBlobContour@@V?$allocator@VCBlobContour@@@std@@@2@PBV12@@Z 1001f330 f i cvblobslib:blob.obj
 0001:0001e380       ??E?$_Const_iterator@$00@?$list@VCBlobContour@@V?$allocator@VCBlobContour@@@std@@@std@@QAEAAV012@XZ 1001f380 f i cvblobslib:blob.obj
 0001:0001e3f0       ??8?$_Const_iterator@$00@?$list@VCBlobContour@@V?$allocator@VCBlobContour@@@std@@@std@@QBE_NABV012@@Z 1001f3f0 f i cvblobslib:blob.obj
 0001:0001e450       ??0?$_Iterator@$00@?$list@VCBlobContour@@V?$allocator@VCBlobContour@@@std@@@std@@QAE@PAU_Node@?$_List_nod@VCBlobContour@@V?$allocator@VCBlobContour@@@std@@@2@PBV12@@Z 1001f450 f i cvblobslib:blob.obj
 0001:0001e470       ??E?$_Iterator@$00@?$list@VCBlobContour@@V?$allocator@VCBlobContour@@@std@@@std@@QAEAAV012@XZ 1001f470 f i cvblobslib:blob.obj
 0001:0001e490       ?_Buynode@?$list@VCBlobContour@@V?$allocator@VCBlobContour@@@std@@@std@@IAEPAU_Node@?$_List_nod@VCBlobContour@@V?$allocator@VCBlobContour@@@std@@@2@PAU342@0ABVCBlobContour@@@Z 1001f490 f i cvblobslib:blob.obj
 0001:0001e5e0       ?_Insert_n@?$list@VCBlobContour@@V?$allocator@VCBlobContour@@@std@@@std@@IAEXV?$_Const_iterator@$00@12@IABVCBlobContour@@@Z 1001f5e0 f i cvblobslib:blob.obj
 0001:0001e6c0       ?_Incsize@?$list@VCBlobContour@@V?$allocator@VCBlobContour@@@std@@@std@@IAEXI@Z 1001f6c0 f i cvblobslib:blob.obj
 0001:0001e760       ??0?$_List_ptr@VCBlobContour@@V?$allocator@VCBlobContour@@@std@@@std@@IAE@V?$allocator@VCBlobContour@@@1@@Z 1001f760 f i cvblobslib:blob.obj
 0001:0001e7a0       ?allocate@?$allocator@U_Node@?$_List_nod@VCBlobContour@@V?$allocator@VCBlobContour@@@std@@@std@@@std@@QAEPAU_Node@?$_List_nod@VCBlobContour@@V?$allocator@VCBlobContour@@@std@@@2@I@Z 1001f7a0 f i cvblobslib:blob.obj
 0001:0001e7c0       ?construct@?$allocator@PAU_Node@?$_List_nod@VCBlobContour@@V?$allocator@VCBlobContour@@@std@@@std@@@std@@QAEXPAPAU_Node@?$_List_nod@VCBlobContour@@V?$allocator@VCBlobContour@@@std@@@2@ABQAU342@@Z 1001f7c0 f i cvblobslib:blob.obj
 0001:0001e7e0       ?destroy@?$allocator@PAU_Node@?$_List_nod@VCBlobContour@@V?$allocator@VCBlobContour@@@std@@@std@@@std@@QAEXPAPAU_Node@?$_List_nod@VCBlobContour@@V?$allocator@VCBlobContour@@@std@@@2@@Z 1001f7e0 f i cvblobslib:blob.obj
 0001:0001e800       ?_Mynode@?$_Const_iterator@$00@?$list@VCBlobContour@@V?$allocator@VCBlobContour@@@std@@@std@@QBEPAU_Node@?$_List_nod@VCBlobContour@@V?$allocator@VCBlobContour@@@std@@@3@XZ 1001f800 f i cvblobslib:blob.obj
 0001:0001e800       ?_Checked_iterator_base@?$_Vector_iterator@NV?$allocator@N@std@@@std@@QBEPANXZ 1001f800 f i cvblobslib:BlobResult.obj
 0001:0001e800       ?_Checked_iterator_base@?$_Vector_const_iterator@NV?$allocator@N@std@@@std@@QBEPBNXZ 1001f800 f i cvblobslib:BlobResult.obj
 0001:0001e820       ?max_size@?$list@VCBlobContour@@V?$allocator@VCBlobContour@@@std@@@std@@QBEIXZ 1001f820 f i cvblobslib:blob.obj
 0001:0001e840       ?erase@?$list@VCBlobContour@@V?$allocator@VCBlobContour@@@std@@@std@@QAE?AV?$_Iterator@$00@12@V?$_Const_iterator@$00@12@@Z 1001f840 f i cvblobslib:blob.obj
 0001:0001e910       ?construct@?$allocator@VCBlobContour@@@std@@QAEXPAVCBlobContour@@ABV3@@Z 1001f910 f i cvblobslib:blob.obj
 0001:0001e930       ??F?$_Const_iterator@$00@?$list@VCBlobContour@@V?$allocator@VCBlobContour@@@std@@@std@@QAEAAV012@XZ 1001f930 f i cvblobslib:blob.obj
 0001:0001e9a0       ?_Make_iter@?$list@VCBlobContour@@V?$allocator@VCBlobContour@@@std@@@std@@QBE?AV?$_Iterator@$00@12@V?$_Const_iterator@$00@12@@Z 1001f9a0 f i cvblobslib:blob.obj
 0001:0001e9c0       ?max_size@?$allocator@VCBlobContour@@@std@@QBEIXZ 1001f9c0 f i cvblobslib:blob.obj
 0001:0001e9f0       ??$assign@V?$_Const_iterator@$00@?$list@VCBlobContour@@V?$allocator@VCBlobContour@@@std@@@std@@@?$list@VCBlobContour@@V?$allocator@VCBlobContour@@@std@@@std@@QAEXV?$_Const_iterator@$00@01@0@Z 1001f9f0 f i cvblobslib:blob.obj
 0001:0001ea30       ??$_Destroy@U_Node@?$_List_nod@VCBlobContour@@V?$allocator@VCBlobContour@@@std@@@std@@@std@@YAXPAU_Node@?$_List_nod@VCBlobContour@@V?$allocator@VCBlobContour@@@std@@@0@@Z 1001fa30 f i cvblobslib:blob.obj
 0001:0001ea40       ??$_Allocate@U_Node@?$_List_nod@VCBlobContour@@V?$allocator@VCBlobContour@@@std@@@std@@@std@@YAPAU_Node@?$_List_nod@VCBlobContour@@V?$allocator@VCBlobContour@@@std@@@0@IPAU120@@Z 1001fa40 f i cvblobslib:blob.obj
 0001:0001eaa0       ??$_Construct@PAU_Node@?$_List_nod@VCBlobContour@@V?$allocator@VCBlobContour@@@std@@@std@@PAU123@@std@@YAXPAPAU_Node@?$_List_nod@VCBlobContour@@V?$allocator@VCBlobContour@@@std@@@0@ABQAU120@@Z 1001faa0 f i cvblobslib:blob.obj
 0001:0001eae0       ??$_Construct@VCBlobContour@@V1@@std@@YAXPAVCBlobContour@@ABV1@@Z 1001fae0 f i cvblobslib:blob.obj
 0001:0001eb30       ??_G_Node@?$_List_nod@VCBlobContour@@V?$allocator@VCBlobContour@@@std@@@std@@QAEPAXI@Z 1001fb30 f i cvblobslib:blob.obj
 0001:0001eb60       ??1_Node@?$_List_nod@VCBlobContour@@V?$allocator@VCBlobContour@@@std@@@std@@QAE@XZ 1001fb60 f i cvblobslib:blob.obj
 0001:0001eb80       ??$_Iter_cat@PAPAVCBlob@@@std@@YA?AUrandom_access_iterator_tag@0@ABQAPAVCBlob@@@Z 1001fb80 f i cvblobslib:BlobResult.obj
 0001:0001eb80       ??$_Iter_random@PAPAVCBlob@@PAPAV1@@std@@YA?AUrandom_access_iterator_tag@0@ABQAPAVCBlob@@0@Z 1001fb80 f i cvblobslib:BlobResult.obj
 0001:0001eb80       ??$_Iter_cat@V?$_Const_iterator@$00@?$list@VCBlobContour@@V?$allocator@VCBlobContour@@@std@@@std@@@std@@YA?AUbidirectional_iterator_tag@0@ABV?$_Const_iterator@$00@?$list@VCBlobContour@@V?$allocator@VCBlobContour@@@std@@@0@@Z 1001fb80 f i cvblobslib:blob.obj
 0001:0001eb90       ??$_Assign@V?$_Const_iterator@$00@?$list@VCBlobContour@@V?$allocator@VCBlobContour@@@std@@@std@@@?$list@VCBlobContour@@V?$allocator@VCBlobContour@@@std@@@std@@QAEXV?$_Const_iterator@$00@01@0Uinput_iterator_tag@1@@Z 1001fb90 f i cvblobslib:blob.obj
 0001:0001ebe0       ??$insert@V?$_Const_iterator@$00@?$list@VCBlobContour@@V?$allocator@VCBlobContour@@@std@@@std@@@?$list@VCBlobContour@@V?$allocator@VCBlobContour@@@std@@@std@@QAEXV?$_Const_iterator@$00@01@00@Z 1001fbe0 f i cvblobslib:blob.obj
 0001:0001ec30       ??$_Insert@V?$_Const_iterator@$00@?$list@VCBlobContour@@V?$allocator@VCBlobContour@@@std@@@std@@@?$list@VCBlobContour@@V?$allocator@VCBlobContour@@@std@@@std@@QAEXV?$_Const_iterator@$00@01@00Uforward_iterator_tag@1@@Z 1001fc30 f i cvblobslib:blob.obj
 0001:0001ed30       ??0CBlobResult@@QAE@XZ     1001fd30 f   cvblobslib:BlobResult.obj
 0001:0001edc0       ??0CBlobResult@@QAE@PAU_IplImage@@0E@Z 1001fdc0 f   cvblobslib:BlobResult.obj
 0001:0001ee90       ??0CBlobResult@@QAE@ABV0@@Z 1001fe90 f   cvblobslib:BlobResult.obj
 0001:0001f020       ??1CBlobResult@@UAE@XZ     10020020 f   cvblobslib:BlobResult.obj
 0001:0001f080       ??4CBlobResult@@QAEAAV0@ABV0@@Z 10020080 f   cvblobslib:BlobResult.obj
 0001:0001f220       ??HCBlobResult@@QBE?AV0@ABV0@@Z 10020220 f   cvblobslib:BlobResult.obj
 0001:0001f370       ?AddBlob@CBlobResult@@QAEXPAVCBlob@@@Z 10020370 f   cvblobslib:BlobResult.obj
 0001:0001f410       ?GetSTLResult@CBlobResult@@QBE?AV?$vector@NV?$allocator@N@std@@@std@@PAVCOperadorBlob@@@Z 10020410 f   cvblobslib:BlobResult.obj
 0001:0001f540       ?GetNumber@CBlobResult@@QBENHPAVCOperadorBlob@@@Z 10020540 f   cvblobslib:BlobResult.obj
 0001:0001f590       ?Filter@CBlobResult@@QBEXAAV1@HPAVCOperadorBlob@@HNN@Z 10020590 f   cvblobslib:BlobResult.obj
 0001:0001f5d0       ?Filter@CBlobResult@@QAEXAAV1@HPAVCOperadorBlob@@HNN@Z 100205d0 f   cvblobslib:BlobResult.obj
 0001:0001f6d0       ?DoFilter@CBlobResult@@ABEXAAV1@HPAVCOperadorBlob@@HNN@Z 100206d0 f   cvblobslib:BlobResult.obj
 0001:00020010       ?GetBlob@CBlobResult@@QBE?AVCBlob@@H@Z 10021010 f   cvblobslib:BlobResult.obj
 0001:00020070       ?GetBlob@CBlobResult@@QAEPAVCBlob@@H@Z 10021070 f   cvblobslib:BlobResult.obj
 0001:000200b0       ?GetNthBlob@CBlobResult@@QBEXPAVCOperadorBlob@@HAAVCBlob@@@Z 100210b0 f   cvblobslib:BlobResult.obj
 0001:00020370       ?ClearBlobs@CBlobResult@@QAEXXZ 10021370 f   cvblobslib:BlobResult.obj
 0001:00020400       ?RaiseError@CBlobResult@@ABEXH@Z 10021400 f   cvblobslib:BlobResult.obj
 0001:000204f0       ?PrintBlobs@CBlobResult@@QBEXPAD@Z 100214f0 f   cvblobslib:BlobResult.obj
 0001:00020a80       ??_ECBlobResult@@UAEPAXI@Z 10021a80 f i cvblobslib:BlobResult.obj
 0001:00020a80       ??_GCBlobResult@@UAEPAXI@Z 10021a80 f i cvblobslib:BlobResult.obj
 0001:00020ab0       ??_GCBlob@@QAEPAXI@Z       10021ab0 f i cvblobslib:BlobResult.obj
 0001:00020ae0       ??BCOperadorBlob@@QAEPAV0@XZ 10021ae0 f i cvblobslib:BlobResult.obj
 0001:00020ae0       ??0?$allocator@VCBlobContour@@@std@@QAE@XZ 10021ae0 f i cvblobslib:blob.obj
 0001:00020ae0       ??0?$allocator@PAVCBlob@@@std@@QAE@XZ 10021ae0 f i cvblobslib:BlobResult.obj
 0001:00020af0       ??0CBlobGetExterior@@QAE@XZ 10021af0 f i cvblobslib:BlobResult.obj
 0001:00020b30       ??RCBlobGetExterior@@UAENAAVCBlob@@@Z 10021b30 f i cvblobslib:BlobResult.obj
 0001:00020b70       ?GetNom@CBlobGetExterior@@UAEPBDXZ 10021b70 f i cvblobslib:BlobResult.obj
 0001:00020b80       ??0COperadorBlob@@QAE@XZ   10021b80 f i cvblobslib:BlobResult.obj
 0001:00020ba0       ??_GCOperadorBlob@@UAEPAXI@Z 10021ba0 f i cvblobslib:BlobResult.obj
 0001:00020ba0       ??_ECOperadorBlob@@UAEPAXI@Z 10021ba0 f i cvblobslib:BlobResult.obj
 0001:00020bd0       ??1COperadorBlob@@UAE@XZ   10021bd0 f i cvblobslib:BlobResult.obj
 0001:00020bf0       ??0CBlobGetExternPerimeter@@QAE@XZ 10021bf0 f i cvblobslib:BlobResult.obj
 0001:00020c30       ??RCBlobGetExternPerimeter@@UAENAAVCBlob@@@Z 10021c30 f i cvblobslib:BlobResult.obj
 0001:00020c60       ?GetNom@CBlobGetExternPerimeter@@UAEPBDXZ 10021c60 f i cvblobslib:BlobResult.obj
 0001:00020c70       ??_GCBlobGetLength@@UAEPAXI@Z 10021c70 f i cvblobslib:BlobResult.obj
 0001:00020c70       ??_GCBlobGetXCenter@@UAEPAXI@Z 10021c70 f i cvblobslib:BlobOperators.obj
 0001:00020c70       ??_ECBlobGetHullPerimeter@@UAEPAXI@Z 10021c70 f i cvblobslib:BlobResult.obj
 0001:00020c70       ??_ECBlobGetArea@@UAEPAXI@Z 10021c70 f i cvblobslib:BlobResult.obj
 0001:00020c70       ??_GCBlobGetExternPerimeter@@UAEPAXI@Z 10021c70 f i cvblobslib:BlobResult.obj
 0001:00020c70       ??_GCBlobGetHullPerimeter@@UAEPAXI@Z 10021c70 f i cvblobslib:BlobResult.obj
 0001:00020c70       ??_GCBlobGetPerimeter@@UAEPAXI@Z 10021c70 f i cvblobslib:BlobResult.obj
 0001:00020c70       ??_GCBlobGetYCenter@@UAEPAXI@Z 10021c70 f i cvblobslib:BlobOperators.obj
 0001:00020c70       ??_ECBlobGetExterior@@UAEPAXI@Z 10021c70 f i cvblobslib:BlobResult.obj
 0001:00020c70       ??_ECBlobGetXCenter@@UAEPAXI@Z 10021c70 f i cvblobslib:BlobOperators.obj
 0001:00020c70       ??_ECBlobGetCompactness@@UAEPAXI@Z 10021c70 f i cvblobslib:BlobResult.obj
 0001:00020c70       ??_ECBlobGetExternPerimeter@@UAEPAXI@Z 10021c70 f i cvblobslib:BlobResult.obj
 0001:00020c70       ??_ECBlobGetYCenter@@UAEPAXI@Z 10021c70 f i cvblobslib:BlobOperators.obj
 0001:00020c70       ??_ECBlobGetLength@@UAEPAXI@Z 10021c70 f i cvblobslib:BlobResult.obj
 0001:00020c70       ??_ECBlobGetPerimeter@@UAEPAXI@Z 10021c70 f i cvblobslib:BlobResult.obj
 0001:00020c70       ??_GCBlobGetCompactness@@UAEPAXI@Z 10021c70 f i cvblobslib:BlobResult.obj
 0001:00020c70       ??_GCBlobGetArea@@UAEPAXI@Z 10021c70 f i cvblobslib:BlobResult.obj
 0001:00020c70       ??_GCBlobGetExterior@@UAEPAXI@Z 10021c70 f i cvblobslib:BlobResult.obj
 0001:00020ca0       ??0CBlobGetHullPerimeter@@QAE@XZ 10021ca0 f i cvblobslib:BlobResult.obj
 0001:00020cc0       ?GetNom@CBlobGetHullPerimeter@@UAEPBDXZ 10021cc0 f i cvblobslib:BlobResult.obj
 0001:00020cd0       ??1CBlobGetHullPerimeter@@UAE@XZ 10021cd0 f i cvblobslib:BlobResult.obj
 0001:00020cd0       ??1CBlobGetExternPerimeter@@UAE@XZ 10021cd0 f i cvblobslib:BlobResult.obj
 0001:00020cd0       ??1CBlobGetArea@@UAE@XZ    10021cd0 f i cvblobslib:BlobResult.obj
 0001:00020cd0       ??1CBlobGetCompactness@@UAE@XZ 10021cd0 f i cvblobslib:BlobResult.obj
 0001:00020cd0       ??1CBlobGetYCenter@@UAE@XZ 10021cd0 f i cvblobslib:BlobOperators.obj
 0001:00020cd0       ??1CBlobGetXCenter@@UAE@XZ 10021cd0 f i cvblobslib:BlobOperators.obj
 0001:00020cd0       ??1CBlobGetPerimeter@@UAE@XZ 10021cd0 f i cvblobslib:BlobResult.obj
 0001:00020cd0       ??1CBlobGetExterior@@UAE@XZ 10021cd0 f i cvblobslib:BlobResult.obj
 0001:00020cd0       ??1CBlobGetLength@@UAE@XZ  10021cd0 f i cvblobslib:BlobResult.obj
 0001:00020cf0       ??0CBlobGetArea@@QAE@XZ    10021cf0 f i cvblobslib:BlobResult.obj
 0001:00020d10       ??RCBlobGetArea@@UAENAAVCBlob@@@Z 10021d10 f i cvblobslib:BlobResult.obj
 0001:00020d30       ?GetNom@CBlobGetArea@@UAEPBDXZ 10021d30 f i cvblobslib:BlobResult.obj
 0001:00020d40       ??0CBlobGetPerimeter@@QAE@XZ 10021d40 f i cvblobslib:BlobResult.obj
 0001:00020d60       ??RCBlobGetPerimeter@@UAENAAVCBlob@@@Z 10021d60 f i cvblobslib:BlobResult.obj
 0001:00020d80       ?GetNom@CBlobGetPerimeter@@UAEPBDXZ 10021d80 f i cvblobslib:BlobResult.obj
 0001:00020d90       ??0CBlobGetCompactness@@QAE@XZ 10021d90 f i cvblobslib:BlobResult.obj
 0001:00020db0       ?GetNom@CBlobGetCompactness@@UAEPBDXZ 10021db0 f i cvblobslib:BlobResult.obj
 0001:00020dc0       ??0CBlobGetLength@@QAE@XZ  10021dc0 f i cvblobslib:BlobResult.obj
 0001:00020de0       ?GetNom@CBlobGetLength@@UAEPBDXZ 10021de0 f i cvblobslib:BlobResult.obj
 0001:00020df0       ??0?$vector@PAVCBlob@@V?$allocator@PAVCBlob@@@std@@@std@@QAE@XZ 10021df0 f i cvblobslib:BlobResult.obj
 0001:00020e60       ??0?$vector@PAVCBlob@@V?$allocator@PAVCBlob@@@std@@@std@@QAE@I@Z 10021e60 f i cvblobslib:BlobResult.obj
 0001:00020ee0       ??1?$vector@PAVCBlob@@V?$allocator@PAVCBlob@@@std@@@std@@QAE@XZ 10021ee0 f i cvblobslib:BlobResult.obj
 0001:00020f40       ??4?$vector@PAVCBlob@@V?$allocator@PAVCBlob@@@std@@@std@@QAEAAV01@ABV01@@Z 10021f40 f i cvblobslib:BlobResult.obj
 0001:000210c0       ?begin@?$vector@PAVCBlob@@V?$allocator@PAVCBlob@@@std@@@std@@QAE?AV?$_Vector_iterator@PAVCBlob@@V?$allocator@PAVCBlob@@@std@@@2@XZ 100220c0 f i cvblobslib:BlobResult.obj
 0001:000210f0       ?begin@?$vector@PAVCBlob@@V?$allocator@PAVCBlob@@@std@@@std@@QBE?AV?$_Vector_const_iterator@PAVCBlob@@V?$allocator@PAVCBlob@@@std@@@2@XZ 100220f0 f i cvblobslib:BlobResult.obj
 0001:00021120       ?end@?$vector@PAVCBlob@@V?$allocator@PAVCBlob@@@std@@@std@@QAE?AV?$_Vector_iterator@PAVCBlob@@V?$allocator@PAVCBlob@@@std@@@2@XZ 10022120 f i cvblobslib:BlobResult.obj
 0001:00021150       ?end@?$vector@PAVCBlob@@V?$allocator@PAVCBlob@@@std@@@std@@QBE?AV?$_Vector_const_iterator@PAVCBlob@@V?$allocator@PAVCBlob@@@std@@@2@XZ 10022150 f i cvblobslib:BlobResult.obj
 0001:00021180       ?resize@?$vector@PAVCBlob@@V?$allocator@PAVCBlob@@@std@@@std@@QAEXI@Z 10022180 f i cvblobslib:BlobResult.obj
 0001:000211a0       ??A?$vector@PAVCBlob@@V?$allocator@PAVCBlob@@@std@@@std@@QAEAAPAVCBlob@@I@Z 100221a0 f i cvblobslib:BlobResult.obj
 0001:000211a0       ??A?$vector@PAVCBlob@@V?$allocator@PAVCBlob@@@std@@@std@@QBEABQAVCBlob@@I@Z 100221a0 f i cvblobslib:BlobResult.obj
 0001:000211d0       ?push_back@?$vector@PAVCBlob@@V?$allocator@PAVCBlob@@@std@@@std@@QAEXABQAVCBlob@@@Z 100221d0 f i cvblobslib:BlobResult.obj
 0001:00021250       ?erase@?$vector@PAVCBlob@@V?$allocator@PAVCBlob@@@std@@@std@@QAE?AV?$_Vector_iterator@PAVCBlob@@V?$allocator@PAVCBlob@@@std@@@2@V?$_Vector_const_iterator@PAVCBlob@@V?$allocator@PAVCBlob@@@std@@@2@0@Z 10022250 f i cvblobslib:BlobResult.obj
 0001:000212f0       ?clear@?$vector@PAVCBlob@@V?$allocator@PAVCBlob@@@std@@@std@@QAEXXZ 100222f0 f i cvblobslib:BlobResult.obj
 0001:00021350       ??E?$_Vector_const_iterator@PAVCBlob@@V?$allocator@PAVCBlob@@@std@@@std@@QAE?AV01@H@Z 10022350 f i cvblobslib:BlobResult.obj
 0001:00021390       ??E?$_Vector_iterator@PAVCBlob@@V?$allocator@PAVCBlob@@@std@@@std@@QAE?AV01@H@Z 10022390 f i cvblobslib:BlobResult.obj
 0001:000213d0       ??F?$_Vector_iterator@PAVCBlob@@V?$allocator@PAVCBlob@@@std@@@std@@QAE?AV01@H@Z 100223d0 f i cvblobslib:BlobResult.obj
 0001:00021410       ??0?$vector@NV?$allocator@N@std@@@std@@QAE@I@Z 10022410 f i cvblobslib:BlobResult.obj
 0001:00021490       ??0?$vector@NV?$allocator@N@std@@@std@@QAE@ABV01@@Z 10022490 f i cvblobslib:BlobResult.obj
 0001:00021590       ??4?$vector@NV?$allocator@N@std@@@std@@QAEAAV01@ABV01@@Z 10022590 f i cvblobslib:BlobResult.obj
 0001:00021710       ??0?$_Vector_iterator@NV?$allocator@N@std@@@std@@QAE@XZ 10022710 f i cvblobslib:BlobResult.obj
 0001:00021730       ??D?$_Vector_iterator@PAVCBlob@@V?$allocator@PAVCBlob@@@std@@@std@@QBEAAPAVCBlob@@XZ 10022730 f i cvblobslib:BlobResult.obj
 0001:00021730       ??D?$_Vector_iterator@NV?$allocator@N@std@@@std@@QBEAANXZ 10022730 f i cvblobslib:BlobResult.obj
 0001:00021750       ??E?$_Vector_iterator@NV?$allocator@N@std@@@std@@QAE?AV01@H@Z 10022750 f i cvblobslib:BlobResult.obj
 0001:00021790       ??D?$_Vector_const_iterator@NV?$allocator@N@std@@@std@@QBEABNXZ 10022790 f i cvblobslib:BlobResult.obj
 0001:00021790       ??D?$_Vector_const_iterator@PAVCBlob@@V?$allocator@PAVCBlob@@@std@@@std@@QBEABQAVCBlob@@XZ 10022790 f i cvblobslib:BlobResult.obj
 0001:000217d0       ??E?$_Vector_const_iterator@NV?$allocator@N@std@@@std@@QAE?AV01@H@Z 100227d0 f i cvblobslib:BlobResult.obj
 0001:00021810       ??9?$_Vector_const_iterator@NV?$allocator@N@std@@@std@@QBE_NABV01@@Z 10022810 f i cvblobslib:BlobResult.obj
 0001:00021810       ??9?$_Vector_const_iterator@PAVCBlob@@V?$allocator@PAVCBlob@@@std@@@std@@QBE_NABV01@@Z 10022810 f i cvblobslib:BlobResult.obj
 0001:00021840       ??1?$_Vector_val@PAVCBlob@@V?$allocator@PAVCBlob@@@std@@@std@@QAE@XZ 10022840 f i cvblobslib:BlobResult.obj
 0001:00021840       ??1?$_List_nod@VCBlobContour@@V?$allocator@VCBlobContour@@@std@@@std@@QAE@XZ 10022840 f i cvblobslib:blob.obj
 0001:00021860       ?_Construct_n@?$vector@PAVCBlob@@V?$allocator@PAVCBlob@@@std@@@std@@QAEXIABQAVCBlob@@@Z 10022860 f i cvblobslib:BlobResult.obj
 0001:00021910       ?capacity@?$vector@PAVCBlob@@V?$allocator@PAVCBlob@@@std@@@std@@QBEIXZ 10022910 f i cvblobslib:BlobResult.obj
 0001:00021950       ?_Make_iter@?$vector@PAVCBlob@@V?$allocator@PAVCBlob@@@std@@@std@@QBE?AV?$_Vector_iterator@PAVCBlob@@V?$allocator@PAVCBlob@@@std@@@2@V?$_Vector_const_iterator@PAVCBlob@@V?$allocator@PAVCBlob@@@std@@@2@@Z 10022950 f i cvblobslib:BlobResult.obj
 0001:00021970       ?resize@?$vector@PAVCBlob@@V?$allocator@PAVCBlob@@@std@@@std@@QAEXIPAVCBlob@@@Z 10022970 f i cvblobslib:BlobResult.obj
 0001:00021a30       ?insert@?$vector@PAVCBlob@@V?$allocator@PAVCBlob@@@std@@@std@@QAE?AV?$_Vector_iterator@PAVCBlob@@V?$allocator@PAVCBlob@@@std@@@2@V?$_Vector_const_iterator@PAVCBlob@@V?$allocator@PAVCBlob@@@std@@@2@ABQAVCBlob@@@Z 10022a30 f i cvblobslib:BlobResult.obj
 0001:00021ab0       ?_Buy@?$vector@PAVCBlob@@V?$allocator@PAVCBlob@@@std@@@std@@IAE_NI@Z 10022ab0 f i cvblobslib:BlobResult.obj
 0001:00021b30       ?_Destroy@?$vector@PAVCBlob@@V?$allocator@PAVCBlob@@@std@@@std@@IAEXPAPAVCBlob@@0@Z 10022b30 f i cvblobslib:BlobResult.obj
 0001:00021b60       ?_Tidy@?$vector@PAVCBlob@@V?$allocator@PAVCBlob@@@std@@@std@@IAEXXZ 10022b60 f i cvblobslib:BlobResult.obj
 0001:00021bd0       ?_Ufill@?$vector@PAVCBlob@@V?$allocator@PAVCBlob@@@std@@@std@@IAEPAPAVCBlob@@PAPAV3@IABQAV3@@Z 10022bd0 f i cvblobslib:BlobResult.obj
 0001:00021c10       ??0?$_Vector_val@PAVCBlob@@V?$allocator@PAVCBlob@@@std@@@std@@IAE@V?$allocator@PAVCBlob@@@1@@Z 10022c10 f i cvblobslib:BlobResult.obj
 0001:00021c10       ??0?$_List_nod@VCBlobContour@@V?$allocator@VCBlobContour@@@std@@@std@@IAE@V?$allocator@VCBlobContour@@@1@@Z 10022c10 f i cvblobslib:blob.obj
 0001:00021c50       ??1?$_Container_base_aux_alloc_real@V?$allocator@VCBlobContour@@@std@@@std@@IAE@XZ 10022c50 f i cvblobslib:blob.obj
 0001:00021c50       ??1?$_Container_base_aux_alloc_real@V?$allocator@PAVCBlob@@@std@@@std@@IAE@XZ 10022c50 f i cvblobslib:BlobResult.obj
 0001:00021cb0       ??0?$_Vector_const_iterator@PAVCBlob@@V?$allocator@PAVCBlob@@@std@@@std@@QAE@PAPAVCBlob@@PBV_Container_base_aux@1@@Z 10022cb0 f i cvblobslib:BlobResult.obj
 0001:00021d00       ??E?$_Vector_const_iterator@PAVCBlob@@V?$allocator@PAVCBlob@@@std@@@std@@QAEAAV01@XZ 10022d00 f i cvblobslib:BlobResult.obj
 0001:00021d50       ??0?$_Vector_iterator@PAVCBlob@@V?$allocator@PAVCBlob@@@std@@@std@@QAE@PAPAVCBlob@@PBV_Container_base_aux@1@@Z 10022d50 f i cvblobslib:BlobResult.obj
 0001:00021d70       ??E?$_Vector_iterator@PAVCBlob@@V?$allocator@PAVCBlob@@@std@@@std@@QAEAAV01@XZ 10022d70 f i cvblobslib:BlobResult.obj
 0001:00021d90       ??F?$_Vector_iterator@PAVCBlob@@V?$allocator@PAVCBlob@@@std@@@std@@QAEAAV01@XZ 10022d90 f i cvblobslib:BlobResult.obj
 0001:00021db0       ?_Construct_n@?$vector@NV?$allocator@N@std@@@std@@QAEXIABN@Z 10022db0 f i cvblobslib:BlobResult.obj
 0001:00021e60       ?begin@?$vector@NV?$allocator@N@std@@@std@@QBE?AV?$_Vector_const_iterator@NV?$allocator@N@std@@@2@XZ 10022e60 f i cvblobslib:BlobResult.obj
 0001:00021e90       ?end@?$vector@NV?$allocator@N@std@@@std@@QBE?AV?$_Vector_const_iterator@NV?$allocator@N@std@@@2@XZ 10022e90 f i cvblobslib:BlobResult.obj
 0001:00021ec0       ?clear@?$vector@NV?$allocator@N@std@@@std@@QAEXXZ 10022ec0 f i cvblobslib:BlobResult.obj
 0001:00021f20       ??E?$_Vector_iterator@NV?$allocator@N@std@@@std@@QAEAAV01@XZ 10022f20 f i cvblobslib:BlobResult.obj
 0001:00021f40       ??0?$_Vector_const_iterator@NV?$allocator@N@std@@@std@@QAE@XZ 10022f40 f i cvblobslib:BlobResult.obj
 0001:00021f60       ??E?$_Vector_const_iterator@NV?$allocator@N@std@@@std@@QAEAAV01@XZ 10022f60 f i cvblobslib:BlobResult.obj
 0001:00021fb0       ??8?$_Vector_const_iterator@PAVCBlob@@V?$allocator@PAVCBlob@@@std@@@std@@QBE_NABV01@@Z 10022fb0 f i cvblobslib:BlobResult.obj
 0001:00021fb0       ??8?$_Vector_const_iterator@NV?$allocator@N@std@@@std@@QBE_NABV01@@Z 10022fb0 f i cvblobslib:BlobResult.obj
 0001:00022000       ??0?$_Iterator_with_base@Urandom_access_iterator_tag@std@@PAVCBlob@@HPBQAV3@ABQAV3@V_Iterator_base_aux@2@@std@@QAE@XZ 10023000 f i cvblobslib:BlobResult.obj
 0001:00022000       ??0?$_Iterator_with_base@Ubidirectional_iterator_tag@std@@VCBlobContour@@HPBV3@ABV3@V_Iterator_base_aux@2@@std@@QAE@XZ 10023000 f i cvblobslib:blob.obj
 0001:00022020       ?max_size@?$vector@PAVCBlob@@V?$allocator@PAVCBlob@@@std@@@std@@QBEIXZ 10023020 f i cvblobslib:BlobResult.obj
 0001:00022040       ?_Insert_n@?$vector@PAVCBlob@@V?$allocator@PAVCBlob@@@std@@@std@@IAEXV?$_Vector_const_iterator@PAVCBlob@@V?$allocator@PAVCBlob@@@std@@@2@IABQAVCBlob@@@Z 10023040 f i cvblobslib:BlobResult.obj
 0001:00022390       ?_Xlen@?$vector@PAVCBlob@@V?$allocator@PAVCBlob@@@std@@@std@@KAXXZ 10023390 f i cvblobslib:BlobResult.obj
 0001:00022410       ??0?$_Container_base_aux_alloc_real@V?$allocator@PAVCBlob@@@std@@@std@@IAE@V?$allocator@PAVCBlob@@@1@@Z 10023410 f i cvblobslib:BlobResult.obj
 0001:00022410       ??0?$_Container_base_aux_alloc_real@V?$allocator@VCBlobContour@@@std@@@std@@IAE@V?$allocator@VCBlobContour@@@1@@Z 10023410 f i cvblobslib:blob.obj
 0001:000224d0       ?allocate@?$allocator@PAVCBlob@@@std@@QAEPAPAVCBlob@@I@Z 100234d0 f i cvblobslib:BlobResult.obj
 0001:000224f0       ??F?$_Vector_const_iterator@PAVCBlob@@V?$allocator@PAVCBlob@@@std@@@std@@QAEAAV01@XZ 100234f0 f i cvblobslib:BlobResult.obj
 0001:00022540       ??G?$_Vector_const_iterator@PAVCBlob@@V?$allocator@PAVCBlob@@@std@@@std@@QBEHABV01@@Z 10023540 f i cvblobslib:BlobResult.obj
 0001:00022590       ??H?$_Vector_iterator@PAVCBlob@@V?$allocator@PAVCBlob@@@std@@@std@@QBE?AV01@H@Z 10023590 f i cvblobslib:BlobResult.obj
 0001:000225d0       ?erase@?$vector@NV?$allocator@N@std@@@std@@QAE?AV?$_Vector_iterator@NV?$allocator@N@std@@@2@V?$_Vector_const_iterator@NV?$allocator@N@std@@@2@0@Z 100235d0 f i cvblobslib:BlobResult.obj
 0001:00022670       ?max_size@?$allocator@PAVCBlob@@@std@@QBEIXZ 10023670 f i cvblobslib:BlobResult.obj
 0001:000226a0       ??Y?$_Vector_iterator@PAVCBlob@@V?$allocator@PAVCBlob@@@std@@@std@@QAEAAV01@H@Z 100236a0 f i cvblobslib:BlobResult.obj
 0001:000226c0       ?_Make_iter@?$vector@NV?$allocator@N@std@@@std@@QBE?AV?$_Vector_iterator@NV?$allocator@N@std@@@2@V?$_Vector_const_iterator@NV?$allocator@N@std@@@2@@Z 100236c0 f i cvblobslib:BlobResult.obj
 0001:000226e0       ??Y?$_Vector_const_iterator@PAVCBlob@@V?$allocator@PAVCBlob@@@std@@@std@@QAEAAV01@H@Z 100236e0 f i cvblobslib:BlobResult.obj
 0001:00022760       ??$partial_sort_copy@V?$_Vector_iterator@NV?$allocator@N@std@@@std@@V12@U?$greater@N@2@@std@@YA?AV?$_Vector_iterator@NV?$allocator@N@std@@@0@V10@000U?$greater@N@0@@Z 10023760 f i cvblobslib:BlobResult.obj
 0001:00022820       ??$unchecked_copy@PAPAVCBlob@@PAPAV1@@stdext@@YAPAPAVCBlob@@PAPAV1@00@Z 10023820 f i cvblobslib:BlobResult.obj
 0001:00022890       ??$_Ucopy@PAPAVCBlob@@@?$vector@PAVCBlob@@V?$allocator@PAVCBlob@@@std@@@std@@IAEPAPAVCBlob@@PAPAV2@00@Z 10023890 f i cvblobslib:BlobResult.obj
 0001:000228c0       ??$_Ucopy@V?$_Vector_const_iterator@NV?$allocator@N@std@@@std@@@?$vector@NV?$allocator@N@std@@@std@@IAEPANV?$_Vector_const_iterator@NV?$allocator@N@std@@@1@0PAN@Z 100238c0 f i cvblobslib:BlobResult.obj
 0001:000228f0       ??$unchecked_copy@PANPAN@stdext@@YAPANPAN00@Z 100238f0 f i cvblobslib:BlobResult.obj
 0001:00022960       ??$_Ucopy@PAN@?$vector@NV?$allocator@N@std@@@std@@IAEPANPAN00@Z 10023960 f i cvblobslib:BlobResult.obj
 0001:00022990       ??$_Destroy_range@V?$allocator@PAVCBlob@@@std@@@std@@YAXPAPAVCBlob@@0AAV?$allocator@PAVCBlob@@@0@@Z 10023990 f i cvblobslib:BlobResult.obj
 0001:000229d0       ??$unchecked_uninitialized_fill_n@PAPAVCBlob@@IPAV1@V?$allocator@PAVCBlob@@@std@@@stdext@@YAXPAPAVCBlob@@IABQAV1@AAV?$allocator@PAVCBlob@@@std@@@Z 100239d0 f i cvblobslib:BlobResult.obj
 0001:00022a20       ??$_Umove@PAPAVCBlob@@@?$vector@PAVCBlob@@V?$allocator@PAVCBlob@@@std@@@std@@IAEPAPAVCBlob@@PAPAV2@00@Z 10023a20 f i cvblobslib:BlobResult.obj
 0001:00022a50       ??$fill@PAPAVCBlob@@PAV1@@std@@YAXPAPAVCBlob@@0ABQAV1@@Z 10023a50 f i cvblobslib:BlobResult.obj
 0001:00022a80       ??$_Unchecked_move_backward@PAPAVCBlob@@PAPAV1@@stdext@@YAPAPAVCBlob@@PAPAV1@00@Z 10023a80 f i cvblobslib:BlobResult.obj
 0001:00022af0       ??$?0VCBlobContour@@@?$allocator@U_Node@?$_List_nod@VCBlobContour@@V?$allocator@VCBlobContour@@@std@@@std@@@std@@QAE@ABV?$allocator@VCBlobContour@@@1@@Z 10023af0 f i cvblobslib:blob.obj
 0001:00022af0       ??$?0PAVCBlob@@@?$allocator@V_Aux_cont@std@@@std@@QAE@ABV?$allocator@PAVCBlob@@@1@@Z 10023af0 f i cvblobslib:BlobResult.obj
 0001:00022af0       ??$?0VCBlobContour@@@?$allocator@PAU_Node@?$_List_nod@VCBlobContour@@V?$allocator@VCBlobContour@@@std@@@std@@@std@@QAE@ABV?$allocator@VCBlobContour@@@1@@Z 10023af0 f i cvblobslib:blob.obj
 0001:00022af0       ??$?0VCBlobContour@@@?$allocator@V_Aux_cont@std@@@std@@QAE@ABV?$allocator@VCBlobContour@@@1@@Z 10023af0 f i cvblobslib:blob.obj
 0001:00022af0       ??0?$allocator@VCBlobContour@@@std@@QAE@ABV01@@Z 10023af0 f i cvblobslib:blob.obj
 0001:00022af0       ??0?$allocator@PAVCBlob@@@std@@QAE@ABV01@@Z 10023af0 f i cvblobslib:BlobResult.obj
 0001:00022b00       ??$_Allocate@PAVCBlob@@@std@@YAPAPAVCBlob@@IPAPAV1@@Z 10023b00 f i cvblobslib:BlobResult.obj
 0001:00022b50       ??$_Val_type@V?$_Vector_iterator@NV?$allocator@N@std@@@std@@@std@@YAPANV?$_Vector_iterator@NV?$allocator@N@std@@@0@@Z 10023b50 f i cvblobslib:BlobResult.obj
 0001:00022b50       ??$_Dist_type@V?$_Vector_iterator@NV?$allocator@N@std@@@std@@@std@@YAPAHV?$_Vector_iterator@NV?$allocator@N@std@@@0@@Z 10023b50 f i cvblobslib:BlobResult.obj
 0001:00022b50       ??$_Dist_type@PAN@std@@YAPAHPAN@Z 10023b50 f i cvblobslib:BlobResult.obj
 0001:00022b50       ??$_Val_type@PAN@std@@YAPANPAN@Z 10023b50 f i cvblobslib:BlobResult.obj
 0001:00022b60       ??$_Partial_sort_copy@PANPANHNU?$greater@N@std@@@std@@YAPANPAN000U?$greater@N@0@PAH0@Z 10023b60 f i cvblobslib:BlobResult.obj
 0001:00022c20       ??$_Checked_assign_from_base@V?$_Vector_iterator@NV?$allocator@N@std@@@std@@PAN@std@@YAXAAV?$_Vector_iterator@NV?$allocator@N@std@@@0@ABQAN@Z 10023c20 f i cvblobslib:BlobResult.obj
 0001:00022c40       ??$_Checked_base@PAPAVCBlob@@@std@@YAPAPAVCBlob@@AAPAPAV1@@Z 10023c40 f i cvblobslib:BlobResult.obj
 0001:00022c60       ??$_Copy_opt@PAPAVCBlob@@PAPAV1@Urandom_access_iterator_tag@std@@@std@@YAPAPAVCBlob@@PAPAV1@00Urandom_access_iterator_tag@0@U_Scalar_ptr_iterator_tag@0@U_Range_checked_iterator_tag@0@@Z 10023c60 f i cvblobslib:BlobResult.obj
 0001:00022cb0       ??$unchecked_uninitialized_copy@PAPAVCBlob@@PAPAV1@V?$allocator@PAVCBlob@@@std@@@stdext@@YAPAPAVCBlob@@PAPAV1@00AAV?$allocator@PAVCBlob@@@std@@@Z 10023cb0 f i cvblobslib:BlobResult.obj
 0001:00022d10       ??$unchecked_uninitialized_copy@V?$_Vector_const_iterator@NV?$allocator@N@std@@@std@@PANV?$allocator@N@2@@stdext@@YAPANV?$_Vector_const_iterator@NV?$allocator@N@std@@@std@@0PANAAV?$allocator@N@2@@Z 10023d10 f i cvblobslib:BlobResult.obj
 0001:00022d70       ??$_Copy_opt@PANPANUrandom_access_iterator_tag@std@@@std@@YAPANPAN00Urandom_access_iterator_tag@0@U_Scalar_ptr_iterator_tag@0@U_Range_checked_iterator_tag@0@@Z 10023d70 f i cvblobslib:BlobResult.obj
 0001:00022dc0       ??$_Destroy@PAU_Node@?$_List_nod@VCBlobContour@@V?$allocator@VCBlobContour@@@std@@@std@@@std@@YAXPAPAU_Node@?$_List_nod@VCBlobContour@@V?$allocator@VCBlobContour@@@std@@@0@@Z 10023dc0 f i cvblobslib:blob.obj
 0001:00022dc0       ??$_Destroy_range@V?$allocator@PAVCBlob@@@std@@@std@@YAXPAPAVCBlob@@0AAV?$allocator@PAVCBlob@@@0@U_Scalar_ptr_iterator_tag@0@@Z 10023dc0 f i cvblobslib:BlobResult.obj
 0001:00022dd0       ??$_Uninit_fill_n@PAPAVCBlob@@IPAV1@V?$allocator@PAVCBlob@@@std@@@std@@YAXPAPAVCBlob@@IABQAV1@AAV?$allocator@PAVCBlob@@@0@U_Scalar_ptr_iterator_tag@0@U_Range_checked_iterator_tag@0@@Z 10023dd0 f i cvblobslib:BlobResult.obj
 0001:00022df0       ??$_Unchecked_uninitialized_move@PAPAVCBlob@@PAPAV1@V?$allocator@PAVCBlob@@@std@@@stdext@@YAPAPAVCBlob@@PAPAV1@00AAV?$allocator@PAVCBlob@@@std@@@Z 10023df0 f i cvblobslib:BlobResult.obj
 0001:00022e40       ??$_Fill@PAPAVCBlob@@PAV1@@std@@YAXPAPAVCBlob@@0ABQAV1@@Z 10023e40 f i cvblobslib:BlobResult.obj
 0001:00022e70       ??$_Move_backward_opt@PAPAVCBlob@@PAPAV1@Urandom_access_iterator_tag@std@@U_Undefined_move_tag@3@@std@@YAPAPAVCBlob@@PAPAV1@00Urandom_access_iterator_tag@0@U_Undefined_move_tag@0@U_Range_checked_iterator_tag@0@@Z 10023e70 f i cvblobslib:BlobResult.obj
 0001:00022ec0       ?_Checked_iterator_assign_from_base@?$_Vector_iterator@NV?$allocator@N@std@@@std@@QAEXPAN@Z 10023ec0 f i cvblobslib:BlobResult.obj
 0001:00022ee0       ??R?$greater@N@std@@QBE_NABN0@Z 10023ee0 f i cvblobslib:BlobResult.obj
 0001:00022f20       ??$_Checked_base@V?$_Vector_const_iterator@NV?$allocator@N@std@@@std@@U_Different_checked_iterator_base_type_tag@2@@std@@YAPBNAAV?$_Vector_const_iterator@NV?$allocator@N@std@@@0@U_Different_checked_iterator_base_type_tag@0@@Z 10023f20 f i cvblobslib:BlobResult.obj
 0001:00022f20       ??$_Checked_base@V?$_Vector_iterator@NV?$allocator@N@std@@@std@@U_Different_checked_iterator_base_type_tag@2@@std@@YAPANAAV?$_Vector_iterator@NV?$allocator@N@std@@@0@U_Different_checked_iterator_base_type_tag@0@@Z 10023f20 f i cvblobslib:BlobResult.obj
 0001:00022f30       ??$make_heap@PANU?$greater@N@std@@@std@@YAXPAN0U?$greater@N@0@@Z 10023f30 f i cvblobslib:BlobResult.obj
 0001:00022f90       ??$_Adjust_heap@PANHNU?$greater@N@std@@@std@@YAXPANHHNU?$greater@N@0@@Z 10023f90 f i cvblobslib:BlobResult.obj
 0001:00023050       ??$sort_heap@PANU?$greater@N@std@@@std@@YAXPAN0U?$greater@N@0@@Z 10024050 f i cvblobslib:BlobResult.obj
 0001:00023080       ??$_Checked_base@PAPAVCBlob@@@std@@YAPAPAVCBlob@@AAPAPAV1@U_Unchanged_checked_iterator_base_type_tag@0@@Z 10024080 f i cvblobslib:BlobResult.obj
 0001:00023090       ??$_Uninit_copy@PAPAVCBlob@@PAPAV1@V?$allocator@PAVCBlob@@@std@@@std@@YAPAPAVCBlob@@PAPAV1@00AAV?$allocator@PAVCBlob@@@0@U_Scalar_ptr_iterator_tag@0@U_Range_checked_iterator_tag@0@@Z 10024090 f i cvblobslib:BlobResult.obj
 0001:000230e0       ??$_Checked_base@V?$_Vector_const_iterator@NV?$allocator@N@std@@@std@@@std@@YAPBNAAV?$_Vector_const_iterator@NV?$allocator@N@std@@@0@@Z 100240e0 f i cvblobslib:BlobResult.obj
 0001:000230e0       ??$_Checked_base@V?$_Vector_iterator@NV?$allocator@N@std@@@std@@@std@@YAPANAAV?$_Vector_iterator@NV?$allocator@N@std@@@0@@Z 100240e0 f i cvblobslib:BlobResult.obj
 0001:00023100       ??$_Ptr_cat@PAPAVCBlob@@PAPAV1@@std@@YA?AU_Scalar_ptr_iterator_tag@0@AAPAPAVCBlob@@0@Z 10024100 f i cvblobslib:BlobResult.obj
 0001:00023100       ??$_Move_cat@PAPAVCBlob@@@std@@YA?AU_Undefined_move_tag@0@ABQAPAVCBlob@@@Z 10024100 f i cvblobslib:BlobResult.obj
 0001:00023100       ??$_Ptr_cat@V?$_Vector_const_iterator@NV?$allocator@N@std@@@std@@PAN@std@@YA?AU_Scalar_ptr_iterator_tag@0@AAV?$_Vector_const_iterator@NV?$allocator@N@std@@@0@AAPAN@Z 10024100 f i cvblobslib:BlobResult.obj
 0001:00023110       ??$_Uninit_copy@PBNPANV?$allocator@N@std@@@std@@YAPANPBN0PANAAV?$allocator@N@0@U_Scalar_ptr_iterator_tag@0@U_Range_checked_iterator_tag@0@@Z 10024110 f i cvblobslib:BlobResult.obj
 0001:00023160       ??$unchecked_fill_n@PAPAVCBlob@@IPAV1@@stdext@@YAXPAPAVCBlob@@IABQAV1@@Z 10024160 f i cvblobslib:BlobResult.obj
 0001:000231a0       ??$_Uninit_move@PAPAVCBlob@@PAPAV1@V?$allocator@PAVCBlob@@@std@@U_Undefined_move_tag@3@@std@@YAPAPAVCBlob@@PAPAV1@00AAV?$allocator@PAVCBlob@@@0@U_Undefined_move_tag@0@U_Range_checked_iterator_tag@0@@Z 100241a0 f i cvblobslib:BlobResult.obj
 0001:000231c0       ??$_Copy_backward_opt@PAPAVCBlob@@PAPAV1@Urandom_access_iterator_tag@std@@@std@@YAPAPAVCBlob@@PAPAV1@00Urandom_access_iterator_tag@0@U_Scalar_ptr_iterator_tag@0@U_Range_checked_iterator_tag@0@@Z 100241c0 f i cvblobslib:BlobResult.obj
 0001:00023210       ??$_Make_heap@PANHNU?$greater@N@std@@@std@@YAXPAN0U?$greater@N@0@PAH0@Z 10024210 f i cvblobslib:BlobResult.obj
 0001:00023270       ??$_Push_heap@PANHNU?$greater@N@std@@@std@@YAXPANHHNU?$greater@N@0@@Z 10024270 f i cvblobslib:BlobResult.obj
 0001:000232f0       ??$_Sort_heap@PANU?$greater@N@std@@@std@@YAXPAN0U?$greater@N@0@@Z 100242f0 f i cvblobslib:BlobResult.obj
 0001:00023330       ??$_Fill_n@PAPAVCBlob@@IPAV1@@std@@YAXPAPAVCBlob@@IABQAV1@Urandom_access_iterator_tag@0@U_Range_checked_iterator_tag@0@@Z 10024330 f i cvblobslib:BlobResult.obj
 0001:00023370       ??$pop_heap@PANU?$greater@N@std@@@std@@YAXPAN0U?$greater@N@0@@Z 10024370 f i cvblobslib:BlobResult.obj
 0001:000233c0       ??$_Fill_n@PAPAVCBlob@@IPAV1@@std@@YAXPAPAVCBlob@@IABQAV1@U_Range_checked_iterator_tag@0@@Z 100243c0 f i cvblobslib:BlobResult.obj
 0001:000233f0       ??$_Pop_heap_0@PANNU?$greater@N@std@@@std@@YAXPAN0U?$greater@N@0@0@Z 100243f0 f i cvblobslib:BlobResult.obj
 0001:00023430       ??$_Pop_heap@PANHNU?$greater@N@std@@@std@@YAXPAN00NU?$greater@N@0@PAH@Z 10024430 f i cvblobslib:BlobResult.obj
 0001:00023470       ??0CBlobContour@@QAE@XZ    10024470 f   cvblobslib:BlobContour.obj
 0001:000234e0       ??0CBlobContour@@QAE@UCvPoint@@PAUCvMemStorage@@@Z 100244e0 f   cvblobslib:BlobContour.obj
 0001:00023560       ??0CBlobContour@@QAE@PAV0@@Z 10024560 f   cvblobslib:BlobContour.obj
 0001:00023590       ??1CBlobContour@@QAE@XZ    10024590 f   cvblobslib:BlobContour.obj
 0001:000235b0       ??4CBlobContour@@QAEAAV0@ABV0@@Z 100245b0 f   cvblobslib:BlobContour.obj
 0001:000236a0       ?AddChainCode@CBlobContour@@QAEXE@Z 100246a0 f   cvblobslib:BlobContour.obj
 0001:000236c0       ?ResetChainCode@CBlobContour@@IAEXXZ 100246c0 f   cvblobslib:BlobContour.obj
 0001:00023710       ?GetPerimeter@CBlobContour@@IAENXZ 10024710 f   cvblobslib:BlobContour.obj
 0001:00023790       ?GetArea@CBlobContour@@IAENXZ 10024790 f   cvblobslib:BlobContour.obj
 0001:00023820       ?GetMoment@CBlobContour@@IAENHH@Z 10024820 f   cvblobslib:BlobContour.obj
 0001:000238b0       ?GetContourPoints@CBlobContour@@QAEPAUCvSeq@@XZ 100248b0 f   cvblobslib:BlobContour.obj
 0001:00023ad0       ?IsEmpty@CBlobContour@@QAE_NXZ 10024ad0 f i cvblobslib:BlobContour.obj
 0001:00023b10       ?ComponentLabeling@@YA_NPAU_IplImage@@0EAAV?$vector@PAVCBlob@@V?$allocator@PAVCBlob@@@std@@@std@@@Z 10024b10 f   cvblobslib:ComponentLabeling.obj
 0001:000240b0       ?contourTracing@@YAXPAU_IplImage@@0UCvPoint@@PAIPA_NI_NEPAVCBlobContour@@@Z 100250b0 f   cvblobslib:ComponentLabeling.obj
 0001:00024240       ?tracer@@YA?AUCvPoint@@PAU_IplImage@@0U1@PA_NFEAAF@Z 10025240 f   cvblobslib:ComponentLabeling.obj
 0001:00024350       ?GetStorage@CBlob@@QAEPAUCvMemStorage@@XZ 10025350 f i cvblobslib:ComponentLabeling.obj
 0001:00024350       ?GetChainCode@CBlobContour@@QAEPAUCvSeq@@XZ 10025350 f i cvblobslib:blob.obj
 0001:00024360       ?GET_BELOW_VISITEDPIXEL@@YA_NPA_NH@Z 10025360 f i cvblobslib:ComponentLabeling.obj
 0001:00024370       ?ASSIGN_LABEL@@YAXUCvPoint@@PAIHH@Z 10025370 f i cvblobslib:ComponentLabeling.obj
 0001:00024390       ?GET_IMAGE_PIXEL@@YAEPAU_IplImage@@UCvPoint@@@Z 10025390 f i cvblobslib:ComponentLabeling.obj
 0001:000243b0       ?GET_IMAGEMASK_PIXEL@@YA_NPAU_IplImage@@UCvPoint@@@Z 100253b0 f i cvblobslib:ComponentLabeling.obj
 0001:000243e0       ?ASSIGN_VISITED@@YAXUCvPoint@@PA_NH@Z 100253e0 f i cvblobslib:ComponentLabeling.obj
 0001:00024400       ??RCBlobGetMoment@@UAENAAVCBlob@@@Z 10025400 f   cvblobslib:BlobOperators.obj
 0001:00024430       ??RCBlobGetHullPerimeter@@UAENAAVCBlob@@@Z 10025430 f   cvblobslib:BlobOperators.obj
 0001:000244a0       ??RCBlobGetHullArea@@UAENAAVCBlob@@@Z 100254a0 f   cvblobslib:BlobOperators.obj
 0001:00024510       ??RCBlobGetMinXatMinY@@UAENAAVCBlob@@@Z 10025510 f   cvblobslib:BlobOperators.obj
 0001:000245e0       ??RCBlobGetMinYatMaxX@@UAENAAVCBlob@@@Z 100255e0 f   cvblobslib:BlobOperators.obj
 0001:000246b0       ??RCBlobGetMaxXatMaxY@@UAENAAVCBlob@@@Z 100256b0 f   cvblobslib:BlobOperators.obj
 0001:00024780       ??RCBlobGetMaxYatMinX@@UAENAAVCBlob@@@Z 10025780 f   cvblobslib:BlobOperators.obj
 0001:00024850       ??RCBlobGetElongation@@UAENAAVCBlob@@@Z 10025850 f   cvblobslib:BlobOperators.obj
 0001:00024940       ??RCBlobGetCompactness@@UAENAAVCBlob@@@Z 10025940 f   cvblobslib:BlobOperators.obj
 0001:000249a0       ??RCBlobGetRoughness@@UAENAAVCBlob@@@Z 100259a0 f   cvblobslib:BlobOperators.obj
 0001:00024a40       ??RCBlobGetLength@@UAENAAVCBlob@@@Z 10025a40 f   cvblobslib:BlobOperators.obj
 0001:00024b00       ??RCBlobGetBreadth@@UAENAAVCBlob@@@Z 10025b00 f   cvblobslib:BlobOperators.obj
 0001:00024bc0       ??RCBlobGetDistanceFromPoint@@UAENAAVCBlob@@@Z 10025bc0 f   cvblobslib:BlobOperators.obj
 0001:00024c90       ??RCBlobGetXYInside@@UAENAAVCBlob@@@Z 10025c90 f   cvblobslib:BlobOperators.obj
 0001:00024d00       ?MinY@CBlob@@QAENXZ        10025d00 f i cvblobslib:BlobOperators.obj
 0001:00024d20       ?MaxX@CBlob@@QAENXZ        10025d20 f i cvblobslib:BlobOperators.obj
 0001:00024d60       ?MaxY@CBlob@@QAENXZ        10025d60 f i cvblobslib:BlobOperators.obj
 0001:00024da0       ?MinX@CBlob@@QAENXZ        10025da0 f i cvblobslib:BlobOperators.obj
 0001:00024dc0       ?pow@@YANNH@Z              10025dc0 f i cvblobslib:BlobOperators.obj
 0001:00024de0       ??0CBlobGetXCenter@@QAE@XZ 10025de0 f i cvblobslib:BlobOperators.obj
 0001:00024e00       ??RCBlobGetXCenter@@UAENAAVCBlob@@@Z 10025e00 f i cvblobslib:BlobOperators.obj
 0001:00024e40       ?GetNom@CBlobGetXCenter@@UAEPBDXZ 10025e40 f i cvblobslib:BlobOperators.obj
 0001:00024e50       ??0CBlobGetYCenter@@QAE@XZ 10025e50 f i cvblobslib:BlobOperators.obj
 0001:00024e70       ??RCBlobGetYCenter@@UAENAAVCBlob@@@Z 10025e70 f i cvblobslib:BlobOperators.obj
 0001:00024eb0       ?GetNom@CBlobGetYCenter@@UAEPBDXZ 10025eb0 f i cvblobslib:BlobOperators.obj
 0001:00024ec0       ??$_Pow_int@N@@YANNH@Z     10025ec0 f i cvblobslib:BlobOperators.obj
 0001:00024f30       _cvDecRefData              10025f30 f i cxcore210:cxarray.obj
 0001:00024f90       ??1Exception@cv@@UAE@XZ    10025f90 f i cxcore210:cxarray.obj
 0001:00024fd0       ?what@logic_error@std@@UBEPBDXZ 10025fd0 f i DataStat.obj
 0001:00024fd0       ?what@Exception@cv@@UBEPBDXZ 10025fd0 f i cxcore210:cxarray.obj
 0001:00024fe0       ?formatMessage@Exception@cv@@QAEXXZ 10025fe0 f i cxcore210:cxarray.obj
 0001:000250d0       ??_EException@cv@@UAEPAXI@Z 100260d0 f i cxcore210:cxarray.obj
 0001:000250d0       ??_GException@cv@@UAEPAXI@Z 100260d0 f i cxcore210:cxarray.obj
 0001:00025120       ??0Exception@cv@@QAE@HABV?$basic_string@DU?$char_traits@D@std@@V?$allocator@D@2@@std@@00H@Z 10026120 f i cxcore210:cxarray.obj
 0001:000251d0       _cvInitMatHeader           100261d0 f   cxcore210:cxarray.obj
 0001:000256e0       _cvCreateData              100266e0 f   cxcore210:cxarray.obj
 0001:00025ce0       _cvReleaseData             10026ce0 f   cxcore210:cxarray.obj
 0001:00025ed0       _cvGetMat                  10026ed0 f   cxcore210:cxarray.obj
 0001:00026a00       _cvInitImageHeader         10027a00 f   cxcore210:cxarray.obj
 0001:000270d0       _cvReleaseImageHeader      100280d0 f   cxcore210:cxarray.obj
 0001:00027270       _cvReleaseImage            10028270 f   cxcore210:cxarray.obj
 0001:000273e0       _cvSetImageROI             100283e0 f   cxcore210:cxarray.obj
 0001:000277b0       _cvResetImageROI           100287b0 f   cxcore210:cxarray.obj
 0001:00027920       _cvGetImageCOI             10028920 f   cxcore210:cxarray.obj
 0001:00027a90       _cvCreateImageHeader       10028a90 f   cxcore210:cxarray.obj
 0001:00027b20       _cvCreateImage             10028b20 f   cxcore210:cxarray.obj
 0001:00027b50       _cvSliceLength             10028b50 f   cxcore210:cxdatastructs.obj
 0001:00027c30       ?release@Mat@cv@@QAEXXZ    10028c30 f i cxcore210:cxdatastructs.obj
 0001:00027c90       ??1Mat@cv@@QAE@XZ          10028c90 f i cxcore210:cxdatastructs.obj
 0001:00027ca0       ??4Mat@cv@@QAEAAV01@ABV01@@Z 10028ca0 f i cxcore210:cxdatastructs.obj
 0001:00027d10       ?create@Mat@cv@@QAEXHHH@Z  10028d10 f i cxcore210:cxdatastructs.obj
 0001:00028060       _cvCreateMemStorage        10029060 f   cxcore210:cxdatastructs.obj
 0001:00028230       _cvReleaseMemStorage       10029230 f   cxcore210:cxdatastructs.obj
 0001:000283a0       _cvSaveMemStoragePos       100293a0 f   cxcore210:cxdatastructs.obj
 0001:00028510       _cvRestoreMemStoragePos    10029510 f   cxcore210:cxdatastructs.obj
 0001:000287d0       _cvSetSeqBlockSize         100297d0 f   cxcore210:cxdatastructs.obj
 0001:00028bb0       _cvMakeSeqHeaderForArray   10029bb0 f   cxcore210:cxdatastructs.obj
 0001:00028fe0       _cvStartAppendToSeq        10029fe0 f   cxcore210:cxdatastructs.obj
 0001:00029170       _cvFlushSeqWriter          1002a170 f   cxcore210:cxdatastructs.obj
 0001:00029300       _cvEndWriteSeq             1002a300 f   cxcore210:cxdatastructs.obj
 0001:00029490       _cvStartReadSeq            1002a490 f   cxcore210:cxdatastructs.obj
 0001:00029670       _cvChangeSeqBlock          1002a670 f   cxcore210:cxdatastructs.obj
 0001:00029810       _cvSetSeqReaderPos         1002a810 f   cxcore210:cxdatastructs.obj
 0001:00029c30       _cvSeqPopMulti             1002ac30 f   cxcore210:cxdatastructs.obj
 0001:00029fb0       _cvClearSeq                1002afb0 f   cxcore210:cxdatastructs.obj
 0001:0002a110       _cvClearSet                1002b110 f   cxcore210:cxdatastructs.obj
 0001:0002a130       _cvInitTreeNodeIterator    1002b130 f   cxcore210:cxdatastructs.obj
 0001:0002a3e0       _cvNextTreeNode            1002b3e0 f   cxcore210:cxdatastructs.obj
 0001:0002a580       ??1?$AutoBuffer@E$0BAAI@@cv@@QAE@XZ 1002b580 f i cxcore210:cxdatastructs.obj
 0001:0002a7a0       _cvMemStorageAlloc         1002b7a0 f   cxcore210:cxdatastructs.obj
 0001:0002ab80       _cvCreateSeq               1002bb80 f   cxcore210:cxdatastructs.obj
 0001:0002af80       _cvCvtSeqToArray           1002bf80 f   cxcore210:cxdatastructs.obj
 0001:0002b5a0       _cvStartWriteSeq           1002c5a0 f   cxcore210:cxdatastructs.obj
 0001:0002b730       _cvCreateSeqBlock          1002c730 f   cxcore210:cxdatastructs.obj
 0001:0002b8b0       _cvSeqPush                 1002c8b0 f   cxcore210:cxdatastructs.obj
 0001:0002ba80       _cvSeqPushMulti            1002ca80 f   cxcore210:cxdatastructs.obj
 0001:0002bde0       _cvSeqSlice                1002cde0 f   cxcore210:cxdatastructs.obj
 0001:0002c310       ??0Mat@cv@@QAE@ABV01@@Z    1002d310 f i cxcore210:cxstat.obj
 0001:0002c370       ??0Mat@cv@@QAE@HHHPAXI@Z   1002d370 f i cxcore210:cxstat.obj
 0001:0002c420       ?getContinuousSize@cv@@YA?AV?$Size_@H@1@ABVMat@1@H@Z 1002d420 f i cxcore210:cxstat.obj
 0001:0002c490       ?getContinuousSize@cv@@YA?AV?$Size_@H@1@ABVMat@1@0H@Z 1002d490 f i cxcore210:cxstat.obj
 0001:0002c500       ?getContinuousSize@cv@@YA?AV?$Size_@H@1@ABVMat@1@00H@Z 1002d500 f i cxcore210:cxstat.obj
 0001:00031700       ??0Mat@cv@@QAE@PBUCvMat@@_N@Z 10032700 f i cxcore210:cxstat.obj
 0001:00031820       ?meanStdDev@cv@@YAXABVMat@1@AAV?$Scalar_@N@1@10@Z 10032820 f   cxcore210:cxstat.obj
 0001:00031c40       _cvAvgSdv                  10032c40 f   cxcore210:cxstat.obj
 0001:00031ef0       ?clipLine@cv@@YA_NV?$Size_@H@1@AAV?$Point_@H@1@1@Z 10032ef0 f   cxcore210:cxdrawing.obj
 0001:00032120       ??A?$vector@UPolyEdge@cv@@V?$allocator@UPolyEdge@cv@@@std@@@std@@QAEAAUPolyEdge@cv@@I@Z 10033120 f i cxcore210:cxdrawing.obj
 0001:00032160       ?_Xlen@?$vector@V?$Point_@H@cv@@V?$allocator@V?$Point_@H@cv@@@std@@@std@@KAXXZ 10033160 f i cxcore210:cxdrawing.obj
 0001:00032160       ?_Xlen@?$vector@UPolyEdge@cv@@V?$allocator@UPolyEdge@cv@@@std@@@std@@KAXXZ 10033160 f i cxcore210:cxdrawing.obj
 0001:000321c0       ??$_Allocate@V?$Point_@H@cv@@@std@@YAPAV?$Point_@H@cv@@IPAV12@@Z 100331c0 f i cxcore210:cxdrawing.obj
 0001:00032220       ??$_Allocate@UPolyEdge@cv@@@std@@YAPAUPolyEdge@cv@@IPAU12@@Z 10033220 f i cxcore210:cxdrawing.obj
 0001:00032280       ??$_Fill@PAUPolyEdge@cv@@U12@@std@@YAXPAUPolyEdge@cv@@0ABU12@@Z 10033280 f i cxcore210:cxdrawing.obj
 0001:000322c0       ??$_Copy_backward_opt@PAUPolyEdge@cv@@PAU12@Uforward_iterator_tag@std@@@std@@YAPAUPolyEdge@cv@@PAU12@00Uforward_iterator_tag@0@U_Nonscalar_ptr_iterator_tag@0@U_Range_checked_iterator_tag@0@@Z 100332c0 f i cxcore210:cxdrawing.obj
 0001:00032300       ??$swap@UPolyEdge@cv@@@std@@YAXAAUPolyEdge@cv@@0@Z 10033300 f i cxcore210:cxdrawing.obj
 0001:00032360       ??$_Push_heap@PAUPolyEdge@cv@@HU12@UCmpEdges@2@@std@@YAXPAUPolyEdge@cv@@HHU12@UCmpEdges@2@@Z 10033360 f i cxcore210:cxdrawing.obj
 0001:00032420       ??$_Copy_backward_opt@PAUPolyEdge@cv@@PAU12@@std@@YAPAUPolyEdge@cv@@PAU12@00Urandom_access_iterator_tag@0@U_Nonscalar_ptr_iterator_tag@0@U_Range_checked_iterator_tag@0@@Z 10033420 f i cxcore210:cxdrawing.obj
 0001:00032480       ??$_Med3@PAUPolyEdge@cv@@UCmpEdges@2@@std@@YAXPAUPolyEdge@cv@@00UCmpEdges@2@@Z 10033480 f i cxcore210:cxdrawing.obj
 0001:00032550       ??$_Adjust_heap@PAUPolyEdge@cv@@HU12@UCmpEdges@2@@std@@YAXPAUPolyEdge@cv@@HHU12@UCmpEdges@2@@Z 10033550 f i cxcore210:cxdrawing.obj
 0001:00032660       ??$_Uninit_copy@PAV?$Point_@H@cv@@PAV12@V?$allocator@V?$Point_@H@cv@@@std@@@std@@YAPAV?$Point_@H@cv@@PAV12@00AAV?$allocator@V?$Point_@H@cv@@@0@U_Nonscalar_ptr_iterator_tag@0@U_Range_checked_iterator_tag@0@@Z 10033660 f i cxcore210:cxdrawing.obj
 0001:00032690       ??$_Uninit_copy@PAUPolyEdge@cv@@PAU12@V?$allocator@UPolyEdge@cv@@@std@@@std@@YAPAUPolyEdge@cv@@PAU12@00AAV?$allocator@UPolyEdge@cv@@@0@U_Nonscalar_ptr_iterator_tag@0@U_Range_checked_iterator_tag@0@@Z 10033690 f i cxcore210:cxdrawing.obj
 0001:000326d0       ??$_Pop_heap@PAUPolyEdge@cv@@HU12@UCmpEdges@2@@std@@YAXPAUPolyEdge@cv@@00U12@UCmpEdges@2@PAH@Z 100336d0 f i cxcore210:cxdrawing.obj
 0001:00032750       ??$convertTo@E@?$Scalar_@N@cv@@QBEXPAEHH@Z 10033750 f i cxcore210:cxdrawing.obj
 0001:00032910       ??$convertTo@C@?$Scalar_@N@cv@@QBEXPACHH@Z 10033910 f i cxcore210:cxdrawing.obj
 0001:00032ad0       ??$convertTo@G@?$Scalar_@N@cv@@QBEXPAGHH@Z 10033ad0 f i cxcore210:cxdrawing.obj
 0001:00032ca0       ??$convertTo@F@?$Scalar_@N@cv@@QBEXPAFHH@Z 10033ca0 f i cxcore210:cxdrawing.obj
 0001:00032e80       ??$convertTo@H@?$Scalar_@N@cv@@QBEXPAHHH@Z 10033e80 f i cxcore210:cxdrawing.obj
 0001:00033030       ??$convertTo@M@?$Scalar_@N@cv@@QBEXPAMHH@Z 10034030 f i cxcore210:cxdrawing.obj
 0001:00033250       ??$convertTo@N@?$Scalar_@N@cv@@QBEXPANHH@Z 10034250 f i cxcore210:cxdrawing.obj
 0001:00033480       ??0LineIterator@cv@@QAE@ABVMat@1@V?$Point_@H@1@1H_N@Z 10034480 f   cxcore210:cxdrawing.obj
 0001:00035740       ??1?$_Container_base_aux_alloc_real@V?$allocator@M@std@@@std@@IAE@XZ 10036740 f i IAFindShape.obj
 0001:00035740       ??1?$_Container_base_aux_alloc_real@V?$allocator@V?$vector@Upoint@@V?$allocator@Upoint@@@std@@@std@@@std@@@std@@IAE@XZ 10036740 f i IACalcThreadDamage.obj
 0001:00035740       ??1?$_Container_base_aux_alloc_real@V?$allocator@UPointFloat_struct@@@std@@@std@@IAE@XZ 10036740 f i IACalcTeeth.obj
 0001:00035740       ??1?$_Vector_val@V?$Point_@H@cv@@V?$allocator@V?$Point_@H@cv@@@std@@@std@@QAE@XZ 10036740 f i cxcore210:cxdrawing.obj
 0001:00035740       ??1?$_Vector_val@UPolyEdge@cv@@V?$allocator@UPolyEdge@cv@@@std@@@std@@QAE@XZ 10036740 f i cxcore210:cxdrawing.obj
 0001:00035740       ??1?$_Container_base_aux_alloc_real@V?$allocator@U?$pair@Upoint@@U1@@std@@@std@@@std@@IAE@XZ 10036740 f i Utilities.obj
 0001:00035740       ??1?$_Container_base_aux_alloc_real@V?$allocator@Upoint@@@std@@@std@@IAE@XZ 10036740 f i IACalcThreadDamage.obj
 0001:00035740       ??1?$_Container_base_aux_alloc_real@V?$allocator@N@std@@@std@@IAE@XZ 10036740 f i PolygonNIFloat.obj
 0001:00035740       ??1?$_Container_base_aux_alloc_real@V?$allocator@H@std@@@std@@IAE@XZ 10036740 f i DataStat.obj
 0001:00035750       ??H?$_Vector_iterator@V?$Point_@H@cv@@V?$allocator@V?$Point_@H@cv@@@std@@@std@@QBE?AV01@H@Z 10036750 f i cxcore210:cxdrawing.obj
 0001:000357a0       ??$unchecked_copy@PAV?$Point_@H@cv@@PAV12@@stdext@@YAPAV?$Point_@H@cv@@PAV12@00@Z 100367a0 f i cxcore210:cxdrawing.obj
 0001:000357e0       ??$_Uninit_fill_n@PAV?$Point_@H@cv@@IV12@V?$allocator@V?$Point_@H@cv@@@std@@@std@@YAXPAV?$Point_@H@cv@@IABV12@AAV?$allocator@V?$Point_@H@cv@@@0@U_Nonscalar_ptr_iterator_tag@0@U_Range_checked_iterator_tag@0@@Z 100367e0 f i cxcore210:cxdrawing.obj
 0001:00035810       ??$_Uninit_fill_n@PAUPolyEdge@cv@@IU12@V?$allocator@UPolyEdge@cv@@@std@@@std@@YAXPAUPolyEdge@cv@@IABU12@AAV?$allocator@UPolyEdge@cv@@@0@U_Nonscalar_ptr_iterator_tag@0@U_Range_checked_iterator_tag@0@@Z 10036810 f i cxcore210:cxdrawing.obj
 0001:00035850       ??$_Median@PAUPolyEdge@cv@@UCmpEdges@2@@std@@YAXPAUPolyEdge@cv@@00UCmpEdges@2@@Z 10036850 f i cxcore210:cxdrawing.obj
 0001:00035910       ??$_Make_heap@PAUPolyEdge@cv@@HU12@UCmpEdges@2@@std@@YAXPAUPolyEdge@cv@@0UCmpEdges@2@PAH0@Z 10036910 f i cxcore210:cxdrawing.obj
 0001:00035990       ??$_Insertion_sort1@PAUPolyEdge@cv@@UCmpEdges@2@U12@@std@@YAXPAUPolyEdge@cv@@0UCmpEdges@2@0@Z 10036990 f i cxcore210:cxdrawing.obj
 0001:00035e60       ??$_Unchecked_move_backward@PAUPolyEdge@cv@@PAU12@@stdext@@YAPAUPolyEdge@cv@@PAU12@00@Z 10036e60 f i cxcore210:cxdrawing.obj
 0001:00035e90       ??$_Unguarded_partition@PAUPolyEdge@cv@@UCmpEdges@2@@std@@YA?AU?$pair@PAUPolyEdge@cv@@PAU12@@0@PAUPolyEdge@cv@@0UCmpEdges@3@@Z 10036e90 f i cxcore210:cxdrawing.obj
 0001:00036420       ??0?$vector@UPolyEdge@cv@@V?$allocator@UPolyEdge@cv@@@std@@@std@@QAE@XZ 10037420 f i cxcore210:cxdrawing.obj
 0001:00036420       ??0?$vector@V?$Point_@H@cv@@V?$allocator@V?$Point_@H@cv@@@std@@@std@@QAE@XZ 10037420 f i cxcore210:cxdrawing.obj
 0001:00036480       ?_Ufill@?$vector@V?$Point_@H@cv@@V?$allocator@V?$Point_@H@cv@@@std@@@std@@IAEPAV?$Point_@H@cv@@PAV34@IABV34@@Z 10037480 f i cxcore210:cxdrawing.obj
 0001:000364c0       ?_Ufill@?$vector@UPolyEdge@cv@@V?$allocator@UPolyEdge@cv@@@std@@@std@@IAEPAUPolyEdge@cv@@PAU34@IABU34@@Z 100374c0 f i cxcore210:cxdrawing.obj
 0001:00036500       ?erase@?$vector@V?$Point_@H@cv@@V?$allocator@V?$Point_@H@cv@@@std@@@std@@QAE?AV?$_Vector_iterator@V?$Point_@H@cv@@V?$allocator@V?$Point_@H@cv@@@std@@@2@V?$_Vector_const_iterator@V?$Point_@H@cv@@V?$allocator@V?$Point_@H@cv@@@std@@@2@0@Z 10037500 f i cxcore210:cxdrawing.obj
 0001:00036580       ??$_Sort_heap@PAUPolyEdge@cv@@UCmpEdges@2@@std@@YAXPAUPolyEdge@cv@@0UCmpEdges@2@@Z 10037580 f i cxcore210:cxdrawing.obj
 0001:00036610       ??1?$vector@UPolyEdge@cv@@V?$allocator@UPolyEdge@cv@@@std@@@std@@QAE@XZ 10037610 f i cxcore210:cxdrawing.obj
 0001:00036610       ??1?$vector@V?$Point_@H@cv@@V?$allocator@V?$Point_@H@cv@@@std@@@std@@QAE@XZ 10037610 f i cxcore210:cxdrawing.obj
 0001:00036650       ??$_Umove@PAV?$Point_@H@cv@@@?$vector@V?$Point_@H@cv@@V?$allocator@V?$Point_@H@cv@@@std@@@std@@IAEPAV?$Point_@H@cv@@PAV23@00@Z 10037650 f i cxcore210:cxdrawing.obj
 0001:00036680       ??$_Umove@PAUPolyEdge@cv@@@?$vector@UPolyEdge@cv@@V?$allocator@UPolyEdge@cv@@@std@@@std@@IAEPAUPolyEdge@cv@@PAU23@00@Z 10037680 f i cxcore210:cxdrawing.obj
 0001:000366b0       ?reserve@?$vector@UPolyEdge@cv@@V?$allocator@UPolyEdge@cv@@@std@@@std@@QAEXI@Z 100376b0 f i cxcore210:cxdrawing.obj
 0001:000367d0       ?_Insert_n@?$vector@V?$Point_@H@cv@@V?$allocator@V?$Point_@H@cv@@@std@@@std@@IAEXV?$_Vector_const_iterator@V?$Point_@H@cv@@V?$allocator@V?$Point_@H@cv@@@std@@@2@IABV?$Point_@H@cv@@@Z 100377d0 f i cxcore210:cxdrawing.obj
 0001:00036a10       ?_Insert_n@?$vector@UPolyEdge@cv@@V?$allocator@UPolyEdge@cv@@@std@@@std@@IAEXV?$_Vector_const_iterator@UPolyEdge@cv@@V?$allocator@UPolyEdge@cv@@@std@@@2@IABUPolyEdge@cv@@@Z 10037a10 f i cxcore210:cxdrawing.obj
 0001:00036cc0       ??$_Sort@PAUPolyEdge@cv@@HUCmpEdges@2@@std@@YAXPAUPolyEdge@cv@@0HUCmpEdges@2@@Z 10037cc0 f i cxcore210:cxdrawing.obj
 0001:00036e10       ?resize@?$vector@V?$Point_@H@cv@@V?$allocator@V?$Point_@H@cv@@@std@@@std@@QAEXIV?$Point_@H@cv@@@Z 10037e10 f i cxcore210:cxdrawing.obj
 0001:00036ec0       ?insert@?$vector@V?$Point_@H@cv@@V?$allocator@V?$Point_@H@cv@@@std@@@std@@QAE?AV?$_Vector_iterator@V?$Point_@H@cv@@V?$allocator@V?$Point_@H@cv@@@std@@@2@V?$_Vector_const_iterator@V?$Point_@H@cv@@V?$allocator@V?$Point_@H@cv@@@std@@@2@ABV?$Point_@H@cv@@@Z 10037ec0 f i cxcore210:cxdrawing.obj
 0001:00036f80       ?insert@?$vector@UPolyEdge@cv@@V?$allocator@UPolyEdge@cv@@@std@@@std@@QAE?AV?$_Vector_iterator@UPolyEdge@cv@@V?$allocator@UPolyEdge@cv@@@std@@@2@V?$_Vector_const_iterator@UPolyEdge@cv@@V?$allocator@UPolyEdge@cv@@@std@@@2@ABUPolyEdge@cv@@@Z 10037f80 f i cxcore210:cxdrawing.obj
 0001:00037050       ??$sort@V?$_Vector_iterator@UPolyEdge@cv@@V?$allocator@UPolyEdge@cv@@@std@@@std@@UCmpEdges@cv@@@std@@YAXV?$_Vector_iterator@UPolyEdge@cv@@V?$allocator@UPolyEdge@cv@@@std@@@0@0UCmpEdges@cv@@@Z 10038050 f i cxcore210:cxdrawing.obj
 0001:000370a0       ?push_back@?$vector@V?$Point_@H@cv@@V?$allocator@V?$Point_@H@cv@@@std@@@std@@QAEXABV?$Point_@H@cv@@@Z 100380a0 f i cxcore210:cxdrawing.obj
 0001:00037120       ?push_back@?$vector@UPolyEdge@cv@@V?$allocator@UPolyEdge@cv@@@std@@@std@@QAEXABUPolyEdge@cv@@@Z 10038120 f i cxcore210:cxdrawing.obj
 0001:000371c0       ?ellipse2Poly@cv@@YAXV?$Point_@H@1@V?$Size_@H@1@HHHHAAV?$vector@V?$Point_@H@cv@@V?$allocator@V?$Point_@H@cv@@@std@@@std@@@Z 100381c0 f   cxcore210:cxdrawing.obj
 0001:00038250       _cvDrawContours            10039250 f   cxcore210:cxdrawing.obj
 0001:00038ba0       ?copyTo@Mat@cv@@QBEXAAV12@@Z 10039ba0 f   cxcore210:cxcopy.obj
 0001:0003a8d0       ??4Mat@cv@@QAEAAV01@ABV?$Scalar_@N@1@@Z 1003b8d0 f   cxcore210:cxcopy.obj
 0001:0003aa70       _cvSetZero                 1003ba70 f   cxcore210:cxcopy.obj
 0001:0003ab40       _cvFree_                   1003bb40 f   cxcore210:cxalloc.obj
 0001:0003ab40       ?fastFree@cv@@YAXPAX@Z     1003bb40 f   cxcore210:cxalloc.obj
 0001:0003acb0       _cvAlloc                   1003bcb0 f   cxcore210:cxalloc.obj
 0001:0003acb0       ?fastMalloc@cv@@YAPAXI@Z   1003bcb0 f   cxcore210:cxalloc.obj
 0001:0003ace0       ?initialize@HWFeatures@cv@@SA?AU12@XZ 1003bce0 f i cxcore210:cxsystem.obj
 0001:0003ada0       ?checkHardwareSupport@cv@@YA_NH@Z 1003bda0 f   cxcore210:cxsystem.obj
 0001:0003adb0       ?format@cv@@YA?AV?$basic_string@DU?$char_traits@D@std@@V?$allocator@D@2@@std@@PBDZZ 1003bdb0 f   cxcore210:cxsystem.obj
 0001:0003ae20       ??0Exception@cv@@QAE@ABV01@@Z 1003be20 f i cxcore210:cxsystem.obj
 0001:0003aed0       _cvErrorStr                1003bed0 f   cxcore210:cxsystem.obj
 0001:0003b110       ??1CvModule@@QAE@XZ        1003c110 f   cxcore210:cxsystem.obj
 0001:0003b170       ?error@cv@@YAXABVException@1@@Z 1003c170 f   cxcore210:cxsystem.obj
 0001:0003b2a0       _cvRegisterModule          1003c2a0 f   cxcore210:cxsystem.obj
 0001:0003b420       ??0Mat@cv@@QAE@PBU_IplImage@@_N@Z 1003c420 f   cxcore210:cxmatrix.obj
 0001:0003bfb0       ??0Mat@cv@@QAE@V?$Size_@H@1@HPAXI@Z 1003cfb0 f i cxcore210:cxconvert.obj
 0001:0003c060       ?mixChannels@cv@@YAXPBVMat@1@HPAV21@HPBHI@Z 1003d060 f   cxcore210:cxconvert.obj
 0001:0003c910       ??R?$VBinOp8@U_VAdd8u@cv@@@cv@@QBEHPBE0PAEH@Z 1003d910 f i cxcore210:cxarithm.obj
 0001:0003c9f0       ??R?$VBinOp16@GU_VAdd16u@cv@@@cv@@QBEHPBG0PAGH@Z 1003d9f0 f i cxcore210:cxarithm.obj
 0001:0003cad0       ??R?$VBinOp16@FU_VAdd16s@cv@@@cv@@QBEHPBF0PAFH@Z 1003dad0 f i cxcore210:cxarithm.obj
 0001:0003cbb0       ??R?$VBinOp32f@U_VAdd32f@cv@@@cv@@QBEHPBM0PAMH@Z 1003dbb0 f i cxcore210:cxarithm.obj
 0001:0003ccc0       ??R?$VBinOp8@U_VSub8u@cv@@@cv@@QBEHPBE0PAEH@Z 1003dcc0 f i cxcore210:cxarithm.obj
 0001:0003cda0       ??R?$VBinOp16@GU_VSub16u@cv@@@cv@@QBEHPBG0PAGH@Z 1003dda0 f i cxcore210:cxarithm.obj
 0001:0003ce80       ??R?$VBinOp16@FU_VSub16s@cv@@@cv@@QBEHPBF0PAFH@Z 1003de80 f i cxcore210:cxarithm.obj
 0001:0003cf60       ??R?$VBinOp32f@U_VSub32f@cv@@@cv@@QBEHPBM0PAMH@Z 1003df60 f i cxcore210:cxarithm.obj
 0001:0003e8f0       ?bitwise_not@cv@@YAXABVMat@1@AAV21@@Z 1003f8f0 f   cxcore210:cxarithm.obj
 0001:0003ea20       ?compare@cv@@YAXABVMat@1@NAAV21@H@Z 1003fa20 f   cxcore210:cxarithm.obj
 0001:00043170       ?multiply@cv@@YAXABVMat@1@0AAV21@N@Z 10044170 f   cxcore210:cxarithm.obj
 0001:00043330       ?divide@cv@@YAXNABVMat@1@AAV21@@Z 10044330 f   cxcore210:cxarithm.obj
 0001:00045070       ?pow@cv@@YAXABVMat@1@NAAV21@@Z 10046070 f   cxcore210:cxmathfuncs.obj
 0001:00045750       _cvPow                     10046750 f   cxcore210:cxmathfuncs.obj
 0001:00046100       _cvArcLength               10047100 f   cv210:cvshapedescr.obj
 0001:000464d0       _cvContourArea             100474d0 f   cv210:cvshapedescr.obj
 0001:000469f0       _cvBoundingRect            100479f0 f   cv210:cvshapedescr.obj
 0001:00048870       ??1?$AutoBuffer@H$0EAI@@cv@@QAE@XZ 10049870 f i cxcore210:cxdatastructs.obj
 0001:00048870       ??1?$AutoBuffer@PAUCvPoint@@$0EAI@@cv@@QAE@XZ 10049870 f i cv210:cvconvhull.obj
 0001:000488a0       ?allocate@?$AutoBuffer@PAUCvPoint@@$0EAI@@cv@@QAEXI@Z 100498a0 f i cv210:cvconvhull.obj
 0001:000488a0       ?allocate@?$AutoBuffer@H$0EAI@@cv@@QAEXI@Z 100498a0 f i cxcore210:cxdatastructs.obj
 0001:00048900       _cvConvexHull2             10049900 f   cv210:cvconvhull.obj
 0001:00049eb0       ??0Mat@cv@@QAE@ABV01@ABV?$Rect_@H@1@@Z 1004aeb0 f i cv210:cvmoments.obj
 0001:0004a0e0       ??$momentsInTile@EHH@@YAXABVMat@cv@@PAN@Z 1004b0e0 f   cv210:cvmoments.obj
 0001:0004a560       _cvGetSpatialMoment        1004b560 f   cv210:cvmoments.obj
 0001:0004b3e0       _cvMoments                 1004c3e0 f   cv210:cvmoments.obj
 0001:0004be70       ??1?$AutoBuffer@U_CvPtInfo@@$0NE@@cv@@QAE@XZ 1004ce70 f i cv210:cvapprox.obj
 0001:0004bea0       ?allocate@?$AutoBuffer@U_CvPtInfo@@$0NE@@cv@@QAEXI@Z 1004cea0 f i cv210:cvapprox.obj
 0001:0004bf00       ?icvApproximateChainTC89@@YAPAUCvSeq@@PAUCvChain@@HPAUCvMemStorage@@H@Z 1004cf00 f   cv210:cvapprox.obj
 0001:0004c930       _cvApproxChains            1004d930 f   cv210:cvapprox.obj
 0001:0004cdb0       _cvPointPolygonTest        1004ddb0 f   cv210:cvgeometry.obj
 0001:0004d880       _cvPointSeqFromMat         1004e880 f   cv210:cvutils.obj
 0001:0004ddb0       _cvStartReadChainPoints    1004edb0 f   cv210:cvcontours.obj
 0001:0004e08c       ?AfxMessageBox@@YGHPBDII@Z 1004f08c f   mfc90:mfc90.dll
 0001:0004e158       __RawDllMainProxy@12       1004f158 f   mfcs90:rawdllmainproxy.obj
 0001:0004e182       _abs                       1004f182 f   MSVCRT:MSVCR90.dll
 0001:0004e188       _atan                      1004f188 f   MSVCRT:MSVCR90.dll
 0001:0004e18e       _sqrt                      1004f18e f   MSVCRT:MSVCR90.dll
 0001:0004e194       __purecall                 1004f194 f   MSVCRT:MSVCR90.dll
 0001:0004e19a       _fabs                      1004f19a f   MSVCRT:MSVCR90.dll
 0001:0004e1a0       __allmul                   1004f1a0 f   MSVCRT:llmul.obj
 0001:0004e1e0       __alloca_probe_16          1004f1e0 f   MSVCRT:alloca16.obj
 0001:0004e1f6       __alloca_probe_8           1004f1f6     MSVCRT:alloca16.obj
 0001:0004e210       __alloca_probe             1004f210     MSVCRT:chkstk.obj
 0001:0004e210       __chkstk                   1004f210 f   MSVCRT:chkstk.obj
 0001:0004e240       __alldiv                   1004f240 f   MSVCRT:lldiv.obj
 0001:0004e2f0       __allshr                   1004f2f0 f   MSVCRT:llshr.obj
 0001:0004e320       __aullshr                  1004f320 f   MSVCRT:ullshr.obj
 0001:0004e340       __aulldiv                  1004f340 f   MSVCRT:ulldiv.obj
 0001:0004e3b0       __allshl                   1004f3b0 f   MSVCRT:llshl.obj
 0002:00000000       __imp__WideCharToMultiByte@32 10054000     kernel32:KERNEL32.dll
 0002:00000004       __imp__FreeLibrary@4       10054004     kernel32:KERNEL32.dll
 0002:00000008       __imp__GetProcAddress@8    10054008     kernel32:KERNEL32.dll
 0002:0000000c       __imp__LoadLibraryW@4      1005400c     kernel32:KERNEL32.dll
 0002:00000010       __imp__GetVersionExW@4     10054010     kernel32:KERNEL32.dll
 0002:00000014       __imp__QueryPerformanceFrequency@4 10054014     kernel32:KERNEL32.dll
 0002:00000018       __imp__MultiByteToWideChar@24 10054018     kernel32:KERNEL32.dll
 0002:0000001c       __imp__Sleep@4             1005401c     kernel32:KERNEL32.dll
 0002:00000020       __imp__InterlockedCompareExchange@12 10054020     kernel32:KERNEL32.dll
 0002:00000024       __imp__TerminateProcess@8  10054024     kernel32:KERNEL32.dll
 0002:00000028       __imp__GetCurrentProcess@0 10054028     kernel32:KERNEL32.dll
 0002:0000002c       __imp__UnhandledExceptionFilter@4 1005402c     kernel32:KERNEL32.dll
 0002:00000030       __imp__SetUnhandledExceptionFilter@4 10054030     kernel32:KERNEL32.dll
 0002:00000034       __imp__IsDebuggerPresent@0 10054034     kernel32:KERNEL32.dll
 0002:00000038       __imp__QueryPerformanceCounter@4 10054038     kernel32:KERNEL32.dll
 0002:0000003c       __imp__GetTickCount@0      1005403c     kernel32:KERNEL32.dll
 0002:00000040       __imp__GetCurrentThreadId@0 10054040     kernel32:KERNEL32.dll
 0002:00000044       __imp__GetCurrentProcessId@0 10054044     kernel32:KERNEL32.dll
 0002:00000048       __imp__GetSystemTimeAsFileTime@4 10054048     kernel32:KERNEL32.dll
 0002:0000004c       __imp__InitializeCriticalSection@4 1005404c     kernel32:KERNEL32.dll
 0002:00000050       __imp__LeaveCriticalSection@4 10054050     kernel32:KERNEL32.dll
 0002:00000054       __imp__EnterCriticalSection@4 10054054     kernel32:KERNEL32.dll
 0002:00000058       __imp__DeleteCriticalSection@4 10054058     kernel32:KERNEL32.dll
 0002:0000005c       __imp__InterlockedExchange@8 1005405c     kernel32:KERNEL32.dll
 0002:00000060       \177KERNEL32_NULL_THUNK_DATA 10054060     kernel32:KERNEL32.dll
 0002:00000064       __imp_?size@?$basic_string@DU?$char_traits@D@std@@V?$allocator@D@2@@std@@QBEIXZ 10054064     msvcprt:MSVCP90.dll
 0002:00000068       __imp_??0?$basic_string@DU?$char_traits@D@std@@V?$allocator@D@2@@std@@QAE@ABV01@@Z 10054068     msvcprt:MSVCP90.dll
 0002:0000006c       __imp_?c_str@?$basic_string@DU?$char_traits@D@std@@V?$allocator@D@2@@std@@QBEPBDXZ 1005406c     msvcprt:MSVCP90.dll
 0002:00000070       __imp_??0?$basic_string@DU?$char_traits@D@std@@V?$allocator@D@2@@std@@QAE@PBD@Z 10054070     msvcprt:MSVCP90.dll
 0002:00000074       __imp_??1?$basic_string@_WU?$char_traits@_W@std@@V?$allocator@_W@2@@std@@QAE@XZ 10054074     msvcprt:MSVCP90.dll
 0002:00000078       __imp_??_D?$basic_stringstream@_WU?$char_traits@_W@std@@V?$allocator@_W@2@@std@@QAEXXZ 10054078     msvcprt:MSVCP90.dll
 0002:0000007c       __imp_?str@?$basic_stringstream@_WU?$char_traits@_W@std@@V?$allocator@_W@2@@std@@QBE?AV?$basic_string@_WU?$char_traits@_W@std@@V?$allocator@_W@2@@2@XZ 1005407c     msvcprt:MSVCP90.dll
 0002:00000080       __imp_??0?$basic_stringstream@_WU?$char_traits@_W@std@@V?$allocator@_W@2@@std@@QAE@H@Z 10054080     msvcprt:MSVCP90.dll
 0002:00000084       __imp_??$?6_WU?$char_traits@_W@std@@V?$allocator@_W@1@@std@@YAAAV?$basic_ostream@_WU?$char_traits@_W@std@@@0@AAV10@ABV?$basic_string@_WU?$char_traits@_W@std@@V?$allocator@_W@2@@0@@Z 10054084     msvcprt:MSVCP90.dll
 0002:00000088       __imp_??4?$basic_string@DU?$char_traits@D@std@@V?$allocator@D@2@@std@@QAEAAV01@ABV01@@Z 10054088     msvcprt:MSVCP90.dll
 0002:0000008c       __imp_??1?$basic_string@DU?$char_traits@D@std@@V?$allocator@D@2@@std@@QAE@XZ 1005408c     msvcprt:MSVCP90.dll
 0002:00000090       __imp_??0?$basic_string@DU?$char_traits@D@std@@V?$allocator@D@2@@std@@QAE@XZ 10054090     msvcprt:MSVCP90.dll
 0002:00000094       \177MSVCP90_NULL_THUNK_DATA 10054094     msvcprt:MSVCP90.dll
 0002:00000098       __imp__abs                 10054098     MSVCRT:MSVCR90.dll
 0002:0000009c       __imp__atan                1005409c     MSVCRT:MSVCR90.dll
 0002:000000a0       __imp__sqrt                100540a0     MSVCRT:MSVCR90.dll
 0002:000000a4       __imp__fclose              100540a4     MSVCRT:MSVCR90.dll
 0002:000000a8       __imp__fprintf             100540a8     MSVCRT:MSVCR90.dll
 0002:000000ac       __imp__fopen               100540ac     MSVCRT:MSVCR90.dll
 0002:000000b0       __imp___purecall           100540b0     MSVCRT:MSVCR90.dll
 0002:000000b4       __imp__fabs                100540b4     MSVCRT:MSVCR90.dll
 0002:000000b8       __imp__vsprintf            100540b8     MSVCRT:MSVCR90.dll
 0002:000000bc       __imp__fflush              100540bc     MSVCRT:MSVCR90.dll
 0002:000000c0       __imp____iob_func          100540c0     MSVCRT:MSVCR90.dll
 0002:000000c4       __imp__vfprintf            100540c4     MSVCRT:MSVCR90.dll
 0002:000000c8       __imp___localtime64        100540c8     MSVCRT:MSVCR90.dll
 0002:000000cc       __imp__strncpy             100540cc     MSVCRT:MSVCR90.dll
 0002:000000d0       __imp____clean_type_info_names_internal 100540d0     MSVCRT:MSVCR90.dll
 0002:000000d4       __imp___except_handler4_common 100540d4     MSVCRT:MSVCR90.dll
 0002:000000d8       __imp_?_type_info_dtor_internal_method@type_info@@QAEXXZ 100540d8     MSVCRT:MSVCR90.dll
 0002:000000dc       __imp___crt_debugger_hook  100540dc     MSVCRT:MSVCR90.dll
 0002:000000e0       __imp___onexit             100540e0     MSVCRT:MSVCR90.dll
 0002:000000e4       __imp___lock               100540e4     MSVCRT:MSVCR90.dll
 0002:000000e8       __imp____dllonexit         100540e8     MSVCRT:MSVCR90.dll
 0002:000000ec       __imp___unlock             100540ec     MSVCRT:MSVCR90.dll
 0002:000000f0       __imp____CppXcptFilter     100540f0     MSVCRT:MSVCR90.dll
 0002:000000f4       __imp___adjust_fdiv        100540f4     MSVCRT:MSVCR90.dll
 0002:000000f8       __imp___amsg_exit          100540f8     MSVCRT:MSVCR90.dll
 0002:000000fc       __imp___initterm_e         100540fc     MSVCRT:MSVCR90.dll
 0002:00000100       __imp___initterm           10054100     MSVCRT:MSVCR90.dll
 0002:00000104       __imp___decode_pointer     10054104     MSVCRT:MSVCR90.dll
 0002:00000108       __imp___encoded_null       10054108     MSVCRT:MSVCR90.dll
 0002:0000010c       __imp___malloc_crt         1005410c     MSVCRT:MSVCR90.dll
 0002:00000110       __imp___encode_pointer     10054110     MSVCRT:MSVCR90.dll
 0002:00000114       __imp_?terminate@@YAXXZ    10054114     MSVCRT:MSVCR90.dll
 0002:00000118       __imp___CIacos             10054118     MSVCRT:MSVCR90.dll
 0002:0000011c       __imp___CIatan             1005411c     MSVCRT:MSVCR90.dll
 0002:00000120       __imp__sprintf_s           10054120     MSVCRT:MSVCR90.dll
 0002:00000124       __imp___CItan              10054124     MSVCRT:MSVCR90.dll
 0002:00000128       __imp___CIsqrt             10054128     MSVCRT:MSVCR90.dll
 0002:0000012c       __imp___CIatan2            1005412c     MSVCRT:MSVCR90.dll
 0002:00000130       __imp_??_V@YAXPAX@Z        10054130     MSVCRT:MSVCR90.dll
 0002:00000134       __imp___CIsin              10054134     MSVCRT:MSVCR90.dll
 0002:00000138       __imp___CIcos              10054138     MSVCRT:MSVCR90.dll
 0002:0000013c       __imp__memcpy              1005413c     MSVCRT:MSVCR90.dll
 0002:00000140       __imp__sprintf             10054140     MSVCRT:MSVCR90.dll
 0002:00000144       __imp__memset              10054144     MSVCRT:MSVCR90.dll
 0002:00000148       __imp__memmove_s           10054148     MSVCRT:MSVCR90.dll
 0002:0000014c       __imp_??2@YAPAXI@Z         1005414c     MSVCRT:MSVCR90.dll
 0002:00000150       __imp_??0exception@std@@QAE@ABV01@@Z 10054150     MSVCRT:MSVCR90.dll
 0002:00000154       __imp___CxxThrowException@8 10054154     MSVCRT:MSVCR90.dll
 0002:00000158       __imp_??0exception@std@@QAE@XZ 10054158     MSVCRT:MSVCR90.dll
 0002:0000015c       __imp___invalid_parameter_noinfo 1005415c     MSVCRT:MSVCR90.dll
 0002:00000160       __imp_??3@YAXPAX@Z         10054160     MSVCRT:MSVCR90.dll
 0002:00000164       __imp_?what@exception@std@@UBEPBDXZ 10054164     MSVCRT:MSVCR90.dll
 0002:00000168       __imp____CxxFrameHandler3  10054168     MSVCRT:MSVCR90.dll
 0002:0000016c       __imp_??0exception@std@@QAE@ABQBD@Z 1005416c     MSVCRT:MSVCR90.dll
 0002:00000170       __imp_??1exception@std@@UAE@XZ 10054170     MSVCRT:MSVCR90.dll
 0002:00000174       __imp__malloc              10054174     MSVCRT:MSVCR90.dll
 0002:00000178       __imp__free                10054178     MSVCRT:MSVCR90.dll
 0002:0000017c       __imp___time64             1005417c     MSVCRT:MSVCR90.dll
 0002:00000180       \177MSVCR90_NULL_THUNK_DATA 10054180     MSVCRT:MSVCR90.dll
 0002:00000184       __imp__SetParent@8         10054184     user32:USER32.dll
 0002:00000188       __imp__GetWindowRect@8     10054188     user32:USER32.dll
 0002:0000018c       __imp__SetWindowPos@28     1005418c     user32:USER32.dll
 0002:00000190       \177USER32_NULL_THUNK_DATA 10054190     user32:USER32.dll
 0002:00000194       __imp_??0?$CStringT@DV?$StrTraitMFC_DLL@DV?$ChTraitsCRT@D@ATL@@@@@ATL@@QAE@PBD@Z 10054194     mfc90:mfc90.dll
 0002:00000198       __imp_??B?$CSimpleStringT@D$00@ATL@@QBEPBDXZ 10054198     mfc90:mfc90.dll
 0002:0000019c       __imp_?Format@?$CStringT@DV?$StrTraitMFC_DLL@DV?$ChTraitsCRT@D@ATL@@@@@ATL@@QAAXPBDZZ 1005419c     mfc90:mfc90.dll
 0002:000001a0       __imp_?AfxMessageBox@@YGHPBDII@Z 100541a0     mfc90:mfc90.dll
 0002:000001a4       __imp_??1?$CStringT@DV?$StrTraitMFC_DLL@DV?$ChTraitsCRT@D@ATL@@@@@ATL@@QAE@XZ 100541a4     mfc90:mfc90.dll
 0002:000001a8       __imp_??0?$CStringT@DV?$StrTraitMFC_DLL@DV?$ChTraitsCRT@D@ATL@@@@@ATL@@QAE@XZ 100541a8     mfc90:mfc90.dll
 0002:000001ac       \177mfc90_NULL_THUNK_DATA  100541ac     mfc90:mfc90.dll
 0002:000001b0       __imp__imaqParticleFilter3@28 100541b0     nivision:nivision.dll
 0002:000001b4       __imp__imaqROIProfile@8    100541b4     nivision:nivision.dll
 0002:000001b8       __imp__imaqEdgeTool@20     100541b8     nivision:nivision.dll
 0002:000001bc       __imp__imaqCloseToolWindow@0 100541bc     nivision:nivision.dll
 0002:000001c0       __imp__imaqCloseWindow@4   100541c0     nivision:nivision.dll
 0002:000001c4       __imp__imaqOverlayROI@20   100541c4     nivision:nivision.dll
 0002:000001c8       __imp__imaqOverlayClosedContour@24 100541c8     nivision:nivision.dll
 0002:000001cc       __imp__imaqGetDistance@20  100541cc     nivision:nivision.dll
 0002:000001d0       __imp__imaqSetError@8      100541d0     nivision:nivision.dll
 0002:000001d4       __imp__imaqGetContourCount@4 100541d4     nivision:nivision.dll
 0002:000001d8       __imp__imaqGetContourInfo2@8 100541d8     nivision:nivision.dll
 0002:000001dc       __imp__imaqGetROIBoundingBox@8 100541dc     nivision:nivision.dll
 0002:000001e0       __imp__imaqSetContourColor@12 100541e0     nivision:nivision.dll
 0002:000001e4       __imp__imaqRemoveContour@8 100541e4     nivision:nivision.dll
 0002:000001e8       __imp__imaqSetWindowROI@8  100541e8     nivision:nivision.dll
 0002:000001ec       __imp__imaqGetWindowROI@4  100541ec     nivision:nivision.dll
 0002:000001f0       __imp__imaqAddAnnulusContour@36 100541f0     nivision:nivision.dll
 0002:000001f4       __imp__imaqAutoThreshold2@20 100541f4     nivision:nivision.dll
 0002:000001f8       __imp__imaqCopyRect@32     100541f8     nivision:nivision.dll
 0002:000001fc       __imp__imaqWritePNGFile2@20 100541fc     nivision:nivision.dll
 0002:00000200       __imp__imaqSetWindowPalette@16 10054200     nivision:nivision.dll
 0002:00000204       __imp__imaqShowScrollbars@8 10054204     nivision:nivision.dll
 0002:00000208       __imp__imaqClearOverlay@8  10054208     nivision:nivision.dll
 0002:0000020c       __imp__imaqZoomWindow@20   1005420c     nivision:nivision.dll
 0002:00000210       __imp__imaqGetWindowZoom@12 10054210     nivision:nivision.dll
 0002:00000214       __imp__imaqDisplayImage@12 10054214     nivision:nivision.dll
 0002:00000218       __imp__imaqGetFileInfo@28  10054218     nivision:nivision.dll
 0002:0000021c       __imp__imaqGetLastError@0  1005421c     nivision:nivision.dll
 0002:00000220       __imp__imaqGetErrorText@4  10054220     nivision:nivision.dll
 0002:00000224       __imp__imaqReadFile@16     10054224     nivision:nivision.dll
 0002:00000228       __imp__imaqGetSystemWindowHandle@4 10054228     nivision:nivision.dll
 0002:0000022c       __imp__imaqSetupWindow@8   1005422c     nivision:nivision.dll
 0002:00000230       __imp__imaqMoveWindow@12   10054230     nivision:nivision.dll
 0002:00000234       __imp__imaqSetToolColor@4  10054234     nivision:nivision.dll
 0002:00000238       __imp__imaqSetEventCallback@8 10054238     nivision:nivision.dll
 0002:0000023c       __imp__imaqSetToolContextSensitivity@4 1005423c     nivision:nivision.dll
 0002:00000240       __imp__imaqSetCurrentTool@4 10054240     nivision:nivision.dll
 0002:00000244       __imp__imaqShowWindow@8    10054244     nivision:nivision.dll
 0002:00000248       __imp__imaqIsImageEmpty@8  10054248     nivision:nivision.dll
 0002:0000024c       __imp__imaqTransformROI2@12 1005424c     nivision:nivision.dll
 0002:00000250       __imp__imaqSetImageSize@12 10054250     nivision:nivision.dll
 0002:00000254       __imp__imaqAnd@12          10054254     nivision:nivision.dll
 0002:00000258       __imp__imaqFitCircle2@12   10054258     nivision:nivision.dll
 0002:0000025c       __imp__imaqDrawShapeOnImage@36 1005425c     nivision:nivision.dll
 0002:00000260       __imp__imaqSizeFilter@24   10054260     nivision:nivision.dll
 0002:00000264       __imp__imaqSpoke@20        10054264     nivision:nivision.dll
 0002:00000268       __imp__imaqFitCircle@12    10054268     nivision:nivision.dll
 0002:0000026c       __imp__imaqCopyContour@12  1005426c     nivision:nivision.dll
 0002:00000270       __imp__imaqMergeOverlay@20 10054270     nivision:nivision.dll
 0002:00000274       __imp__imaqLabel2@16       10054274     nivision:nivision.dll
 0002:00000278       __imp__imaqOverlayText@28  10054278     nivision:nivision.dll
 0002:0000027c       __imp__imaqOverlayOval@32  1005427c     nivision:nivision.dll
 0002:00000280       __imp__imaqArrayToImage@16 10054280     nivision:nivision.dll
 0002:00000284       __imp__imaqFillImage@16    10054284     nivision:nivision.dll
 0002:00000288       __imp__imaqDrawLineOnImage@32 10054288     nivision:nivision.dll
 0002:0000028c       __imp__imaqExtractCurves@16 1005428c     nivision:nivision.dll
 0002:00000290       __imp__imaqAddRotatedRectContour2@28 10054290     nivision:nivision.dll
 0002:00000294       __imp__imaqROIToMask@20    10054294     nivision:nivision.dll
 0002:00000298       __imp__imaqMakeRotatedRect@24 10054298     nivision:nivision.dll
 0002:0000029c       __imp__imaqMorphology@16   1005429c     nivision:nivision.dll
 0002:000002a0       __imp__imaqMakeRectFromRotatedRect@24 100542a0     nivision:nivision.dll
 0002:000002a4       __imp__imaqCountParticles@12 100542a4     nivision:nivision.dll
 0002:000002a8       __imp__imaqGetPerpendicularLine@36 100542a8     nivision:nivision.dll
 0002:000002ac       __imp__imaqRejectBorder@12 100542ac     nivision:nivision.dll
 0002:000002b0       __imp__imaqFillHoles@12    100542b0     nivision:nivision.dll
 0002:000002b4       __imp__imaqMeasureParticle@20 100542b4     nivision:nivision.dll
 0002:000002b8       __imp__imaqOverlayRect@32  100542b8     nivision:nivision.dll
 0002:000002bc       __imp__imaqCreateROI@0     100542bc     nivision:nivision.dll
 0002:000002c0       __imp__imaqAddRectContour@20 100542c0     nivision:nivision.dll
 0002:000002c4       __imp__imaqRake@20         100542c4     nivision:nivision.dll
 0002:000002c8       __imp__imaqFitLine@12      100542c8     nivision:nivision.dll
 0002:000002cc       __imp__imaqSetPixel@20     100542cc     nivision:nivision.dll
 0002:000002d0       __imp__imaqCopyOverlay@12  100542d0     nivision:nivision.dll
 0002:000002d4       __imp__imaqThreshold@24    100542d4     nivision:nivision.dll
 0002:000002d8       __imp__imaqMakeRotatedRectFromRect@16 100542d8     nivision:nivision.dll
 0002:000002dc       __imp__imaqMakePoint@8     100542dc     nivision:nivision.dll
 0002:000002e0       __imp__imaqCentroid@12     100542e0     nivision:nivision.dll
 0002:000002e4       __imp__imaqSetBorderSize@8 100542e4     nivision:nivision.dll
 0002:000002e8       __imp__imaqGrayMorphology@16 100542e8     nivision:nivision.dll
 0002:000002ec       __imp__imaqUnwrapImage@48  100542ec     nivision:nivision.dll
 0002:000002f0       __imp__imaqGetImageSize@12 100542f0     nivision:nivision.dll
 0002:000002f4       __imp__imaqMakeRect@16     100542f4     nivision:nivision.dll
 0002:000002f8       __imp__imaqImageToArray@28 100542f8     nivision:nivision.dll
 0002:000002fc       __imp__imaqOverlayLine@28  100542fc     nivision:nivision.dll
 0002:00000300       __imp__imaqHistogram@20    10054300     nivision:nivision.dll
 0002:00000304       __imp__imaqGetIntersection@36 10054304     nivision:nivision.dll
 0002:00000308       __imp__imaqGetAngle@36     10054308     nivision:nivision.dll
 0002:0000030c       __imp__imaqMakePointFloat@8 1005430c     nivision:nivision.dll
 0002:00000310       __imp__imaqDispose@4       10054310     nivision:nivision.dll
 0002:00000314       __imp__imaqCreateImage@8   10054314     nivision:nivision.dll
 0002:00000318       __imp__imaqDuplicate@8     10054318     nivision:nivision.dll
 0002:0000031c       __imp__imaqAddLineContour@20 1005431c     nivision:nivision.dll
 0002:00000320       __imp__imaqGetPixel@16     10054320     nivision:nivision.dll
 0002:00000324       \177nivision_NULL_THUNK_DATA 10054324     nivision:nivision.dll
 0002:00000328       ___xc_a                    10054328     MSVCRT:cinitexe.obj
 0002:0000033c       ___xc_z                    1005433c     MSVCRT:cinitexe.obj
 0002:00000340       ___xi_a                    10054340     MSVCRT:cinitexe.obj
 0002:0000034c       ___xi_z                    1005434c     MSVCRT:cinitexe.obj
 0002:00000370       ??_7bad_alloc@std@@6B@     10054370     DataStat.obj
 0002:00000378       __real@0000000000000000    10054378     DataStat.obj
 0002:00000384       ??_7logic_error@std@@6B@   10054384     DataStat.obj
 0002:00000390       ??_7length_error@std@@6B@  10054390     DataStat.obj
 0002:00000398       ??_C@_0BD@OLBABOEK@vector?$DMT?$DO?5too?5long?$AA@ 10054398     DataStat.obj
 0002:000003ac       ??_C@_04NOJCDH@?$CF02x?$AA@ 100543ac     encrypt.obj
 0002:000003b4       ??_C@_06ONLHGOBF@enmind?$AA@ 100543b4     encrypt.obj
 0002:000003bc       ??_C@_0BF@DJFPALMK@UuidCreateSequential?$AA@ 100543bc     encrypt.obj
 0002:000003d4       ??_C@_1O@FOICLOAL@?$AAR?$AAP?$AAC?$AAR?$AAT?$AA4?$AA?$AA@ 100543d4     encrypt.obj
 0002:000003e8       __real@3ff0000000000000    100543e8     encrypt.obj
 0002:000003f0       __real@3f800000            100543f0     encrypt.obj
 0002:000003f4       __real@41800000            100543f4     encrypt.obj
 0002:000003f8       ??_C@_04OCCELDNI@?$CF04d?$AA@ 100543f8     encrypt.obj
 0002:00000878       ??_C@_03JDBMKGOC@?$CL?$CFs?$AA@ 10054878     IACalcAngle.obj
 0002:0000087c       ??_C@_03LGHHPJDO@?9?$CFs?$AA@ 1005487c     IACalcAngle.obj
 0002:00000880       __real@4066800000000000    10054880     IACalcAngle.obj
 0002:00000888       __real@400921fb60000000    10054888     IACalcAngle.obj
 0002:00000890       __real@461c3f9a            10054890     IACalcAngle.obj
 0002:00000898       ??_7?$RegisterDisposeBase@PAUStraightEdgeReport_struct@@@@6B@ 10054898     IACalcAngle.obj
 0002:0000089c       __real@ff7fffff            1005489c     IACalcAngle.obj
 0002:000008a0       __real@7f7fffff            100548a0     IACalcAngle.obj
 0002:000008a8       __real@3fe0000000000000    100548a8     IACalcAngle.obj
 0002:000008b0       ??_C@_0BC@PLIABBFM@find_edge_annulus?$AA@ 100548b0     IACalcAngle.obj
 0002:000008c8       ??_7RegisterDisposeSER@@6B@ 100548c8     IACalcAngle.obj
 0002:000008cc       ??_C@_09NOCBDNJA@get_angle?$AA@ 100548cc     IACalcAngle.obj
 0002:000008d8       ??_C@_0BC@GIOCDKKM@IA_Calc_FindAngle?$AA@ 100548d8     IACalcAngle.obj
 0002:00000b24       ??_7?$RegisterDisposeBase@PAX@@6B@ 10054b24     IACalcArea.obj
 0002:00000b2c       ??_7RegisterDispose@@6B@   10054b2c     IACalcArea.obj
 0002:00000b30       __real@00000000            10054b30     IACalcArea.obj
 0002:00000b34       __real@437f0000            10054b34     IACalcArea.obj
 0002:00000d78       ??_C@_09MNGEDHDA@SpeckBits?$AA@ 10054d78     IACalcCrack.obj
 0002:00000d84       ??_C@_06KHOKADBJ@Shadow?$AA@ 10054d84     IACalcCrack.obj
 0002:00000d8c       ??_C@_06KDBJIBBE@Kernel?$AA@ 10054d8c     IACalcCrack.obj
 0002:00000d94       ??_C@_04KNHNDFFB@Diff?$AA@ 10054d94     IACalcCrack.obj
 0002:00000d9c       __real@c61c3c00            10054d9c     IACalcCrack.obj
 0002:00000da0       __real@461c3c00            10054da0     IACalcCrack.obj
 0002:00000db0       __mask@@AbsDouble@         10054db0     IACalcCrack.obj
 0002:00000dc0       ??_C@_05DAJKDKPK@Judge?$AA@ 10054dc0     IACalcCrack.obj
 0002:00000dcc       ??_7?$auto_array@M@@6B@    10054dcc     IACalcCrack.obj
 0002:00000dd0       ??_C@_0BC@DAIONEEL@IA_Calc_FindCrack?$AA@ 10054dd0     IACalcCrack.obj
 0002:00001018       __real@4094000000000000    10055018     IACalcCushion.obj
 0002:00001020       __real@4014000000000000    10055020     IACalcCushion.obj
 0002:00001028       ??_C@_0BA@FPPGHAIF@IA_Calc_Cushion?$AA@ 10055028     IACalcCushion.obj
 0002:00001278       ??_C@_0BF@OEFJHGPM@IA_Calc_FindDiameter?$AA@ 10055278     IACalcDiameter.obj
 0002:00001290       __real@c7efffffe0000000    10055290     IACalcDiameter.obj
 0002:000014cc       ??_C@_19JJMDOHGH@h?$MAmKY1?$IN?$CF?$AA?$AA@ 100554cc     IACalcDistance.obj
 0002:000014d8       __real@4056800000000000    100554d8     IACalcDistance.obj
 0002:000014e0       __real@80000000            100554e0     IACalcDistance.obj
 0002:000014e4       __real@44480000            100554e4     IACalcDistance.obj
 0002:000014e8       ??_C@_1BA@GODOLKFK@?$AAC?$AAL?$AAA?$AAM?$AAPY1?$IN?$CF?$AA?$AA@ 100554e8     IACalcDistance.obj
 0002:000014f8       __real@bf800000            100554f8     IACalcDistance.obj
 0002:00001730       ??_C@_0BB@NFHIBAEF@IA_Calc_FillArea?$AA@ 10055730     IACalcFillArea.obj
 0002:00001978       ??_C@_0BB@BEBENCMP@IA_Calc_FindHead?$AA@ 10055978     IACalcHead.obj
 0002:00001bc4       ??_7?$RegisterDisposeBase@PAUCircularEdgeReport_struct@@@@6B@ 10055bc4     IACalcHexagon.obj
 0002:00001bcc       ??_7RegisterDisposeCER@@6B@ 10055bcc     IACalcHexagon.obj
 0002:00001bd4       ??_7?$auto_array@UPointFloat_struct@@@@6B@ 10055bd4     IACalcHexagon.obj
 0002:00001bdc       ??_7?$auto_array@PAUBestLine_struct@@@@6B@ 10055bdc     IACalcHexagon.obj
 0002:00001be0       __real@4479c000            10055be0     IACalcHexagon.obj
 0002:00001be4       ??_C@_1BA@HAADDIBC@?$IP?$LJPOy?$LL?$IL?o?$FN?n?$IP?GY?8?$AA?$AA@ 10055be4     IACalcHexagon.obj
 0002:00001bf4       __real@40400000            10055bf4     IACalcHexagon.obj
 0002:00001bf8       __real@43fa0000            10055bf8     IACalcHexagon.obj
 0002:00001c00       __real@4018000000000000    10055c00     IACalcHexagon.obj
 0002:00001c08       __real@c7c34f80            10055c08     IACalcHexagon.obj
 0002:00001c0c       __real@40000000            10055c0c     IACalcHexagon.obj
 0002:00001c10       ??_C@_0BE@MBBKHLCE@IA_Calc_FindHexagon?$AA@ 10055c10     IACalcHexagon.obj
 0002:00001e58       __real@497423fe            10055e58     IACalcMarking.obj
 0002:00001e5c       ??_C@_0BE@KGEBMMNJ@IA_Calc_FindMarking?$AA@ 10055e5c     IACalcMarking.obj
 0002:000022d8       __real@4059000000000000    100562d8     IACAlcNode.obj
 0002:000022e0       __real@3e80000000000000    100562e0     IACAlcNode.obj
 0002:000022e8       __real@48960000            100562e8     IACAlcNode.obj
 0002:000022ec       ??_C@_0BB@OLDJDEKB@IA_Calc_FindNode?$AA@ 100562ec     IACAlcNode.obj
 0002:00002778       __real@4046800000000000    10056778     IACalcSquare.obj
 0002:00002780       __real@4000000000000000    10056780     IACalcSquare.obj
 0002:00002788       __real@42c80000            10056788     IACalcSquare.obj
 0002:00002790       __real@4008000000000000    10056790     IACalcSquare.obj
 0002:00002798       ??_C@_0BD@DEGAAGHI@IA_Calc_FindSquare?$AA@ 10056798     IACalcSquare.obj
 0002:000029e0       ??_C@_0BF@IHBFKGBF@IA_Calc_FindStarving?$AA@ 100569e0     IACalcStarving.obj
 0002:00002c38       __real@400921fb54442d18    10056c38     IACalcTeeth.obj
 0002:00002c40       __real@3fe999999999999a    10056c40     IACalcTeeth.obj
 0002:00002c48       __real@4064000000000000    10056c48     IACalcTeeth.obj
 0002:00002c50       __real@4479f99a            10056c50     IACalcTeeth.obj
 0002:00002c54       __real@3727c5ac            10056c54     IACalcTeeth.obj
 0002:00002c58       ??_C@_0BG@GINLONMA@get_points_interested?$AA@ 10056c58     IACalcTeeth.obj
 0002:00002c70       __real@403e000000000000    10056c70     IACalcTeeth.obj
 0002:00002c78       __real@405e000000000000    10056c78     IACalcTeeth.obj
 0002:00002c80       ??_C@_0BA@JFHCODHL@find_top_points?$AA@ 10056c80     IACalcTeeth.obj
 0002:00002c90       __real@3fe4c8b440000000    10056c90     IACalcTeeth.obj
 0002:00002c98       __real@4f800000            10056c98     IACalcTeeth.obj
 0002:00002ca0       __real@4024000000000000    10056ca0     IACalcTeeth.obj
 0002:00002ca8       __real@8000000000000000    10056ca8     IACalcTeeth.obj
 0002:00002cb0       __real@402e000000000000    10056cb0     IACalcTeeth.obj
 0002:00002cb8       __real@3c23d70a            10056cb8     IACalcTeeth.obj
 0002:00002cbc       __real@c2340000            10056cbc     IACalcTeeth.obj
 0002:00002cc0       __real@42340000            10056cc0     IACalcTeeth.obj
 0002:00002cc4       __real@42b40000            10056cc4     IACalcTeeth.obj
 0002:00002cc8       ??_C@_0BC@EBLLNMJL@IA_Calc_FindTeeth?$AA@ 10056cc8     IACalcTeeth.obj
 0002:00002f20       __real@47c34f80            10056f20     IACalcThreadDamage.obj
 0002:00002f28       ??_7?$auto_array@Upoint@@@@6B@ 10056f28     IACalcThreadDamage.obj
 0002:00002f2c       __real@41200000            10056f2c     IACalcThreadDamage.obj
 0002:00002f30       ??_C@_0BF@IBNKMNJ@IA_Calc_ThreadDamage?$AA@ 10056f30     IACalcThreadDamage.obj
 0002:0000317c       ??_C@_0BL@NPGELLKJ@IA_Calc_FindThreadLocating?$AA@ 1005717c     IACalcThreadLocating.obj
 0002:000033cc       ??_C@_05MPFIAJAP@Arial?$AA@ 100573cc     IACalcThreads.obj
 0002:000033d4       ??_C@_05GBNOBMHE@?$CF6?41f?$AA@ 100573d4     IACalcThreads.obj
 0002:000033dc       ??_C@_0BA@CKMAAJLP@IA_Calc_Threads?$AA@ 100573dc     IACalcThreads.obj
 0002:00003630       __real@40c387f340000000    10057630     IAFindShape.obj
 0002:00003638       __real@408c200000000000    10057638     IAFindShape.obj
 0002:00003640       __real@c066800000000000    10057640     IAFindShape.obj
 0002:00003648       __real@4020000000000000    10057648     IAFindShape.obj
 0002:00003650       __real@4123880000000000    10057650     IAFindShape.obj
 0002:00003658       __real@4076800000000000    10057658     IAFindShape.obj
 0002:00003660       __real@3f000000            10057660     IAFindShape.obj
 0002:00003664       ??_C@_0L@PPGDHEMM@find_shape?$AA@ 10057664     IAFindShape.obj
 0002:00003670       __real@43b40000            10057670     IAFindShape.obj
 0002:00003674       __real@43340000            10057674     IAFindShape.obj
 0002:00003678       __real@405cc00000000000    10057678     IAFindShape.obj
 0002:00003680       __real@404b800000000000    10057680     IAFindShape.obj
 0002:00003688       __real@3ff0ccccc0000000    10057688     IAFindShape.obj
 0002:00003690       __real@3ff3333340000000    10057690     IAFindShape.obj
 0002:00003698       __real@3f847ae147ae147b    10057698     IAFindShape.obj
 0002:000036a0       __real@407e000000000000    100576a0     IAFindShape.obj
 0002:000036a8       ??_C@_0BC@JJOLGJFE@IA_Calc_FindShape?$AA@ 100576a8     IAFindShape.obj
 0002:000038f0       ??_C@_0O@JBEGGJHI@IA_ShowWindow?$AA@ 100578f0     IAMain.obj
 0002:00003900       ??_C@_07PDLIGOGI@IA_Free?$AA@ 10057900     IAMain.obj
 0002:00003908       ??_C@_0BI@IMDOOPDJ@paremeter?5_cb?$DN?$CFp?0?5pl?$DN?$CFp?$AA@ 10057908     IAMain.obj
 0002:00003920       ??_C@_0O@NDCIDNIO@IA_Initialize?$AA@ 10057920     IAMain.obj
 0002:00003930       ??_C@_0P@JNHDKHFI@IA_SetupWindow?$AA@ 10057930     IAMain.obj
 0002:00003940       ??_C@_0N@NNMDJAHH@IA_ReadImage?$AA@ 10057940     IAMain.obj
 0002:00003950       ??_C@_0L@JLGDKHDO@save_image?$AA@ 10057950     IAMain.obj
 0002:0000395c       ??_C@_0O@EIFGII@restore_image?$AA@ 1005795c     IAMain.obj
 0002:0000396c       ??_C@_0N@DGJJDMIE@IA_CopyImage?$AA@ 1005796c     IAMain.obj
 0002:0000397c       ??_C@_0L@IBLHHDMG@IA_Refresh?$AA@ 1005797c     IAMain.obj
 0002:00003988       ??_C@_0L@NLFMFOJ@IA_GetZoom?$AA@ 10057988     IAMain.obj
 0002:00003994       ??_C@_0L@PFEEPKDI@IA_SetZoom?$AA@ 10057994     IAMain.obj
 0002:000039a0       ??_C@_0BA@DCGHIEJE@IA_OverlayClear?$AA@ 100579a0     IAMain.obj
 0002:000039b0       ??_C@_08JOPFJIPE@GetColor?$AA@ 100579b0     IAMain.obj
 0002:000039bc       ??_C@_0BD@FIEPPFEJ@IA_OverlayDrawLine?$AA@ 100579bc     IAMain.obj
 0002:000039d0       ??_C@_0BD@JHLGKGA@IA_OverlayDrawText?$AA@ 100579d0     IAMain.obj
 0002:000039e4       ??_C@_0BE@KAMLEOED@IA_OverlayDrawText2?$AA@ 100579e4     IAMain.obj
 0002:000039f8       ??_C@_0BC@KJHAIKAI@copy_overlay_from?$AA@ 100579f8     IAMain.obj
 0002:00003a0c       ??_C@_0BA@GKHPPJGG@IA_GetLastError?$AA@ 10057a0c     IAMain.obj
 0002:00003a1c       ??_C@_0O@NBMFDKHE@IA_Screenshot?$AA@ 10057a1c     IAMain.obj
 0002:00003a2c       ??_C@_0BG@HNNHEDKN@IA_Screenshot_Display?$AA@ 10057a2c     IAMain.obj
 0002:00003c78       __real@3fd6666666666666    10057c78     NIMachineVision.obj
 0002:00003c80       __real@3fd0000000000000    10057c80     NIMachineVision.obj
 0002:00003c88       __real@bff0000000000000    10057c88     NIMachineVision.obj
 0002:00003c90       __real@3ff8000000000000    10057c90     NIMachineVision.obj
 0002:00003c98       __real@44778000            10057c98     NIMachineVision.obj
 0002:00003ef0       __real@bfe0000000000000    10057ef0     NIPoints.obj
 0002:00004130       __real@3cb0000000000000    10058130     polygon_moments.obj
 0002:00004138       __real@bf91111111111111    10058138     polygon_moments.obj
 0002:00004140       __real@bfa999999999999a    10058140     polygon_moments.obj
 0002:00004148       __real@bfa5555555555555    10058148     polygon_moments.obj
 0002:00004150       __real@bfb5555555555555    10058150     polygon_moments.obj
 0002:00004158       __real@bfc5555555555555    10058158     polygon_moments.obj
 0002:00004160       __real@3f91111111111111    10058160     polygon_moments.obj
 0002:00004168       __real@3fa999999999999a    10058168     polygon_moments.obj
 0002:00004170       __real@3fa5555555555555    10058170     polygon_moments.obj
 0002:00004178       __real@3fb5555555555555    10058178     polygon_moments.obj
 0002:00004180       __real@3fc5555555555555    10058180     polygon_moments.obj
 0002:000043c8       ??_C@_0BB@MOGOBHAF@list?$DMT?$DO?5too?5long?$AA@ 100583c8     PolygonNIFloat.obj
 0002:000043dc       ??_C@_0P@GHFPNOJB@bad?5allocation?$AA@ 100583dc     stdafx.obj
 0002:000043ec       ??_C@_0P@MNCINKM@normalize_rect?$AA@ 100583ec     sub_image.obj
 0002:000043fc       ??_C@_0P@NLHHLNJI@sub_image?3?3get?$AA@ 100583fc     sub_image.obj
 0002:00004410       ??_7sub_image@@6B@         10058410     sub_image.obj
 0002:00004648       __real@3fb99999a0000000    10058648     tools_ni.obj
 0002:00004888       ??_7type_info@@6B@         10058888     MSVCRT:ti_inst.obj
 0002:0000488c       __pDefaultRawDllMain       1005888c     MSVCRT:crtdll.obj
 0002:00004990       __real@406fe00000000000    10058990     cvblobslib:blob.obj
 0002:00004998       __real@404ca5dc1a63c1f8    10058998     cvblobslib:blob.obj
 0002:000049a0       __real@4010000000000000    100589a0     cvblobslib:blob.obj
 0002:00004b98       ??_7CBlobResult@@6B@       10058b98     cvblobslib:BlobResult.obj
 0002:00004ba0       ??_7CBlobGetExterior@@6B@  10058ba0     cvblobslib:BlobResult.obj
 0002:00004bac       ??_C@_0BB@IIPFCAHC@CBlobGetExterior?$AA@ 10058bac     cvblobslib:BlobResult.obj
 0002:00004bc4       ??_7COperadorBlob@@6B@     10058bc4     cvblobslib:BlobResult.obj
 0002:00004bd4       ??_7CBlobGetExternPerimeter@@6B@ 10058bd4     cvblobslib:BlobResult.obj
 0002:00004be0       ??_C@_0BI@OKLDIFF@CBlobGetExternPerimeter?$AA@ 10058be0     cvblobslib:BlobResult.obj
 0002:00004bfc       ??_7CBlobGetHullPerimeter@@6B@ 10058bfc     cvblobslib:BlobResult.obj
 0002:00004c08       ??_C@_0BG@JPPBAHLB@CBlobGetHullPerimeter?$AA@ 10058c08     cvblobslib:BlobResult.obj
 0002:00004c24       ??_7CBlobGetArea@@6B@      10058c24     cvblobslib:BlobResult.obj
 0002:00004c30       ??_C@_0N@NIBJDCPF@CBlobGetArea?$AA@ 10058c30     cvblobslib:BlobResult.obj
 0002:00004c44       ??_7CBlobGetPerimeter@@6B@ 10058c44     cvblobslib:BlobResult.obj
 0002:00004c50       ??_C@_0BC@JHEMEKBJ@CBlobGetPerimeter?$AA@ 10058c50     cvblobslib:BlobResult.obj
 0002:00004c68       ??_7CBlobGetCompactness@@6B@ 10058c68     cvblobslib:BlobResult.obj
 0002:00004c74       ??_C@_0BE@JOCCFNGD@CBlobGetCompactness?$AA@ 10058c74     cvblobslib:BlobResult.obj
 0002:00004c8c       ??_7CBlobGetLength@@6B@    10058c8c     cvblobslib:BlobResult.obj
 0002:00004c98       ??_C@_0P@HCHPIAGM@CBlobGetLength?$AA@ 10058c98     cvblobslib:BlobResult.obj
 0002:00004fd0       __real@41dfffffffc00000    10058fd0     cvblobslib:BlobOperators.obj
 0002:00004fd8       __real@c1e0000000000000    10058fd8     cvblobslib:BlobOperators.obj
 0002:00004fe0       __real@4030000000000000    10058fe0     cvblobslib:BlobOperators.obj
 0002:00004fe8       __real@402921fb54442d18    10058fe8     cvblobslib:BlobOperators.obj
 0002:00004ff4       ??_7CBlobGetXCenter@@6B@   10058ff4     cvblobslib:BlobOperators.obj
 0002:00005000       ??_C@_0BA@GCOMHLBB@CBlobGetXCenter?$AA@ 10059000     cvblobslib:BlobOperators.obj
 0002:00005014       ??_7CBlobGetYCenter@@6B@   10059014     cvblobslib:BlobOperators.obj
 0002:00005020       ??_C@_0BA@KOEGHLIP@CBlobGetYCenter?$AA@ 10059020     cvblobslib:BlobOperators.obj
 0002:00005030       ??_C@_00CNPNBAHC@?$AA@     10059030     cxcore210:cxarray.obj
 0002:00005034       ??_C@_04KICLEKHI@GRAY?$AA@ 10059034     cxcore210:cxarray.obj
 0002:0000503c       ??_C@_03ICFFBAI@RGB?$AA@   1005903c     cxcore210:cxarray.obj
 0002:00005040       ??_C@_03BCPOBEMG@BGR?$AA@  10059040     cxcore210:cxarray.obj
 0002:00005044       ??_C@_04JLHHOHNF@BGRA?$AA@ 10059044     cxcore210:cxarray.obj
 0002:00005050       ??_7Exception@cv@@6B@      10059050     cxcore210:cxarray.obj
 0002:00005058       ??_C@_0BH@IILJIDMP@?$CFs?3?$CFd?3?5error?3?5?$CI?$CFd?$CJ?5?$CFs?6?$AA@ 10059058     cxcore210:cxarray.obj
 0002:00005070       ??_C@_0CG@OCENGNG@?$CFs?3?$CFd?3?5error?3?5?$CI?$CFd?$CJ?5?$CFs?5in?5functio@ 10059070     cxcore210:cxarray.obj
 0002:00005098       ??_C@_0O@IDODPJCC@?4?2cxarray?4cpp?$AA@ 10059098     cxcore210:cxarray.obj
 0002:000050a8       ??_C@_0BK@CJPNENJH@Non?9positive?5cols?5or?5rows?$AA@ 100590a8     cxcore210:cxarray.obj
 0002:000050c4       ??_C@_0BG@DJKOKDNB@NULL?5iterator?5pointer?$AA@ 100590c4     cxcore210:cxarray.obj
 0002:000050dc       ??_C@_0CH@CGECCLCK@unrecognized?5or?5unsupported?5arra@ 100590dc     cxcore210:cxarray.obj
 0002:00005104       ??_C@_0BM@EHPAMAOA@Too?5big?5buffer?5is?5allocated?$AA@ 10059104     cxcore210:cxarray.obj
 0002:00005120       ??_C@_0BK@INEJBOFL@Data?5is?5already?5allocated?$AA@ 10059120     cxcore210:cxarray.obj
 0002:0000513c       ??_C@_0CH@EBCPHFAG@Unrecognized?5or?5unsupported?5arra@ 1005913c     cxcore210:cxarray.obj
 0002:00005164       ??_C@_0CN@GPJEMHCO@Only?5continuous?5nD?5arrays?5are?5su@ 10059164     cxcore210:cxarray.obj
 0002:00005194       ??_C@_0CC@KDJCHEPI@Input?5array?5has?5NULL?5data?5pointe@ 10059194     cxcore210:cxarray.obj
 0002:000051b8       ??_C@_0CJ@OFLJLAMG@Pixel?5order?5should?5be?5used?5with?5@ 100591b8     cxcore210:cxarray.obj
 0002:000051e4       ??_C@_0DJ@ECOLHGOI@The?5image?5is?5interleaved?5and?5has@ 100591e4     cxcore210:cxarray.obj
 0002:00005220       ??_C@_0EA@IJECGHMA@Images?5with?5planar?5data?5layout?5s@ 10059220     cxcore210:cxarray.obj
 0002:00005260       ??_C@_0CA@MKIMFJBM@The?5image?5has?5NULL?5data?5pointer?$AA@ 10059260     cxcore210:cxarray.obj
 0002:00005280       ??_C@_0CB@BBGEECKN@The?5matrix?5has?5NULL?5data?5pointer@ 10059280     cxcore210:cxarray.obj
 0002:000052a4       ??_C@_0BN@HPMCFFBK@NULL?5array?5pointer?5is?5passed?$AA@ 100592a4     cxcore210:cxarray.obj
 0002:000052c4       ??_C@_0BA@BEHBJJBK@Bad?5input?5align?$AA@ 100592c4     cxcore210:cxarray.obj
 0002:000052d4       ??_C@_0BB@GKKEMAPJ@Bad?5input?5origin?$AA@ 100592d4     cxcore210:cxarray.obj
 0002:000052e8       ??_C@_0BD@PMBBCNLP@Unsupported?5format?$AA@ 100592e8     cxcore210:cxarray.obj
 0002:000052fc       ??_C@_0O@DMJNCBLI@Bad?5input?5roi?$AA@ 100592fc     cxcore210:cxarray.obj
 0002:0000530c       ??_C@_0BH@PGNPHPID@null?5pointer?5to?5header?$AA@ 1005930c     cxcore210:cxarray.obj
 0002:00005328       ??_C@_0LJ@BPLLBLGJ@rect?4width?5?$DO?$DN?50?5?$CG?$CG?5rect?4height?5?$DO@ 10059328     cxcore210:cxarray.obj
 0002:00005404       ??_C@_0CG@BDMEGCDK@c?3?2opencv2?41?2include?2opencv?2cxma@ 10059404     cxcore210:cxdatastructs.obj
 0002:0000542c       ??_C@_0BE@EGKJBJGB@?4?2cxdatastructs?4cpp?$AA@ 1005942c     cxcore210:cxdatastructs.obj
 0002:00005440       ??_C@_0DN@NBPBONPI@Storage?5block?5size?5is?5too?5small?5@ 10059440     cxcore210:cxdatastructs.obj
 0002:00005480       ??_C@_0GL@JKJMDLLF@Element?5size?5doesn?8t?5match?5to?5th@ 10059480     cxcore210:cxdatastructs.obj
 0002:000054ec       ??_C@_0CH@MPPNHFMH@number?5of?5removed?5elements?5is?5ne@ 100594ec     cxcore210:cxdatastructs.obj
 0002:00005514       ??_C@_0BG@BGLBHNEL@NULL?5sequence?5pointer?$AA@ 10059514     cxcore210:cxdatastructs.obj
 0002:0000552c       ??_C@_0BI@LOEBHBHM@Invalid?5sequence?5header?$AA@ 1005952c     cxcore210:cxdatastructs.obj
 0002:00005544       ??_C@_0CG@GLPDEIIC@requested?5size?5is?5negative?5or?5to@ 10059544     cxcore210:cxdatastructs.obj
 0002:0000556c       ??_C@_0CE@IDPBHLJA@Too?5large?5memory?5block?5is?5reques@ 1005956c     cxcore210:cxdatastructs.obj
 0002:00005590       ??_C@_0BF@CICANMOP@NULL?5storage?5pointer?$AA@ 10059590     cxcore210:cxdatastructs.obj
 0002:000055a8       ??_C@_0GP@KJBDBJBA@Specified?5element?5size?5doesn?8t?5m@ 100595a8     cxcore210:cxdatastructs.obj
 0002:00005618       ??_C@_0CG@KMBAPPLH@The?5sequence?5has?5NULL?5storage?5po@ 10059618     cxcore210:cxdatastructs.obj
 0002:00005640       ??_C@_0BD@NOGADIJK@Bad?5sequence?5slice?$AA@ 10059640     cxcore210:cxdatastructs.obj
 0002:00005654       ??_C@_0DN@ICGEFINK@seq?9?$DOtotal?5?$DO?50?5?$CG?$CG?5CV_ELEM_SIZE?$CIs@ 10059654     cxcore210:cxstat.obj
 0002:00005694       ??_C@_0CF@PICDCLJA@COI?5is?5not?5supported?5by?5the?5func@ 10059694     cxcore210:cxstat.obj
 0002:000056bc       ??_C@_0N@NMCAGMDC@?4?2cxstat?4cpp?$AA@ 100596bc     cxcore210:cxstat.obj
 0002:000056cc       ??_C@_0DN@JEMMEEDG@mask?4size?$CI?$CJ?5?$DN?$DN?5m?4size?$CI?$CJ?5?$CG?$CG?5mask?4@ 100596cc     cxcore210:cxstat.obj
 0002:0000570c       ??_C@_09BLMANCDI@func?5?$CB?$DN?50?$AA@ 1005970c     cxcore210:cxstat.obj
 0002:00005718       ??_C@_0BC@OLACKLDB@m?4channels?$CI?$CJ?5?$DM?$DN?54?$AA@ 10059718     cxcore210:cxstat.obj
 0002:0000572c       ??_C@_0BE@LMMJDJMB@0?5?$DM?5coi?5?$CG?$CG?5coi?5?$DM?$DN?54?$AA@ 1005972c     cxcore210:cxstat.obj
 0002:000071b0       ??_C@_07PNGLHFKM@cn?5?$DM?$DN?54?$AA@ 1005b1b0     cxcore210:cxdrawing.obj
 0002:000071b8       ??_C@_0CN@MCFBCJEE@c?3?2opencv2?41?2include?2opencv?2cxop@ 1005b1b8     cxcore210:cxdrawing.obj
 0002:000071e8       ??_C@_0CH@FOHLJCCB@connectivity?5?$DN?$DN?58?5?$HM?$HM?5connectivit@ 1005b1e8     cxcore210:cxdrawing.obj
 0002:00007210       ??_C@_0BA@PFFDGHEC@?4?2cxdrawing?4cpp?$AA@ 1005b210     cxcore210:cxdrawing.obj
 0002:00007220       ??_C@_0CE@BGPBLNGL@axes?4width?5?$DO?$DN?50?5?$CG?$CG?5axes?4height?5?$DO@ 1005b220     cxcore210:cxdrawing.obj
 0002:00007250       ??_C@_0DC@EOCJJAEH@0?5?$DM?$DN?5shift?5?$CG?$CG?5shift?5?$DM?$DN?5XY_SHIFT?5@ 1005b250     cxcore210:cxdrawing.obj
 0002:00007284       ??_C@_0BB@EHKHGPLC@thickness?5?$DM?$DN?5255?$AA@ 1005b284     cxcore210:cxdrawing.obj
 0002:00007298       ??_C@_0BG@NMNMPF@elem_type?5?$DN?$DN?5CV_32SC2?$AA@ 1005b298     cxcore210:cxdrawing.obj
 0002:000072b0       ??_C@_0DF@ODFMKOEF@src?4type?$CI?$CJ?5?$DN?$DN?5dst?4type?$CI?$CJ?5?$CG?$CG?5src?4@ 1005b2b0     cxcore210:cxcopy.obj
 0002:000072e8       ??_C@_0BN@JEFLEOCN@Failed?5to?5allocate?5?$CFlu?5bytes?$AA@ 1005b2e8     cxcore210:cxalloc.obj
 0002:00007308       ??_C@_0O@HMKCBJHI@?4?2cxalloc?4cpp?$AA@ 1005b308     cxcore210:cxalloc.obj
 0002:00007318       ??_C@_05NMHMKLEC@2?41?40?$AA@ 1005b318     cxcore210:cxsystem.obj
 0002:00007320       ??_C@_06MNJEDAEB@cxcore?$AA@ 1005b320     cxcore210:cxsystem.obj
 0002:00007328       ??_C@_0BD@HABCIBK@Unknown?5?$CFs?5code?5?$CFd?$AA@ 1005b328     cxcore210:cxsystem.obj
 0002:0000733c       ??_C@_05KKCIMGE@error?$AA@ 1005b33c     cxcore210:cxsystem.obj
 0002:00007344       ??_C@_06DJIHEMFI@status?$AA@ 1005b344     cxcore210:cxsystem.obj
 0002:0000734c       ??_C@_0BB@BPNGBFCE@Assertion?5failed?$AA@ 1005b34c     cxcore210:cxsystem.obj
 0002:00007360       ??_C@_0CA@BBLAIFCD@Memory?5block?5has?5been?5corrupted?$AA@ 1005b360     cxcore210:cxsystem.obj
 0002:00007380       ??_C@_0CI@CJNPFPBE@The?5function?1feature?5is?5not?5impl@ 1005b380     cxcore210:cxsystem.obj
 0002:000073a8       ??_C@_0O@JNMEFCGN@Parsing?5error?$AA@ 1005b3a8     cxcore210:cxsystem.obj
 0002:000073b8       ??_C@_0BK@HKJNNCGF@Bad?5type?5of?5mask?5argument?$AA@ 1005b3b8     cxcore210:cxsystem.obj
 0002:000073d4       ??_C@_0BO@JKGNLDIJ@Bad?5parameter?5of?5type?5CvPoint?$AA@ 1005b3d4     cxcore210:cxsystem.obj
 0002:000073f4       ??_C@_0CI@DOIIOGBD@Bad?5flag?5?$CIparameter?5or?5structure@ 1005b3f4     cxcore210:cxsystem.obj
 0002:0000741c       ??_C@_0BH@CEMJEPBN@Bad?5number?5of?5channels?$AA@ 1005b41c     cxcore210:cxsystem.obj
 0002:00007434       ??_C@_0BL@MFLCIFJJ@Input?5COI?5is?5not?5supported?$AA@ 1005b434     cxcore210:cxsystem.obj
 0002:00007450       ??_C@_0CN@POLIINAI@Unsupported?5format?5or?5combinatio@ 1005b450     cxcore210:cxsystem.obj
 0002:00007480       ??_C@_0CJ@FHKFABIC@One?5of?5arguments?8?5values?5is?5out?5@ 1005b480     cxcore210:cxsystem.obj
 0002:000074ac       ??_C@_0CG@BKDIOFDB@Sizes?5of?5input?5arguments?5do?5not?5@ 1005b4ac     cxcore210:cxsystem.obj
 0002:000074d4       ??_C@_0CI@PPCCBAHB@Formats?5of?5input?5arguments?5do?5no@ 1005b4d4     cxcore210:cxsystem.obj
 0002:000074fc       ??_C@_0CP@ODFFCANI@Input?5image?5depth?5is?5not?5support@ 1005b4fc     cxcore210:cxsystem.obj
 0002:0000752c       ??_C@_0BP@MNLOJLDK@Requested?5object?5was?5not?5found?$AA@ 1005b52c     cxcore210:cxsystem.obj
 0002:0000754c       ??_C@_0CD@BIJPNFPH@Inplace?5operation?5is?5not?5support@ 1005b54c     cxcore210:cxsystem.obj
 0002:00007570       ??_C@_0BE@JPBADIAG@Image?5step?5is?5wrong?$AA@ 1005b570     cxcore210:cxsystem.obj
 0002:00007584       ??_C@_0BJ@BDEMHNBC@Division?5by?5zero?5occured?$AA@ 1005b584     cxcore210:cxsystem.obj
 0002:000075a0       ??_C@_0N@HHPCKPHG@Null?5pointer?$AA@ 1005b5a0     cxcore210:cxsystem.obj
 0002:000075b0       ??_C@_0BO@BIAHFNHG@Incorrect?5size?5of?5input?5array?$AA@ 1005b5b0     cxcore210:cxsystem.obj
 0002:000075d0       ??_C@_0P@LHPPMPMF@Autotrace?5call?$AA@ 1005b5d0     cxcore210:cxsystem.obj
 0002:000075e0       ??_C@_0BL@GOIFFHNK@Iterations?5do?5not?5converge?$AA@ 1005b5e0     cxcore210:cxsystem.obj
 0002:000075fc       ??_C@_0N@OFCOFIJG@Bad?5argument?$AA@ 1005b5fc     cxcore210:cxsystem.obj
 0002:0000760c       ??_C@_0BE@PMJFEMCP@Insufficient?5memory?$AA@ 1005b60c     cxcore210:cxsystem.obj
 0002:00007620       ??_C@_0P@DHEBFDOP@Internal?5error?$AA@ 1005b620     cxcore210:cxsystem.obj
 0002:00007630       ??_C@_0BC@HIFLPMHA@Unspecified?5error?$AA@ 1005b630     cxcore210:cxsystem.obj
 0002:00007644       ??_C@_09NINHOMDB@Backtrace?$AA@ 1005b644     cxcore210:cxsystem.obj
 0002:00007650       ??_C@_08IKODGPEB@No?5Error?$AA@ 1005b650     cxcore210:cxsystem.obj
 0002:0000765c       ??_C@_03OFAPEBGM@?$CFs?6?$AA@ 1005b65c     cxcore210:cxsystem.obj
 0002:00007660       ??_C@_0CO@IBFNHGME@OpenCV?5Error?3?5?$CFs?5?$CI?$CFs?$CJ?5in?5?$CFs?0?5fil@ 1005b660     cxcore210:cxsystem.obj
 0002:00007690       ??_C@_0BB@DMECKOPP@unknown?5function?$AA@ 1005b690     cxcore210:cxsystem.obj
 0002:000076a4       ??_C@_0DJ@GAEKDBMM@module?5?$CB?$DN?50?5?$CG?$CG?5module?9?$DOname?5?$CB?$DN?50@ 1005b6a4     cxcore210:cxsystem.obj
 0002:000076e0       ??_C@_0P@BMPLJMOL@?4?2cxsystem?4cpp?$AA@ 1005b6e0     cxcore210:cxsystem.obj
 0002:000076f0       ??_C@_0JA@GDALOOFN@E?$GAUQUNTLRKPKNLMMLPLSMUOVQVSUTTUQ@ 1005b6f0     cxcore210:cxtables.obj
 0002:00007780       ??_C@_0II@CHPMAJIN@E?$FO?$FOF?2GXHUHQGOFMFKGJIJKLMNMPLQJQH@ 1005b780     cxcore210:cxtables.obj
 0002:00007808       ??_C@_0DK@MGNIOEPE@G?$FOSFKbLb?5SFTFLb?5YFQbRb?5YFZFRb?5KP@ 1005b808     cxcore210:cxtables.obj
 0002:00007844       ??_C@_0DL@DFBHJMC@KZSFQGPIPKQMSNUNWMXKXIWGUFSF?5SFP@ 1005b844     cxcore210:cxtables.obj
 0002:00007880       ??_C@_0CI@BIBPKDFL@H?2PFOGMM?5PGMM?5PFQGMM?5ZFYGWM?5ZGWM@ 1005b880     cxcore210:cxtables.obj
 0002:000078a8       ??_C@_0BF@IIEIMBCF@MWUFTGRM?5UGRM?5UFVGRM?$AA@ 1005b8a8     cxcore210:cxtables.obj
 0002:000078c0       ??_C@_0EH@KNFDJOOE@J?$FLTFSGUQTR?5TFTR?5TFUGSQTR?5OIPIXOY@ 1005b8c0     cxcore210:cxtables.obj
 0002:00007908       ??_C@_0DO@HJKGPJIN@JZSBUEVHWLWQVUTYR?2O_LaJb?5VHVPUUS@ 1005b908     cxcore210:cxtables.obj
 0002:00007948       ??_C@_0DO@PHOMGJEM@JZZBXCUERHPKNOMSMXN?2O_Qb?5SHQKOON@ 1005b948     cxcore210:cxtables.obj
 0002:00007988       ??_C@_0BA@KLKGGDPG@G?$FO_BEbFb?5_B?$GABFb?$AA@ 1005b988     cxcore210:cxtables.obj
 0002:00007998       ??_C@_0GF@CALKNGBH@H?$FNTBL_?5YBQ_?5ZKZJYJYL?$FLL?$FLJZHYGVFRF@ 1005b998     cxcore210:cxtables.obj
 0002:00007a00       ??_C@_0IM@MEBJMKGI@E_?2O?2N?$FLN?$FLP?$FNP?$FNN?2M?$FLMYNWPRXPZN?$FLK?$FLHZ@ 1005ba00     cxcore210:cxtables.obj
 0002:00007a8c       ??_C@_0CL@GFJDCKOD@MXVIUITHTGUFVFWGWIVKULSM?5UGUHVHV@ 1005ba8c     cxcore210:cxtables.obj
 0002:00007ab8       ??_C@_0CL@GHLGCICO@MXWFUGTHSJSLTMUMVLVKUJTJ?5UGTITJ?5@ 1005bab8     cxcore210:cxtables.obj
 0002:00007ae8       ??_C@_0HC@PFANGOJP@H?$FNOKOJPJPLNLNJOHPGSFWFZG?$FLI?$FLKZMYN@ 1005bae8     cxcore210:cxtables.obj
 0002:00007b60       ??_C@_0EA@FEAECKDP@MXVFUFTGRT?5VGUGRT?5VGVHRT?5VFWGWHR@ 1005bb60     cxcore210:cxtables.obj
 0002:00007ba0       ??_C@_0EJ@DFBKPEII@MXSMRNROSPTPUOUNTMSM?5SNSOTOTNSN?5@ 1005bba0     cxcore210:cxtables.obj
 0002:00007bec       ??_C@_0DO@IBJMBCPB@MXSMRNROSPTPUOUNTMSM?5SNSOTOTNSN?5@ 1005bbec     cxcore210:cxtables.obj
 0002:00007c2c       ??_C@_0CL@JNLMEKIO@MXQ?$FLP?$FLOZOYPXQXRYR?$FLQ?$FNP?$FON_?5PYPZQZQ@ 1005bc2c     cxcore210:cxtables.obj
 0002:00007c58       ??_C@_0CA@BGCABHBL@MXPXOYOZP?$FLQ?$FLRZRYQXPX?5PYPZQZQYPY?$AA@ 1005bc58     cxcore210:cxtables.obj
 0002:00007c78       ??_C@_0HH@BJMLGOK@H?$FNXNWPVQTRQROQNPMNMKNIPGSFVFXGYH@ 1005bc78     cxcore210:cxtables.obj
 0002:00007cf0       ??_C@_0MB@MIPHMKBG@H?$FNSFPGOHNJNMOOQPTPWOYNZLZIYGWFSF@ 1005bcf0     cxcore210:cxtables.obj
 0002:00007db8       ??_C@_0EJ@NMPIEKNB@H?$FNNFLL?5?$FLFZIXLTQRTQWP?$FL?5RSPWO?$FL?5XLR@ 1005bdb8     cxcore210:cxtables.obj
 0002:00007e08       ??_C@_0HH@LJELKIID@H?$FNYJYIXIXKZKZIYGWFTFQGOIMLLOKSKV@ 1005be08     cxcore210:cxtables.obj
 0002:00007e80       ??_C@_0FN@FINHEODL@H?$FNQFLP?5QF?$FLF?5QGYG?5PHUHYG?$FLF?5LPMOPN@ 1005be80     cxcore210:cxtables.obj
 0002:00007ee0       ??_C@_0BM@ELIIOIMO@H?$FNWJR?$FLT?$FL?5ZFXJS?$FL?5ZFT?$FL?5ZFJUZU?$AA@ 1005bee0     cxcore210:cxtables.obj
 0002:00007f00       ??_C@_0HM@NMLGNBOB@H?$FNOKOJPJPLNLNJOHPGSFVFYGZIZKYMXN@ 1005bf00     cxcore210:cxtables.obj
 0002:00007f80       ??_C@_0GE@GDDHCNFL@H?$FNOKOJPJPLNLNJOHPGSFVFYGZIZKYMWO@ 1005bf80     cxcore210:cxtables.obj
 0002:00007fe4       ??_C@_0CF@LNPLBGKL@H?$FNTJO?$FLQ?$FL?5WFUJP?$FL?5WFQ?$FL?5WFTIQKOL?5TJ@ 1005bfe4     cxcore210:cxtables.obj
 0002:00008010       ??_C@_0HB@KKFPJEOH@H?$FNTFQGOIMLLOKSKVLYMZO?$FLQ?$FLTZVXXUYR@ 1005c010     cxcore210:cxtables.obj
 0002:00008088       ??_C@_0IE@PCINFOCL@E?$GAVNULSKQKOLNMMOMRNTOUQVSVUUVS?5O@ 1005c088     cxcore210:cxtables.obj
 0002:00008110       ??_C@_0II@NJOHHFPF@F?$FO?$FLFYGVHSHPGNFLFJGIIIKKMMMOLPJPH@ 1005c110     cxcore210:cxtables.obj
 0002:00008198       ??_C@_0DF@EDBDIOGN@KYOBQDSGUKVPVTUYS?$FNQ?$GAOb?5SHTKUOUUT@ 1005c198     cxcore210:cxtables.obj
 0002:000081d0       ??_C@_0DF@JCECIOOO@KYUBSDQGOKNPNTOYQ?$FNS?$GAUb?5QHPKOOOUP@ 1005c1d0     cxcore210:cxtables.obj
 0002:00008208       ??_C@_0GN@CKFCEOIE@H?2PBP_?5TBT_?5XKXJWJWLYLYJXHWGTFPF@ 1005c208     cxcore210:cxtables.obj
 0002:00008278       ??_C@_0IO@FJFHJBGF@E_?$FLO?$FLNZNZP?2P?2N?$FLMZMYNXPVUTXRZP?$FLL?$FL@ 1005c278     cxcore210:cxtables.obj
 0002:00008308       ??_C@_0GE@LMBOLBKH@I?2MKMJNJNLLLLJMHNGPFTFWGXHYJYLXN@ 1005c308     cxcore210:cxtables.obj
 0002:00008370       ??_C@_0EA@ELANAKLM@MXRFQGQIRQ?5RFRTST?5RFSFST?5SFTGTIS@ 1005c370     cxcore210:cxtables.obj
 0002:000083b0       ??_C@_0IG@BCPJADGD@H?2MWMXNXNWMW?5WOVQURSSQSNRLPKMKLL@ 1005c3b0     cxcore210:cxtables.obj
 0002:00008438       ??_C@_0JG@BFHFHNMI@H?2PFMGLILLMNPOTOWNXLXIWGTFPF?5NGM@ 1005c438     cxcore210:cxtables.obj
 0002:000084d0       ??_C@_0FB@JBJCMIAL@H?2KFKL?5YFYIXLTQSSRWR?$FL?5SRRTQWQ?$FL?5X@ 1005c4d0     cxcore210:cxtables.obj
 0002:00008528       ??_C@_0IG@CNNHGNNG@H?2VIVJWJWIVI?5WHVHUIUJVKWKXJXIWGU@ 1005c528     cxcore210:cxtables.obj
 0002:000085b0       ??_C@_0GJ@DKHKPCDP@H?2MFKPMNPMSMVNXPYSYUXXVZS?$FLP?$FLMZLY@ 1005c5b0     cxcore210:cxtables.obj
 0002:0000861c       ??_C@_0DB@IOKJAEE@H?2SIS?$FL?5THTZ?5UFU?$FL?5UFJUZU?5P?$FLX?$FL?5SZQ@ 1005c61c     cxcore210:cxtables.obj
 0002:00008650       ??_C@_0JC@BCACNAIG@H?2LJLKMKMJLJ?5LIMINJNKMLLLKKKJLHM@ 1005c650     cxcore210:cxtables.obj
 0002:000086e8       ??_C@_0HH@MBLMDCEP@H?2LJLKMKMJLJ?5LIMINJNKMLLLKKKJLHM@ 1005c6e8     cxcore210:cxtables.obj
 0002:00008760       ??_C@_0DB@JLBNCALB@H?2QHQ?$FL?5RHRZ?5SFS?$FL?5SFPINJ?5M?$FLW?$FL?5QZO@ 1005c760     cxcore210:cxtables.obj
 0002:00008798       ??_C@_0GB@MLBPMHOD@H?2QFNGLJKOKRLWNZQ?$FLS?$FLVZXWYRYOXJVG@ 1005c798     cxcore210:cxtables.obj
 0002:00008800       ??_C@_0FA@HDPCMEJO@H?2TMVNXPYPYOWNTMPMMNLOKQKSLUNWPX@ 1005c800     cxcore210:cxtables.obj
 0002:00008850       ??_C@_0HB@FGNOAFLA@G?$FNPMMNKPJSJUKXMZP?$FLT?$FLWZYXZUZSYPWN@ 1005c850     cxcore210:cxtables.obj
 0002:000088c8       ??_C@_0GL@CJNBOJBP@H?2QFNGLJKOKRLWNZQ?$FLS?$FLVZXWYRYOXJVG@ 1005c8c8     cxcore210:cxtables.obj
 0002:00008938       ??_C@_0FF@CAPMNFN@I?$FLUMWNXOYOXNUMRMONMPLSLUMXOZR?$FLU?$FL@ 1005c938     cxcore210:cxtables.obj
 0002:00008990       ??_C@_0HD@KLJNGPIO@H?2WQVOUNSMQMNNLPKSKULXNZQ?$FLS?$FLVZWY@ 1005c990     cxcore210:cxtables.obj
 0002:00008a08       ??_C@_0EJ@LPMHPFH@H?2YMXOVQNWLYK?$FL?5XOOOMPLR?5VORNONNO@ 1005ca08     cxcore210:cxtables.obj
 0002:00008a58       ??_C@_0FO@IFIMNNDO@G?$FNHQIOKMMMNNOPOSMX?5NNNRMVMZ?5NPLU@ 1005ca58     cxcore210:cxtables.obj
 0002:00008ab8       ??_C@_0GD@BIJMACGF@G?$FNJQLNNMPMRNSPSR?5PMQNQRPVOXMZK?$FLI@ 1005cab8     cxcore210:cxtables.obj
 0002:00008b20       ??_C@_0FM@EINJLALL@CaDQEOGMIMJNKPKSIX?5JNJRIVIZ?5JPHU@ 1005cb20     cxcore210:cxtables.obj
 0002:00008b7c       ??_C@_0DJ@LLCHEBIB@H?2IQJOLMNMONPPPSNX?5ONORNVNZ?5OPMU@ 1005cb7c     cxcore210:cxtables.obj
 0002:00008bb8       ??_C@_0FA@BKPKNIFI@F?$FOGQHOJMLMMNNPNSLX?5MNMRLVLZ?5MPKU@ 1005cbb8     cxcore210:cxtables.obj
 0002:00008c08       ??_C@_0CM@NDDELBOJ@KYTFQQPUPXQZR?$FLT?$FLVYWW?5UFRQQUQZ?5TF@ 1005cc08     cxcore210:cxtables.obj
 0002:00008c38       ??_C@_0FL@PGOFOGHI@J?$FLXPXOWOWQYQYOXNUMRMONNONQOSQTTU@ 1005cc38     cxcore210:cxtables.obj
 0002:00008c94       ??_C@_0DK@HGIBBEOH@I?$FLJQKOMMOMPNQPQTO?$FL?5PNPTN?$FL?5PPOTM?$FL@ 1005cc94     cxcore210:cxtables.obj
 0002:00008cd0       ??_C@_0GJ@JIOCFFFJ@G?2WMQb?5XMRb?5WMYMSb?5UTUQTNRMPMMNK@ 1005ccd0     cxcore210:cxtables.obj
 0002:00008d40       ??_C@_0HL@CCHKGFEP@G?$FNHQIOKMMMNNOPOSNWKb?5NNNSMWJb?5NP@ 1005cd40     cxcore210:cxtables.obj
 0002:00008dc0       ??_C@_0FJ@LDBKLGAN@H?2QMNNLQKTKVLYMZP?$FLS?$FLVZXWYTYRXOWN@ 1005cdc0     cxcore210:cxtables.obj
 0002:00008e20       ??_C@_0FA@PEDCCDAA@F?$FOGQHOJMLMMNNPNSL?$FL?5MNMSK?$FL?5MPLTJ?$FL@ 1005ce20     cxcore210:cxtables.obj
 0002:00008e70       ??_C@_0HD@ECICOBF@?$EAcAQBODMFMGNHPHSF?$FL?5GNGSE?$FL?5GPFTD?$FL@ 1005ce70     cxcore210:cxtables.obj
 0002:00008ee4       ??_C@_0DB@FOLLGNF@LXTFQQPUPXQZR?$FLT?$FLVYWW?5UFRQQUQZ?5QF@ 1005cee4     cxcore210:cxtables.obj
 0002:00008f18       ??_C@_0FL@MABIEPCF@G?$FNOFI?$FLK?$FL?5PFJ?$FL?5LFQFK?$FL?5YOYNXNXPZPZ@ 1005cf18     cxcore210:cxtables.obj
 0002:00008f78       ??_C@_0FG@CFGFGPKB@KXUFUHWHWFUF?5VFVH?5UGWG?5MQNOPMRMS@ 1005cf78     cxcore210:cxtables.obj
 0002:00008fd0       ??_C@_0EC@NCKJINBB@KXTFTHVHVFTF?5UFUH?5TGVG?5LQMOOMQMR@ 1005cfd0     cxcore210:cxtables.obj
 0002:00009018       ??_C@_0EM@GIDAPBJF@G?$FNOFI?$FLK?$FL?5PFJ?$FL?5LFQFK?$FL?5MTOPQNSMUMW@ 1005d018     cxcore210:cxtables.obj
 0002:00009068       ??_C@_0GO@LIGJLNPA@H?$FNXMT?$FLS?$FOQaOb?5YMU?$FLS_?5XMZMV?$FLT_RaOb@ 1005d068     cxcore210:cxtables.obj
 0002:000090d8       ??_C@_0FI@KPPFEGNK@JZZHZGYGYI?$FLI?$FLGZFXFVGTISKRNQRO?$FLN?$FO@ 1005d0d8     cxcore210:cxtables.obj
 0002:00009130       ??_C@_0EB@ECBGGMGL@I?$FLMVQUTTWRXPWNUMRMONMQLTLVMYNZP?$FL@ 1005d130     cxcore210:cxtables.obj
 0002:00009178       ??_C@_0GO@FGMFBPDA@G?$FNYFVQUUUXVZW?$FLY?$FL?$FLY?2W?5ZFWQVUVZ?5VF@ 1005d178     cxcore210:cxtables.obj
 0002:000091e8       ??_C@_0ED@HJOINLCJ@I?$FLWQWPVPVRXRXPWNUMRMONMQLTLVMYNZ@ 1005d1e8     cxcore210:cxtables.obj
 0002:00009230       ??_C@_0GD@LIBCHECP@I?2PFNMMSMWNYOZQ?$FLS?$FLVZXWYTYRXOWNUM@ 1005d230     cxcore210:cxtables.obj
 0002:00009298       ??_C@_0GA@BAFICFLI@G?$FNWMUTUXVZW?$FLY?$FL?$FLY?2W?5XMVTVZ?5WMYMWT@ 1005d298     cxcore210:cxtables.obj
 0002:000092f8       ??_C@_0GK@LBKHNGEJ@F?$FONMLNJPISIWJYKZM?$FLO?$FLQZRYSWSTRSQT@ 1005d2f8     cxcore210:cxtables.obj
 0002:00009368       ??_C@_0GH@IHMJDEJK@F?$FNHNINJPJUKXMZP?$FLT?$FLVZXXYVZRZNYMXM@ 1005d368     cxcore210:cxtables.obj
 0002:000093d0       ??_C@_0EG@MDPCDCD@H?2LMMNNPT_VaXbZb?$FLa?5NOOPU_V?$GA?5INJM@ 1005d3d0     cxcore210:cxtables.obj
 0002:00009418       ??_C@_0HD@PKPCOEAA@G?$FNRQQNPMNMLNKOJRJUKXMZP?$FLT?$FLWZYXZU@ 1005d418     cxcore210:cxtables.obj
 0002:00009490       ??_C@_0EO@OFGKGAEB@G?2JMKNLPLUMXOZQ?$FLS?$FLUZWXXVYRYNXMWM@ 1005d490     cxcore210:cxtables.obj
 0002:000094e0       ??_C@_0DC@DKDMHIIH@H?2JQKOLNNMZM?5LONNYN?5JQKPMOZO?5ROQ@ 1005d4e0     cxcore210:cxtables.obj
 0002:00009518       ??_C@_0GH@JNDLIILC@G?$FNPMMNKPJSJUKXMZP?$FLR?$FLUZWXXUXSWPUN@ 1005d518     cxcore210:cxtables.obj
 0002:00009580       ??_C@_0FJ@EFPGCABF@G?2QMNNLPKTKb?5MPLTLa?5QMONNOMSMb?5M@ 1005d580     cxcore210:cxtables.obj
 0002:000095e0       ??_C@_0EG@BDIHENPJ@G?$FNIQJOKNMM?$FLM?5KOMNZN?5IQJPLO?$FLO?5OON@ 1005d5e0     cxcore210:cxtables.obj
 0002:00009628       ??_C@_0ID@DGOJGOHJ@JZPGSFRFPGOHOIPJSKVLWKVJSKPLNMMO@ 1005d628     cxcore210:cxtables.obj
 0002:000096b0       ??_C@_0EJ@NCLOMONB@G?$FNJMKNLPMTN?$FL?5KMLNMPNTOZ?5HPINJMLM@ 1005d6b0     cxcore210:cxtables.obj
 0002:00009700       ??_C@_0FA@IHEKNGOL@G?$FNKMKb?5LNLa?5MMMb?5VMVXWZX?$FLZ?$FL?$FLZ?2X?5@ 1005d700     cxcore210:cxtables.obj
 0002:00009750       ??_C@_0DG@HLEEOCIL@H?2JGKFMFOGQIXXYZZ?$FL?5OHPIWXXY?5MFNG@ 1005d750     cxcore210:cxtables.obj
 0002:00009788       ??_C@_0GJ@NKFOLMDH@G?$FNJMKNLPL?$FL?5KMLNMPMZ?5HPINJMLMMNNP@ 1005d788     cxcore210:cxtables.obj
 0002:000097f4       ??_C@_0DD@HHHFNECB@KZNMONPPPXQZS?$FLU?$FLWZXX?5OMPNQPQXRZ?5@ 1005d7f4     cxcore210:cxtables.obj
 0002:00009828       ??_C@_0HL@ECEEDDAD@F?$FNIMJNKPKTLWMYNZQ?$FLS?$FLVZWYXWYRYOXJ@ 1005d828     cxcore210:cxtables.obj
 0002:000098a8       ??_C@_0FA@KEIGHFPH@G?$FNJMKNLPL?$FL?5KMLNMPMZ?5HPINJMLMMNNP@ 1005d8a8     cxcore210:cxtables.obj
 0002:000098f8       ??_C@_0GF@PGPCMLBH@I?$FLQHRGRFQFPGPIQJTKXKYKYJXJUKSLPN@ 1005d8f8     cxcore210:cxtables.obj
 0002:00009960       ??_C@_0GA@OBMJPDFB@I?$FLSMUNVOWOVNSMQMMNLOLQMRQS?5SSQSM@ 1005d960     cxcore210:cxtables.obj
 0002:000099c0       ??_C@_0HF@LLPFPHH@H?2SMQMNNLPKSKULXNZQ?$FLS?$FLVZXXYUYSXP@ 1005d9c0     cxcore210:cxtables.obj
 0002:00009a38       ??_C@_0FO@DNLBBAKK@F?2HRINKMMMONPOQRRYSb?5IOKNMNOOPP?5@ 1005da38     cxcore210:cxtables.obj
 0002:00009a98       ??_C@_0IC@HMFIBAFI@G?2QFNGMHLJKNKb?5NHMJLNLa?5QFOGNIMN@ 1005da98     cxcore210:cxtables.obj
 0002:00009b20       ??_C@_0GH@LMPNFGHE@G?$FO?$FLMZQYTWXUZR?$FLP?$FLMZKXJUJSKPMNPMRM@ 1005db20     cxcore210:cxtables.obj
 0002:00009b88       ??_C@_0EH@DOAHIBJK@I?$FLVML?$FL?5WMM?$FL?5XMN?$FL?5XMLMLQ?5L?$FLX?$FLXW?5M@ 1005db88     cxcore210:cxtables.obj
 0002:00009bd0       ??_C@_0EI@LLKGJFDE@H?$FLLMR?$FL?5MMRY?5NMSY?5XNSYP_NaLbJbIaI@ 1005dbd0     cxcore210:cxtables.obj
 0002:00009c18       ??_C@_0FC@HDMFMPBO@H?2LMV?$FL?5MMW?$FL?5NMX?$FL?5WNMZ?5JMQM?5TMZM?5@ 1005dc18     cxcore210:cxtables.obj
 0002:00009c70       ??_C@_0EO@PJGFGBN@F?$FOJMN?$FL?5KMNX?5LMOX?5RMOXN?$FL?5RMV?$FL?5SMV@ 1005dc70     cxcore210:cxtables.obj
 0002:00009cc0       ??_C@_0DG@CDGACMBL@I?$FLLMR?$FL?5MMRY?5NMSY?5XNSYR?$FL?5JMQM?5TMZ@ 1005dcc0     cxcore210:cxtables.obj
 0002:00009cf8       ??_C@_0EO@MLIKGLKA@G?$FOLMLVMYNZP?$FLS?$FLUZVYWW?5MNMWNY?5IMNM@ 1005dcf8     cxcore210:cxtables.obj
 0002:00009d48       ??_C@_0CK@CPFNMDAG@KZPHPVQYRZT?$FLV?$FLXZYX?5QHQWRY?5PHRFRW@ 1005dd48     cxcore210:cxtables.obj
 0002:00009d78       ??_C@_0FD@DBLMCIHB@J?$FLWOXMXQWOVNTMPMNNMOMQNSPTUUWVXY@ 1005dd78     cxcore210:cxtables.obj
 0002:00009dd0       ??_C@_0EN@LDKILELD@IZNMN?$FL?5ONOZ?5KMPMP?$FL?5WOWNVNVPXPXNW@ 1005ddd0     cxcore210:cxtables.obj
 0002:00009e20       ??_C@_0GF@PPDBOPHJ@H?2VNVb?5WOWa?5UNWNXMXb?5VPUNSMQMNNL@ 1005de20     cxcore210:cxtables.obj
 0002:00009e88       ??_C@_0GN@GMFJPOOE@G?2LMLb?5MNMa?5IMNMNb?5NPONQMSMVNXPY@ 1005de88     cxcore210:cxtables.obj
 0002:00009ef8       ??_C@_0FJ@BFEKBCHE@H?2QMNNLPKSKULXNZQ?$FLS?$FLVZXXYUYSXPVN@ 1005def8     cxcore210:cxtables.obj
 0002:00009f58       ??_C@_0HC@DCGCPMGK@G?$FOLML?$FL?5MNMZ?5IMNMN?$FL?5NQOOPNRMUMWNX@ 1005df58     cxcore210:cxtables.obj
 0002:00009fd0       ??_C@_0KO@OPONKFDP@AcFMF?$FL?5GNGZ?5CMHMH?$FL?5HQIOJNLMOMQNR@ 1005dfd0     cxcore210:cxtables.obj
 0002:0000a080       ??_C@_0DG@BIDLLJPE@LXQFQ?$FL?5RGRZ?5NFSFS?$FL?5N?$FLV?$FL?5OFQG?5PFQ@ 1005e080     cxcore210:cxtables.obj
 0002:0000a0b8       ??_C@_0GI@KMHDKFNA@G?$FNLFL?$FL?5MGMZ?5IFNFN?$FL?5WNNW?5RSY?$FL?5RTX@ 1005e0b8     cxcore210:cxtables.obj
 0002:0000a120       ??_C@_0EM@FHADMFMG@KXRFRHTHTFRF?5SFSH?5RGTG?5RMR?$FOQaPb?5@ 1005e120     cxcore210:cxtables.obj
 0002:0000a170       ??_C@_0EL@BDGFOOCG@LXQFQHSHSFQF?5RFRH?5QGSG?5QMQ?$FL?5RNRZ@ 1005e170     cxcore210:cxtables.obj
 0002:0000a1c0       ??_C@_0HC@MCLMABEN@G?$FOLFL?$FL?5MGMZ?5IFNFN?$FL?5NQOOPNRMUMWNX@ 1005e1c0     cxcore210:cxtables.obj
 0002:0000a238       ??_C@_0KK@IODALHNJ@I?2XNYOZNYMXMVNUO?5QMONNOMQMSNUOVQ@ 1005e238     cxcore210:cxtables.obj
 0002:0000a2e8       ??_C@_0EJ@EBNGNMKE@KYWHWGVGVIXIXGWFTFRGQHPKP?$FL?5RHQKQ@ 1005e2e8     cxcore210:cxtables.obj
 0002:0000a338       ??_C@_0EP@GCKMDJMB@H?$FLMSXSXQWOVNSMQMNNLPKSKULXNZQ?$FLS?$FL@ 1005e338     cxcore210:cxtables.obj
 0002:0000a388       ??_C@_0GA@EDPGPNB@H?$FNVFV?$FL?$FL?$FL?5WGWZ?5SFXFX?$FL?5VPUNSMQMNNL@ 1005e388     cxcore210:cxtables.obj
 0002:0000a3e8       ??_C@_0ED@HHMEJNLG@H?$FLWQWPVPVRXRXPVNTMQMNNLPKSKULXNZ@ 1005e3e8     cxcore210:cxtables.obj
 0002:0000a430       ??_C@_0FI@ICLDKDBF@G?2LFL?$FLMZOZ?5MGMY?5IFNFNZ?5NPONQMSMV@ 1005e430     cxcore210:cxtables.obj
 0002:0000a488       ??_C@_0GI@PEADJFEK@I?$FNNPNOOOOQMQMONNPMTMVNWOXQXXYZZ?$FL@ 1005e488     cxcore210:cxtables.obj
 0002:0000a4f0       ??_C@_0CC@DHFMCFAM@H?2JFR?$FL?5KFRX?5LFSX?5JFZFR?$FL?5LGYG?5LHY@ 1005e4f0     cxcore210:cxtables.obj
 0002:0000a514       ??_C@_0DN@GPBMGMPL@G?$FNZFH?$FL?5?$FLFI?$FL?5?2FJ?$FL?5?2FNFLL?5H?$FLV?$FLXU?5O@ 1005e514     cxcore210:cxtables.obj
 0002:0000a558       ??_C@_0FI@HBNLCKMP@G?$FNMFQPN?$FL?5NFRPO?$FL?5OFSPP?$FL?5?2GSP?5KFRF@ 1005e558     cxcore210:cxtables.obj
 0002:0000a5b0       ??_C@_0FM@OJMBJJCJ@G?$FNNFT?$FL?5OFU?$FL?5PFV?$FL?5?$FLGIZ?5LFSF?5XF?$FOF?5@ 1005e5b0     cxcore210:cxtables.obj
 0002:0000a610       ??_C@_0GD@KCLDIHPM@E_MFMHKYK?$FL?5NGLX?5OFMW?5UFMWK?$FL?5UFUH@ 1005e610     cxcore210:cxtables.obj
 0002:0000a674       ??_C@_0DN@GBNJKLPM@H?2NFNHOYO?$FL?5OGPX?5PFQW?5?$FLGO?$FL?5LFSF?5X@ 1005e674     cxcore210:cxtables.obj
 0002:0000a6b8       ??_C@_0FH@IIGFHEEN@F_NFKQJUJXKZN?$FLR?$FLUZWXXU?2G?5OFLQKUK@ 1005e6b8     cxcore210:cxtables.obj
 0002:0000a710       ??_C@_0FM@EPBJCHOM@G?$FNTFN?$FL?5UFO?$FL?5VFP?$FL?5MFKL?5?$FNF?2L?5MF?$FNF?5@ 1005e710     cxcore210:cxtables.obj
 0002:0000a770       ??_C@_0FH@OOPBGLBJ@G?$FOZH?$FLH?2F?$FLL?$FLJZHYGVFRFOGMIMLNNPPVS@ 1005e770     cxcore210:cxtables.obj
 0002:0000a7c8       ??_C@_0IM@CBPNCCBE@F?$FOOFI?$FL?5PFJ?$FL?5QFK?$FL?5LFWFZG?$FLI?$FLKZNYOV@ 1005e7c8     cxcore210:cxtables.obj
 0002:0000a858       ??_C@_0JG@KFPNNFMN@G?$FNSFPGNILLKOJSJVKYLZN?$FLQ?$FLTZVXXUYR@ 1005e858     cxcore210:cxtables.obj
 0002:0000a8f0       ??_C@_0GL@EKNDFJBK@F?$FNOFI?$FL?5PFJ?$FL?5QFK?$FL?5LFXF?$FLG?2I?2K?$FLNYPU@ 1005e8f0     cxcore210:cxtables.obj
 0002:0000a960       ??_C@_0GN@PDPOBHJG@G?$FNSFPGNILLKOJSJVKYLZN?$FLQ?$FLTZVXXUYR@ 1005e960     cxcore210:cxtables.obj
 0002:0000a9d0       ??_C@_0EK@HMGKOMAO@F_OFIZ?5OFV?$FL?5PFVX?5QFWX?5?2GWXV?$FL?5LFQ@ 1005e9d0     cxcore210:cxtables.obj
 0002:0000aa20       ??_C@_0HE@HCELHEM@D?$GAMFGZ?5MGNYN?$FL?5NFOY?5OFPX?5?$FLFPXN?$FL?5?$FL@ 1005ea20     cxcore210:cxtables.obj
 0002:0000aa98       ??_C@_0FE@EAJLCEJC@H?2QFK?$FL?5RFL?$FL?5SFM?$FL?5NFVF?5H?$FLW?$FLYU?5OFR@ 1005ea98     cxcore210:cxtables.obj
 0002:0000aaf0       ??_C@_0HK@HGDNJKNL@F?$FNOFI?$FL?5PFJ?$FL?5QFK?$FL?5?2GMR?5QOU?$FL?5ROV?$FL?5@ 1005eaf0     cxcore210:cxtables.obj
 0002:0000ab70       ??_C@_0FH@KBDCKABN@I?2WFRWQYO?$FL?5XFTSSVRX?5YFUSSXQZO?$FLM?$FL@ 1005eb70     cxcore210:cxtables.obj
 0002:0000abc8       ??_C@_0ED@PBONBOJO@KYTFN?$FL?5UFO?$FL?5VFP?$FL?5QFYF?5K?$FLS?$FL?5RFUG?5@ 1005ebc8     cxcore210:cxtables.obj
 0002:0000ac10       ??_C@_0IJ@PNLPDAHJ@E_NFH?$FL?5OFI?$FL?5PFJ?$FL?5ZFT?$FL?5?$FLFU?$FL?5?2FV?$FL?5@ 1005ec10     cxcore210:cxtables.obj
 0002:0000aca0       ??_C@_0HK@EAEEMNHC@H?$FOZH?$FLH?2F?$FLL?$FLJZHYGWFTFQGOIMLLOKSKV@ 1005eca0     cxcore210:cxtables.obj
 0002:0000ad20       ??_C@_0HI@DODGODPN@F?2OFI?$FL?5PFJ?$FL?5QFK?$FL?5ULST?5LF?$FLFZL?5NPT@ 1005ed20     cxcore210:cxtables.obj
 0002:0000ad98       ??_C@_0IJ@PHJIGMII@F?$FNOFI?$FL?5PFJ?$FL?5QFK?$FL?5ULST?5LF?$FLFZL?5NPT@ 1005ed98     cxcore210:cxtables.obj
 0002:0000ae28       ??_C@_0HC@JAFCEHMM@F?$FNOFI?$FL?5PFJ?$FL?5QFK?$FL?5LFUFXGYHZKZOYSW@ 1005ee28     cxcore210:cxtables.obj
 0002:0000aea0       ??_C@_0FB@CPKCCMJC@H?$FNZH?$FLH?2F?$FLL?$FLJZHYGWFTFQGOIMLLOKSKV@ 1005eea0     cxcore210:cxtables.obj
 0002:0000aef8       ??_C@_0IN@MDHDCMJD@F?$FOOFI?$FL?5PFJ?$FL?5QFK?$FL?5LFWFZG?$FLI?$FLKZNYOV@ 1005eef8     cxcore210:cxtables.obj
 0002:0000af88       ??_C@_0EC@BEIPENPD@H?2UFIZ?5SJT?$FL?5THUZ?5UFUHVYV?$FL?5LUTU?5F@ 1005ef88     cxcore210:cxtables.obj
 0002:0000afd0       ??_C@_0GN@BDFPLIGN@G?$FNNYKYJWK?$FLO?$FLMVKRJOJLKIMGPFTFWGYI@ 1005efd0     cxcore210:cxtables.obj
 0002:0000b040       ??_C@_0JI@FJBOANPG@F?$FOQFQ?$FL?5RGRZ?5SFS?$FL?5NFVF?5N?$FLV?$FL?5OFQG?5@ 1005f040     cxcore210:cxtables.obj
 0002:0000b0d8       ??_C@_0JC@OMHCOKHP@G?$FNQFQ?$FL?5RGRZ?5SFS?$FL?5NFVF?5N?$FLV?$FL?5OFQG?5@ 1005f0d8     cxcore210:cxtables.obj
 0002:0000b170       ??_C@_0HC@OFDPNANN@H?2JMKILGMFOFPGQIRM?5LHMGOGPH?5JMKJ@ 1005f170     cxcore210:cxtables.obj
 0002:0000b1e4       ??_C@_0DP@NONJEMKP@G?$FNIFPPQQ?5JFQP?5KFRPI?$FL?5IFYFZLYIWF?5@ 1005f1e4     cxcore210:cxtables.obj
 0002:0000b228       ??_C@_0HP@IHKDMOAD@F?$FOKFK?$FL?5LGLZ?5MFM?$FL?5WFW?$FL?5XGXZ?5YFY?$FL?5@ 1005f228     cxcore210:cxtables.obj
 0002:0000b2a8       ??_C@_0KM@MCKJBBNJ@G?$FNJEJL?5ZEZL?5OMOT?5UMUT?5JUJ?2?5ZUZ?2?5@ 1005f2a8     cxcore210:cxtables.obj
 0002:0000b354       ??_C@_0DJ@KDIKDNOG@H?2RFKZ?5QIW?$FL?5RIX?$FL?5RFY?$FL?5I?$FLO?$FL?5T?$FL?$FL?$FL?5@ 1005f354     cxcore210:cxtables.obj
 0002:0000b390       ??_C@_0KF@GANKNFAM@G?$FNQFNGLIKKJOJRKVLXNZQ?$FLS?$FLVZXXYVZR@ 1005f390     cxcore210:cxtables.obj
 0002:0000b438       ??_C@_0CF@HLICIFLK@H?2RFJ?$FL?5QIX?$FL?5RIY?$FL?5RFZ?$FL?5KYXY?5KZXZ?5@ 1005f438     cxcore210:cxtables.obj
 0002:0000b460       ??_C@_0FJ@BIMIPCNB@I?$FLNFN?$FL?5OGOZ?5PFP?$FL?5KFZFZL?5K?$FLS?$FL?5LFN@ 1005f460     cxcore210:cxtables.obj
 0002:0000b4c0       ??_C@_0EH@GBANKCLL@H?2YFKFKL?5WFK?$FL?5XFL?$FL?5YFM?$FL?5K?$FLY?$FLYU?5L@ 1005f4c0     cxcore210:cxtables.obj
 0002:0000b508       ??_C@_0FD@IAFMHMHF@G?$FNJFQQQ?$FL?5KFRQRZ?5LFSQS?$FL?5YGSQ?5HFOF@ 1005f508     cxcore210:cxtables.obj
 0002:0000b560       ??_C@_0FM@NMOEJOEB@H?2KFW?$FL?5LFX?$FL?5MFY?$FL?5XGLZ?5IFPF?5UF?$FLF?5@ 1005f560     cxcore210:cxtables.obj
 0002:0000b5c0       ??_C@_0FP@HFLBBJHJ@F?$FOJFN?$FL?5KFNVN?$FL?5LFOV?5RFOVN?$FL?5RFV?$FL?5S@ 1005f5c0     cxcore210:cxtables.obj
 0002:0000b620       ??_C@_0DL@BLBKEFA@H?2KFR?$FL?5LFRXR?$FL?5MFSX?5YGR?$FL?5IFPF?5UF?$FL@ 1005f620     cxcore210:cxtables.obj
 0002:0000b660       ??_C@_0FB@KJDIAFNC@F?$FOKFKULXNZQ?$FLS?$FLVZXXYUYG?5LGLVMX?5MF@ 1005f660     cxcore210:cxtables.obj
 0002:0000b6b8       ??_C@_0GB@ONLPKGPH@H?2JFJL?5QFQ?$FL?5RGRZ?5SFS?$FL?5ZFZL?5JFZF?5@ 1005f6b8     cxcore210:cxtables.obj
 0002:0000b720       ??_C@_0FH@BBEMNMM@H?2XIYFYLXIVGSFPFMGKIKLLNOPURWSXU@ 1005f720     cxcore210:cxtables.obj
 0002:0000b778       ??_C@_0JA@BIIACHHL@G?$FNLFL?$FL?5MGMZ?5NFN?$FL?5IFUFXGYHZJZLYNX@ 1005f778     cxcore210:cxtables.obj
 0002:0000b808       ??_C@_0JE@KMCNHAFD@G?$FNQFNGLIKKJOJRKVLXNZQ?$FLS?$FLVZXXYVZR@ 1005f808     cxcore210:cxtables.obj
 0002:0000b8a0       ??_C@_0GJ@PABEKPME@G?$FNLFL?$FL?5MGMZ?5NFN?$FL?5IFUFXGYHZJZMYOX@ 1005f8a0     cxcore210:cxtables.obj
 0002:0000b910       ??_C@_0GJ@IBGECCN@G?$FNQFNGLIKKJOJRKVLXNZQ?$FLS?$FLVZXXYVZR@ 1005f910     cxcore210:cxtables.obj
 0002:0000b980       ??_C@_0ED@OAJEOIHN@F?$FOKFKZ?5KFY?$FL?5LFXX?5MFYX?5YGY?$FL?5HFMF?5@ 1005f980     cxcore210:cxtables.obj
 0002:0000b9c8       ??_C@_0GL@GAPDCKFJ@E_JFJZ?5JFQ?$FL?5KFQX?5LFRX?5XFQ?$FL?5XFX?$FL?5@ 1005f9c8     cxcore210:cxtables.obj
 0002:0000ba38       ??_C@_0FJ@DCBOGHAP@I?$FLNFN?$FL?5OGOZ?5PFP?$FL?5KFSF?5K?$FLZ?$FLZU?5LFN@ 1005fa38     cxcore210:cxtables.obj
 0002:0000ba98       ??_C@_0HF@BIJCMGKH@F?2KFK?$FL?5LGLZ?5MFM?$FL?5XGMR?5PPW?$FL?5QPX?$FL?5@ 1005fa98     cxcore210:cxtables.obj
 0002:0000bb10       ??_C@_0FD@NBGOILFO@JZSFSWRZQ?$FL?5TGTWSZ?5UFUWTZQ?$FLO?$FLMZLX@ 1005fb10     cxcore210:cxtables.obj
 0002:0000bb68       ??_C@_0ED@JOAJAGED@LXQFQ?$FL?5RGRZ?5SFS?$FL?5NFVF?5N?$FLV?$FL?5OFQG?5@ 1005fb68     cxcore210:cxtables.obj
 0002:0000bbb0       ??_C@_0IJ@JLCFLDJJ@F?$FOKFK?$FL?5LGLZ?5MFM?$FL?5WFW?$FL?5XGXZ?5YFY?$FL?5@ 1005fbb0     cxcore210:cxtables.obj
 0002:0000bc40       ??_C@_0HA@HDFGIKLA@G?$FOXIYFYLXIVGTFQFNGLIKKJNJSKVLXNZ@ 1005fc40     cxcore210:cxtables.obj
 0002:0000bcb0       ??_C@_0HI@MMCPGNGO@G?$FLLFL?$FL?5MGMZ?5NFN?$FL?5IFYFYL?5NPTP?5TLT@ 1005fcb0     cxcore210:cxtables.obj
 0002:0000bd28       ??_C@_0IO@IEEMDHCJ@G?2LFL?$FL?5MGMZ?5NFN?$FL?5IFYFYL?5NPTP?5TLT@ 1005fd28     cxcore210:cxtables.obj
 0002:0000bdb8       ??_C@_0HA@LJAPMIBA@G?$FNLFL?$FL?5MGMZ?5NFN?$FL?5IFSFVGXIYKZNZSY@ 1005fdb8     cxcore210:cxtables.obj
 0002:0000be28       ??_C@_0EJ@FJBOGOEG@G?2XIYFYLXIVGTFQFNGLIKKJNJSKVLXNZ@ 1005fe28     cxcore210:cxtables.obj
 0002:0000be78       ??_C@_0IN@EFHLDKHJ@G?$FNLFL?$FL?5MGMZ?5NFN?$FL?5IFUFXGYHZJZLYNX@ 1005fe78     cxcore210:cxtables.obj
 0002:0000bf08       ??_C@_0DO@EAIKOFPN@H?2RFKZ?5QIW?$FL?5RIX?$FL?5RFY?$FL?5MUVU?5I?$FLO?$FL?5@ 1005ff08     cxcore210:cxtables.obj
 0002:0000bf48       ??_C@_0EL@DKDEDCNH@G?2VMV?$FL?5WMW?$FL?5ZMOMLNKPKQLSOTVT?5OMM@ 1005ff48     cxcore210:cxtables.obj
 0002:0000bf98       ??_C@_0GA@FNKOCEDJ@DaIMI?$FL?5JMJ?$FL?5FMMM?5F?$FLM?$FL?5VMSNQPPSPU@ 1005ff98     cxcore210:cxtables.obj
 0002:0000bff8       ??_C@_0ED@LEKDBMJD@I?2MOLMLQMONNPMSMVNXPYSYUXXVZS?$FLP?$FL@ 1005fff8     cxcore210:cxtables.obj
 0002:0000c03c       ??_C@_0CP@PGIEDFFD@J?$FLOMO?$FL?5PMP?$FL?5LMSM?5PTTTWUXWXXWZT?$FLL@ 1006003c     cxcore210:cxtables.obj
 0002:0000c070       ??_C@_0ED@COONMHDJ@E_JMJ?$FL?5KMK?$FL?5GMNM?5KTOTRUSWSXRZO?$FLG@ 10060070     cxcore210:cxtables.obj
 0002:0000c0b4       ??_C@_0DD@DPCLPINI@H?$FNQMQ?$FL?5RMR?$FL?5LMKRKMUM?5RTVTYUZWZXY@ 100600b4     cxcore210:cxtables.obj
 0002:0000c0e8       ??_C@_0DI@DDKJBMNG@CbHMH?$FL?5IMI?$FL?5RMR?$FL?5SMS?$FL?5?2M?2?$FL?5?$FNM?$FN?$FL?5@ 100600e8     cxcore210:cxtables.obj
 0002:0000c120       ??_C@_0DE@HBGCJMFO@CbHMH?$FL?5IMI?$FL?5RMR?$FL?5SMS?$FL?5?2M?2?$FL?5?$FNM?$FN?$FL?5@ 10060120     cxcore210:cxtables.obj
 0002:0000c154       ??_C@_0DD@CBNFJGCG@G?$FNLMLTMVPWRWUVWT?5MMMTNVPW?5WMW?$FL?5X@ 10060154     cxcore210:cxtables.obj
 0002:0000c188       ??_C@_0CJ@HKHIHMEM@G?$FNLML?$FL?5MMM?$FL?5WMW?$FL?5XMX?$FL?5IMPM?5TM?$FLM?5@ 10060188     cxcore210:cxtables.obj
 0002:0000c1b8       ??_C@_0GC@IFDDMABG@H?$FNRFRb?5SFSb?5OFSF?5RPQNPMNMLNKQKWL@ 100601b8     cxcore210:cxtables.obj
 0002:0000c21c       ??_C@_0CJ@OINBLOAP@I?$FLLMR?$FL?5MMRY?5XMR?$FLP_NaLbKbJaK?$GALa?5J@ 1006021c     cxcore210:cxtables.obj
 0002:0000c248       ??_C@_0BO@ODLMGOI@I?2RMR?$FL?5SMS?$FL?5MMLRLMYMYRXM?5O?$FLV?$FL?$AA@ 10060248     cxcore210:cxtables.obj
 0002:0000c268       ??_C@_0CF@GGLJAKBO@G?$FNLML?$FL?5MMM?$FL?5WMW?$FL?5XMX?$FL?5IM?$FLM?5I?$FLP?$FL?5@ 10060268     cxcore210:cxtables.obj
 0002:0000c290       ??_C@_0CP@GNIOLMJG@G?$FNLML?$FL?5MMM?$FL?5WMW?$FL?5XMX?$FL?5IMPM?5TM?$FLM?5@ 10060290     cxcore210:cxtables.obj
 0002:0000c2c0       ??_C@_0DE@CKIHPIDF@G?$FOLML?$FL?5LMR?$FL?5MMRY?5XMR?$FL?5XMX?$FL?5YMY?$FL?5@ 100602c0     cxcore210:cxtables.obj
 0002:0000c2f4       ??_C@_0CJ@OPCBMPJG@G?$FNNMNQMWLZK?$FLJ?$FLIZJYKZ?5WMW?$FL?5XMX?$FL?5K@ 100602f4     cxcore210:cxtables.obj
 0002:0000c320       ??_C@_0EH@ONCBKJKO@H?2MMM?$FL?5NMN?$FL?5JMQM?5NTPTSSTRVNWMXMY@ 10060320     cxcore210:cxtables.obj
 0002:0000c368       ??_C@_0EC@NPHAKAJN@G?$FNLML?$FL?5MMM?$FL?5WMW?$FL?5XMX?$FL?5IMPM?5TM?$FLM?5@ 10060368     cxcore210:cxtables.obj
 0002:0000c3ac       ??_C@_0CP@BAGMNBNK@G?$FNLML?$FL?5MMM?$FL?5WMW?$FL?5XMX?$FL?5IMPM?5TM?$FLM?5@ 100603ac     cxcore210:cxtables.obj
 0002:0000c3e0       ??_C@_0FC@HOKKGAEF@I?$FLMOLMLQMONNPMTMWNXPXQWSTT?5TMVNW@ 100603e0     cxcore210:cxtables.obj
 0002:0000c438       ??_C@_0GP@LKPCMDMK@E?$GARMR?$FL?5SMS?$FL?5OMVM?5JNIOHNIMJMKNMRN@ 10060438     cxcore210:cxtables.obj
 0002:0000c4a8       ??_C@_0CJ@PJFAFEMC@F?$FNNMNQMWLZK?$FL?5WMW?$FL?5XMX?$FL?5KM?$FLM?5I?$FLH?$GA@ 100604a8     cxcore210:cxtables.obj
 0002:0000c4d4       ??_C@_0BK@LGPALFHD@HZMMM?$FL?5NMN?$FL?5JMXMXRWM?5J?$FLQ?$FL?$AA@ 100604d4     cxcore210:cxtables.obj
 0002:0000c4f0       ??_C@_0EG@FCFBIJKG@H?2MMM?$FL?5NMN?$FL?5JMUMXNYPYQXSUT?5UMWNX@ 100604f0     cxcore210:cxtables.obj
 0002:0000c538       ??_C@_0FO@FKIFJJLD@H?2XFWGQINKLNKQKULXNZQ?$FLS?$FLVZXXYUYS@ 10060538     cxcore210:cxtables.obj
 0002:0000c598       ??_C@_0FF@KOGINPPA@G?$FNWFW?$FL?5XFX?$FL?5?$FLFOFLGKHJJJLKNLOOPWP@ 10060598     cxcore210:cxtables.obj
 0002:0000c5f0       ??_C@_0HA@DOPKLLDJ@CbHFH?$FL?5IFI?$FL?5EFLF?5E?$FLL?$FL?5VFSGQIPKOO@ 100605f0     cxcore210:cxtables.obj
 0002:0000c660       ??_C@_0EN@OEGDGLAH@H?$FNLIKFKLLINGQFSFVGXIYKZNZSYVXXVZ@ 10060660     cxcore210:cxtables.obj
 0002:0000c6b0       ??_C@_0DH@LMNGCBGL@H?$FNMFM?$FL?5NFN?$FL?5JFQF?5NPUPXQYRZTZWYYX@ 100606b0     cxcore210:cxtables.obj
 0002:0000c6e8       ??_C@_0EL@LHBLMLK@CaHFH?$FL?5IFI?$FL?5EFLF?5IPPPSQTRUTUWTYS@ 100606e8     cxcore210:cxtables.obj
 0002:0000c734       ??_C@_0DL@GIJDDJHK@F?$GAPFP?$FL?5QFQ?$FL?5IFHLHFTF?5QPXP?$FLQ?2R?$FNT?$FN@ 10060734     cxcore210:cxtables.obj
 0002:0000c770       ??_C@_0DO@KBPBGGHP@BcGFG?$FL?5HFH?$FL?5RFR?$FL?5SFS?$FL?5?$FNF?$FN?$FL?5?$FOF?$FO?$FL?5@ 10060770     cxcore210:cxtables.obj
 0002:0000c7b0       ??_C@_0DE@OGFPCJDG@BcGFG?$FL?5HFH?$FL?5RFR?$FL?5SFS?$FL?5?$FNF?$FN?$FL?5?$FOF?$FO?$FL?5@ 100607b0     cxcore210:cxtables.obj
 0002:0000c7e4       ??_C@_0DD@BEFENGON@F?$FNKFKQLSOTRTUSWQ?5LFLQMSOT?5WFW?$FL?5X@ 100607e4     cxcore210:cxtables.obj
 0002:0000c818       ??_C@_0CP@KKMOBCO@F?$FOKFK?$FL?5LFL?$FL?5XFX?$FL?5YFY?$FL?5HFOF?5UF?2F?5@ 10060818     cxcore210:cxtables.obj
 0002:0000c848       ??_C@_0FL@OPBGHBGH@F_RFR?$FL?5SFS?$FL?5OFVF?5PILJJLIOIRJULWP@ 10060848     cxcore210:cxtables.obj
 0002:0000c8a4       ??_C@_0CN@GIIOLLPB@H?$FNKFRV?5LFSV?5ZFSVQYPZN?$FLM?$FLLZLYMXNY@ 100608a4     cxcore210:cxtables.obj
 0002:0000c8d4       ??_C@_0CP@EJKPNONO@E?$FOMFMLLTKXJZI?$FLH?$FLGZGYHXIYHZ?5XFX?$FL?5@ 100608d4     cxcore210:cxtables.obj
 0002:0000c908       ??_C@_0FB@FCIFJMOO@F?$FOKFK?$FL?5LFL?$FL?5HFOF?5LPSPUOVMWIXGYFZ@ 10060908     cxcore210:cxtables.obj
 0002:0000c960       ??_C@_0EC@LLIOPADF@F?$FOKFK?$FL?5LFL?$FL?5XFX?$FL?5YFY?$FL?5HFOF?5UF?2F?5@ 10060960     cxcore210:cxtables.obj
 0002:0000c9a4       ??_C@_0CP@MODFMPK@F?$FOKFK?$FL?5LFL?$FL?5XFX?$FL?5YFY?$FL?5HFOF?5UF?2F?5@ 100609a4     cxcore210:cxtables.obj
 0002:0000c9d8       ??_C@_0FI@NJEAOOMD@H?2LIKFKLLINGPFTFWGXIXLWNTOQO?5TFV@ 100609d8     cxcore210:cxtables.obj
 0002:0000ca30       ??_C@_0IH@MGEOKPCE@CbRFR?$FL?5SFS?$FL?5OFVF?5GGHHGIFHFGGFHFI@ 10060a30     cxcore210:cxtables.obj
 0002:0000cab8       ??_C@_0DH@KLKOFICM@F?$FONFNLMTLXKZJ?$FL?5XFX?$FL?5YFY?$FL?5KF?2F?5G?$FL@ 10060ab8     cxcore210:cxtables.obj
 0002:0000caf0       ??_C@_0DL@LMHPIFDE@G?$FNLFL?$FL?5MFM?$FL?5IFYFYLXF?5MPUPXQYRZTZ@ 10060af0     cxcore210:cxtables.obj
 0002:0000cb2c       ??_C@_0DP@GHABCLPA@E_?$FOF?2GXHUHQGOFMFKGJIJKLMNMPLQJQH@ 10060b2c     cxcore210:cxtables.obj
 0002:0000cb6c       ??_C@_0BG@KNEEAECF@H?$FNSFLb?5YFRb?5LQZQ?5KWYW?$AA@ 10060b6c     cxcore210:cxtables.obj
 0002:0000cb84       ??_C@_0BN@NPPJNKNB@KZSFQGPIPKQMSNUNWMXKXIWGUFSF?$AA@ 10060b84     cxcore210:cxtables.obj
 0002:0000cba4       ??_C@_0BG@LIFHAKAM@I?$FLPFNM?5QFNM?5YFWM?5ZFWM?$AA@ 10060ba4     cxcore210:cxtables.obj
 0002:0000cbbc       ??_C@_0M@CFJANLNJ@NWUFSM?5VFSM?$AA@ 10060bbc     cxcore210:cxtables.obj
 0002:0000cbc8       ??_C@_0BB@NELHFOID@J?$FLTFTR?5OIYO?5YIOO?$AA@ 10060bc8     cxcore210:cxtables.obj
 0002:0000cbdc       ??_C@_0CI@ENKAIMBC@JYSBTDUGVLVPUUSYQ?2N_Jb?5SBTEUJUOT@ 10060bdc     cxcore210:cxtables.obj
 0002:0000cc04       ??_C@_0CI@ONADMCJA@KZZBVESHQKOONTNXO?$FNP?$GAQb?5VESIQMPPO@ 10060c04     cxcore210:cxtables.obj
 0002:0000cc2c       ??_C@_06PJOLPOPN@G?$FN_BEb?$AA@ 10060c2c     cxcore210:cxtables.obj
 0002:0000cc38       ??_C@_0FA@JNKEKEDF@H?$FNTBL_?5YBQ_?5ZJYKZL?$FLK?$FLJZHYGVFRFOG@ 10060c38     cxcore210:cxtables.obj
 0002:0000cc88       ??_C@_0GN@OJJICLMH@E_?2N?$FLO?2P?$FNO?$FNN?2M?$FLMYNWPRXPZN?$FLK?$FLHZGX@ 10060c88     cxcore210:cxtables.obj
 0002:0000ccf8       ??_C@_0BB@KNKLOGGO@MXUHTGUFVGVHUJSL?$AA@ 10060cf8     cxcore210:cxtables.obj
 0002:0000cd0c       ??_C@_0BB@NMPLJHC@MXVFTHSJSKTLUKTJ?$AA@ 10060d0c     cxcore210:cxtables.obj
 0002:0000cd20       ??_C@_0ED@BNEMCFNL@H?$FNOJPKOLNKNJOHPGSFWFZG?$FLI?$FLKZMYNSP@ 10060d20     cxcore210:cxtables.obj
 0002:0000cd64       ??_C@_0CA@HBGLGPIH@MXUFTGRS?5UGRS?5UFVGRS?5PYOZP?$FLQZPY?$AA@ 10060d64     cxcore210:cxtables.obj
 0002:0000cd84       ??_C@_0BM@OLNABFM@MXSMRNSOTNSM?5P?$FLOZPYQZQ?$FLP?$FNN_?$AA@ 10060d84     cxcore210:cxtables.obj
 0002:0000cda0       ??_C@_0BG@EJJLPJIA@MXSMRNSOTNSM?5PYOZP?$FLQZ?$AA@ 10060da0     cxcore210:cxtables.obj
 0002:0000cdb8       ??_C@_0BB@FBHBFEHB@MXP?$FLOZPYQZQ?$FLP?$FNN_?$AA@ 10060db8     cxcore210:cxtables.obj
 0002:0000cdcc       ??_C@_0N@CLLFOHLH@MXPYOZP?$FLQZPY?$AA@ 10060dcc     cxcore210:cxtables.obj
 0002:0000cde0       ??_C@_0FL@POGEKKM@H?$FNYMXOVQTRQROQNPMNMKNIPGSFVFXGYH@ 10060de0     cxcore210:cxtables.obj
 0002:0000ce40       ??_C@_0HK@DIMHBKD@H?$FNSFPGOHNJNMOOQPTPXOYNZLZIYGVFSF@ 10060e40     cxcore210:cxtables.obj
 0002:0000cebc       ??_C@_0DJ@MACBFEEI@H?$FNNFLL?5?$FLFZIXLSRQUPWO?$FL?5XLRRPUOWN?$FL@ 10060ebc     cxcore210:cxtables.obj
 0002:0000cef8       ??_C@_0FL@FONFLOPP@H?$FNYIXJYKZJZIYGWFTFQGOIMLLOKSKWLY@ 10060ef8     cxcore210:cxtables.obj
 0002:0000cf58       ??_C@_0EL@OOMGFKFB@H?$FNQFLP?5QF?$FLF?5QGVG?$FLF?5LPMOPNSNVOWPX@ 10060f58     cxcore210:cxtables.obj
 0002:0000cfa4       ??_C@_0BD@GHEPLMIN@H?$FNXGR?$FL?5YFS?$FL?5YFJUZU?$AA@ 10060fa4     cxcore210:cxtables.obj
 0002:0000cfb8       ??_C@_0GC@GKEMIKGG@H?$FNOJPKOLNKNJOHPGSFVFYGZIZKYMVOSP@ 10060fb8     cxcore210:cxtables.obj
 0002:0000d020       ??_C@_0FC@PGOKIHID@H?$FNOJPKOLNKNJOHPGSFVFYGZIZKYMWOTQ@ 10061020     cxcore210:cxtables.obj
 0002:0000d074       ??_C@_0BM@BPMEEACD@H?$FNTJO?$FL?5VFP?$FL?5VFSIPKNL?5UIQKNL?$AA@ 10061074     cxcore210:cxtables.obj
 0002:0000d090       ??_C@_0FD@JEHBCJAJ@H?$FNTFQGOIMLLOKSKVLYMZO?$FLQ?$FLTZVXXUYR@ 10061090     cxcore210:cxtables.obj
 0002:0000d0e8       ??_C@_0GG@NEAEBLIE@E_JPLONOPPSTTUVVXVZU?$FLS?$FLQZOXNVNTO@ 100610e8     cxcore210:cxtables.obj
 0002:0000d150       ??_C@_0KD@LMIGMMBG@E?$GAWMTKQKOLNMMOMRNTOUQVTVWT?5WMTLQ@ 10061150     cxcore210:cxtables.obj
 0002:0000d1f8       ??_C@_0HM@PMIEDKE@F?$FO?$FLFYGVHSHPGNFLFJGIIIKKMMMOLPJPH@ 100611f8     cxcore210:cxtables.obj
 0002:0000d274       ??_C@_0DK@HNAINOEP@G?$FOOFObPb?5OFPFPb?5UFUbVb?5UFVFVb?5JP@ 10061274     cxcore210:cxtables.obj
 0002:0000d2b0       ??_C@_0BE@GFDICFO@F?$FOJIZRJ?$FL?5JIJJXRJZJ?$FL?$AA@ 100612b0     cxcore210:cxtables.obj
 0002:0000d2c4       ??_C@_0BE@EFAENGCB@F?$FOZIJRZ?$FL?5ZIZJLRZZZ?$FL?$AA@ 100612c4     cxcore210:cxtables.obj
 0002:0000d2d8       ??_C@_0DL@LFJHODKM@KYQFOGNINKOMQNSNUMVKVIUGSFQF?5QFN@ 100612d8     cxcore210:cxtables.obj
 0002:0000d314       ??_C@_0CI@JBGDMDHB@I?$FLNFMGMM?5NGMM?5NFOGMM?5WFVGVM?5WGVM@ 10061314     cxcore210:cxtables.obj
 0002:0000d33c       ??_C@_0BF@DPJDDMGH@NWSFRGRM?5SGRM?5SFTGRM?$AA@ 1006133c     cxcore210:cxtables.obj
 0002:0000d354       ??_C@_0BO@JHBLOHFF@F_JM?$FLM?$FLN?5JMJN?$FLN?5JU?$FLU?$FLV?5JUJV?$FLV?$AA@ 10061354     cxcore210:cxtables.obj
 0002:0000d374       ??_C@_0BO@JCDLMHAO@F_RIRZSZ?5RISISZ?5JQ?$FLQ?$FLR?5JQJR?$FLR?$AA@ 10061374     cxcore210:cxtables.obj
 0002:0000d394       ??_C@_0BA@FPFNMNFJ@F_JQ?$FLQ?$FLR?5JQJR?$FLR?$AA@ 10061394     cxcore210:cxtables.obj
 0002:0000d3a8       ??_C@_0EH@BCOCJGKA@JZRFQGSQRR?5RFRR?5RFSGQQRR?5MINIVOW@ 100613a8     cxcore210:cxtables.obj
 0002:0000d3f0       ??_C@_0DA@GLLGLPAM@KYNBPDRGTKUPUTTYR?$FNP?$GANbOb?5NBOBQDS@ 100613f0     cxcore210:cxtables.obj
 0002:0000d420       ??_C@_0DA@IBHMAGBB@KYUBSDQGOKNPNTOYQ?$FNS?$GAUbVb?5UBVBTDR@ 10061420     cxcore210:cxtables.obj
 0002:0000d450       ??_C@_0BA@DELIMJBC@G?$FO?$FLBIbJb?5?$FLB?2BJb?$AA@ 10061450     cxcore210:cxtables.obj
 0002:0000d460       ??_C@_0GD@PCMODIKG@I?2RBR_S_?5RBSBS_?5WIYIWGTFQFNGLILK@ 10061460     cxcore210:cxtables.obj
 0002:0000d4c8       ??_C@_0IL@MDPMADNN@F_?2MZMXNWPUVTXSYQZMZKYJWJUKSLRQO@ 100614c8     cxcore210:cxtables.obj
 0002:0000d554       ??_C@_0CO@FLHDFCMO@MXTHSIRIQHQGRFSFTGTJSLQM?5RGRHSHS@ 10061554     cxcore210:cxtables.obj
 0002:0000d584       ??_C@_0CO@OIGDFJEE@MXTFRGQIQLRMSMTLTKSJRJQK?5RKRLSLS@ 10061584     cxcore210:cxtables.obj
 0002:0000d5b8       ??_C@_0GO@FGOEMJME@I?2LKLJMHNGQFTFWGXHYJYLXNWOUPRQ?5L@ 100615b8     cxcore210:cxtables.obj
 0002:0000d628       ??_C@_0CO@NMCHLCOH@MXRFRTST?5RFSFST?5RXQYQZR?$FLS?$FLTZTYSX@ 10061628     cxcore210:cxtables.obj
 0002:0000d658       ??_C@_0EM@DEMIFKHM@MXRMQNQORPSPTOTNSMRM?5RNROSOSNRN?5@ 10061658     cxcore210:cxtables.obj
 0002:0000d6a4       ??_C@_0DO@MNCKHNGM@MXRMQNQORPSPTOTNSMRM?5RNROSOSNRN?5@ 100616a4     cxcore210:cxtables.obj
 0002:0000d6e4       ??_C@_0CO@ENEMFNEF@MXTZS?$FLR?$FLQZQYRXSXTYT?2S?$FOQ_?5RYRZSZS@ 100616e4     cxcore210:cxtables.obj
 0002:0000d714       ??_C@_0CA@DOLDIPHJ@MXRXQYQZR?$FLS?$FLTZTYSXRX?5RYRZSZSYRY?$AA@ 10061714     cxcore210:cxtables.obj
 0002:0000d738       ??_C@_0HH@JCOFDIKE@H?2WPURRSQSNRLPKMKLLINGQFRFUGWIXM@ 10061738     cxcore210:cxtables.obj
 0002:0000d7b0       ??_C@_0IF@JKFGAGPM@H?2PFMGLILKMMNNPOTPVQWRXTXWWYTZPZ@ 100617b0     cxcore210:cxtables.obj
 0002:0000d838       ??_C@_0BH@PEIKJCGE@H?2KFYFO?$FL?5KFKGXG?5XFN?$FLO?$FL?$AA@ 10061838     cxcore210:cxtables.obj
 0002:0000d850       ??_C@_0HH@MBJKPFEC@H?2VGWIXIWGTFRFOGMJLOLTMXOZR?$FLS?$FLVZ@ 10061850     cxcore210:cxtables.obj
 0002:0000d8c8       ??_C@_0GD@FAILNFIK@H?2MFLO?5NGMN?5MFWFWG?5NGWG?5MNPMSMVN@ 100618c8     cxcore210:cxtables.obj
 0002:0000d92c       ??_C@_0CB@ENHGAHEL@H?2UIU?$FLV?$FL?5VFV?$FL?5VFKVZV?5UILV?5LUZUZV@ 1006192c     cxcore210:cxtables.obj
 0002:0000d950       ??_C@_0FK@PHEAEBAL@H?2MFXFQO?5MFMGWG?5WFPO?5QNSNVOXQYTY@ 10061950     cxcore210:cxtables.obj
 0002:0000d9b0       ??_C@_0EC@MGGDLPKD@H?2LKLJMHNGPFTFVGWHXJXLWNUQL?$FL?5LKM@ 100619b0     cxcore210:cxtables.obj
 0002:0000d9f4       ??_C@_0BI@KNNBGIIE@H?2NJPISFS?$FL?5NJNKPJRHR?$FLS?$FL?$AA@ 100619f4     cxcore210:cxtables.obj
 0002:0000da10       ??_C@_0FB@JLPGGIGI@H?2QFNGLJKOKRLWNZQ?$FLS?$FLVZXWYRYOXJVG@ 10061a10     cxcore210:cxtables.obj
 0002:0000da68       ??_C@_0EK@NCEKGGPO@LYLVNSPRRRTSTVSXPZN?$FL?5RRSSSVRXPZ?5@ 10061a68     cxcore210:cxtables.obj
 0002:0000dab4       ??_C@_0DO@MPEHNKIC@K?$FLNRLXLZN?$FLO?$FLQZSXUU?5ORMXMZN?$FL?5VRPd@ 10061ab4     cxcore210:cxtables.obj
 0002:0000daf8       ??_C@_0FA@BGOHJELN@JZJVLSNRPRQSQUPXOZM?$FLL?$FLKZKYLYKZ?5W@ 10061af8     cxcore210:cxtables.obj
 0002:0000db48       ??_C@_0EF@EALELHMF@H?$FNLRJTIWIZK?$FLL?$FLNZPX?5MRKTJWJZK?$FL?5RR@ 10061b48     cxcore210:cxtables.obj
 0002:0000db90       ??_C@_0CN@FJLFHFMA@KZNRMTLWLZN?$FLO?$FLRZTXUUUR?5ORNTMWMZN@ 10061b90     cxcore210:cxtables.obj
 0002:0000dbc0       ??_C@_0DE@CNPHPFKJ@K?$FLNRLXLZN?$FLO?$FLQZSXUU?5ORMXMZN?$FL?5VRTX@ 10061bc0     cxcore210:cxtables.obj
 0002:0000dbf4       ??_C@_0CG@DAGJCBJN@NVNVPSRO?5UFOXOZQ?$FLSZTYVV?5VFPXPZQ?$FL@ 10061bf4     cxcore210:cxtables.obj
 0002:0000dc1c       ??_C@_0CL@MFGAMJOC@NZNVPSQQQSTUUWUYTZR?$FL?5QSSUTWTYR?$FL?5@ 10061c1c     cxcore210:cxtables.obj
 0002:0000dc48       ??_C@_0CO@BOPOBMKP@LZLVNSPRRSRUP?$FL?5PRQSQUO?$FL?5RUTSVRWR@ 10061c48     cxcore210:cxtables.obj
 0002:0000dc78       ??_C@_0EE@NDDEABMI@K?$FLUUTSRRPRNSMTLVLXMZO?$FLQ?$FLSZ?5PRNTM@ 10061c78     cxcore210:cxtables.obj
 0002:0000dcbc       ??_C@_0DJ@PCPKFKEH@L?$FLLVNSPO?5QLHg?5RLIg?5OUQSSRTRVSVUU@ 10061cbc     cxcore210:cxtables.obj
 0002:0000dcf8       ??_C@_0DK@KKDOJLOO@KYRRPRNSMTLVLXMZO?$FLQ?$FLSZTYUWUUTSRR@ 10061cf8     cxcore210:cxtables.obj
 0002:0000dd34       ??_C@_0DO@DDOGFILI@I?$FLIVKSMROSOUM?$FL?5MRNSNUL?$FL?5OUQSSRTR@ 10061d34     cxcore210:cxtables.obj
 0002:0000dd78       ??_C@_0FG@KNBJCBDB@E?$FOEVGSIRKSKUI?$FL?5IRJSJUH?$FL?5KUMSORPR@ 10061d78     cxcore210:cxtables.obj
 0002:0000ddd0       ??_C@_0CB@EGFLBAMJ@NVNVPSRO?5UFOXOZQ?$FLSZTYVV?5VFPXPZQ?$FL@ 10061dd0     cxcore210:cxtables.obj
 0002:0000ddf4       ??_C@_0DK@BJJPPJME@LZLVNSPO?5SFL?$FL?5TFM?$FL?5URUSVSURTRRTO@ 10061df4     cxcore210:cxtables.obj
 0002:0000de30       ??_C@_0CP@ODKOBMCC@NVSLRMSNTMSL?5QRKd?5RRO?$FLM?$GAKdJfHgGf@ 10061e30     cxcore210:cxtables.obj
 0002:0000de60       ??_C@_0CF@ELKOGHAL@NVSLRMSNTMSL?5QROXOZQ?$FLSZTYVV?5RRPX@ 10061e60     cxcore210:cxtables.obj
 0002:0000de88       ??_C@_0DJ@JEPIDAAA@L?$FLLVNSPO?5SFL?$FL?5TFM?$FL?5OUQSSRTRVSVUU@ 10061e88     cxcore210:cxtables.obj
 0002:0000dec8       ??_C@_0EK@JLNCGJGA@K?$FLUUTSRRPRNSMTLVLXMZO?$FLQ?$FLSZTX?5PRN@ 10061ec8     cxcore210:cxtables.obj
 0002:0000df14       ??_C@_0DG@FDABHOKI@OXRRUOWLXIXGWFUGTIKdKfLgNfOcPZQ?$FL@ 10061f14     cxcore210:cxtables.obj
 0002:0000df4c       ??_C@_0CO@FAFKKGKF@LXOYQXRWSUSSRRQROSNTMVMXNZP?$FLS?$FLVY@ 10061f4c     cxcore210:cxtables.obj
 0002:0000df80       ??_C@_0EA@MLHIGCIE@K?$FLUUTSRRPRNSMTLVLXMZO?$FLQ?$FLSZTX?5PRN@ 10061f80     cxcore210:cxtables.obj
 0002:0000dfc0       ??_C@_0CM@HLFGJLDB@LXTSSTTTTSSRQROSNTMVMXNZP?$FLS?$FLVYXV@ 10061fc0     cxcore210:cxtables.obj
 0002:0000dfec       ??_C@_0CN@ECPKCJPE@LZLVNSPO?5SFMXMZO?$FLP?$FLRZTXUUURVVWWX@ 10061fec     cxcore210:cxtables.obj
 0002:0000e020       ??_C@_0EA@GPJICLHP@K?$FLUUTSRRPRNSMTLVLXMZO?$FLQ?$FLSZTX?5PRN@ 10062020     cxcore210:cxtables.obj
 0002:0000e060       ??_C@_0CE@OHMKCAB@I?$FLVNL?$FL?5XMNZ?5LMXM?5LMLNVN?5NZXZX?$FL?5L@ 10062060     cxcore210:cxtables.obj
 0002:0000e084       ??_C@_0CA@NJIDDBAN@JZLMR?$FL?5LMMMRY?5XMWMRYNb?5XMR?$FLObNb?$AA@ 10062084     cxcore210:cxtables.obj
 0002:0000e0a4       ??_C@_0BO@OAFNBJEC@I?$FLLMW?$FLX?$FL?5LMMMX?$FL?5XMWML?$FL?5XMM?$FLL?$FL?$AA@ 100620a4     cxcore210:cxtables.obj
 0002:0000e0c4       ??_C@_0CO@NBCMGHJE@F?$FOIMN?$FL?5IMJMNX?5RMNX?5RPN?$FL?5RPV?$FL?5RMV@ 100620c4     cxcore210:cxtables.obj
 0002:0000e0f4       ??_C@_0BK@MKLBJPD@JZLMR?$FL?5LMMMRY?5XMWMRY?5XMR?$FL?$AA@ 100620f4     cxcore210:cxtables.obj
 0002:0000e110       ??_C@_0DA@DELJDGHN@H?2LMLWMZO?$FLR?$FLTZWW?5LMMMMWNYPZRZTYW@ 10062110     cxcore210:cxtables.obj
 0002:0000e140       ??_C@_0BO@CDFGACMB@MXRFR?$FLS?$FL?5RFSFS?$FL?5OMVMVN?5OMONVN?$AA@ 10062140     cxcore210:cxtables.obj
 0002:0000e160       ??_C@_0FO@OIHNGDLL@J?$FLXPWNTMQMNNMPNRPSUUWV?5VUWWWXVZ?5@ 10062160     cxcore210:cxtables.obj
 0002:0000e1c0       ??_C@_0CI@CELPLOMJ@KYOMO?$FLP?$FL?5OMPMP?$FL?5PSQPSNUMXM?5PSQQS@ 100621c0     cxcore210:cxtables.obj
 0002:0000e1e8       ??_C@_0EG@OLNOEKEO@H?2WMWbXb?5WMXMXb?5WPUNSMPMNNLPKSKU@ 100621e8     cxcore210:cxtables.obj
 0002:0000e230       ??_C@_0EG@GNIIAOFM@H?2LMLbMb?5LMMMMb?5MPONQMTMVNXPYSYU@ 10062230     cxcore210:cxtables.obj
 0002:0000e278       ??_C@_0EI@OGGEDKMJ@I?2QMONMPLSLUMXOZQ?$FLT?$FLVZXXYUYSXPVN@ 10062278     cxcore210:cxtables.obj
 0002:0000e2c0       ??_C@_0DA@ILMOLALH@H?2LML?$FLM?$FL?5LMMMM?$FL?5MQPNRMUMWNXQX?$FL?5M@ 100622c0     cxcore210:cxtables.obj
 0002:0000e2f0       ??_C@_0FA@HNLODJI@CbGMG?$FLH?$FL?5GMHMH?$FL?5HQKNMMPMRNSQS?$FL?5H@ 100622f0     cxcore210:cxtables.obj
 0002:0000e340       ??_C@_0CI@ONOHGLFD@H?$FLLFL?$FLM?$FL?5LFMFM?$FL?5XMWMMW?5XMMX?5PTV?$FL@ 10062340     cxcore210:cxtables.obj
 0002:0000e368       ??_C@_0CO@HFFJJOAA@NWRFQGQHRISITHTGSFRF?5RGRHSHSGRG?5@ 10062368     cxcore210:cxtables.obj
 0002:0000e398       ??_C@_0CO@KKGIBAKK@NWRFQGQHRISITHTGSFRF?5RGRHSHSGRG?5@ 10062398     cxcore210:cxtables.obj
 0002:0000e3c8       ??_C@_0DA@EGCKKPKE@H?2LFL?$FLM?$FL?5LFMFM?$FL?5MQPNRMUMWNXQX?$FL?5M@ 100623c8     cxcore210:cxtables.obj
 0002:0000e3f8       ??_C@_0FO@GJIIKFFK@H?2XMWMW?2V_U?$GASaQaO?$GAN_L_?5XMX?2W_UaS@ 100623f8     cxcore210:cxtables.obj
 0002:0000e458       ??_C@_0CN@FCCINEGO@LZWFUFSGRJR?$FLS?$FL?5WFWGUGSH?5TGSJS?$FL?5O@ 10062458     cxcore210:cxtables.obj
 0002:0000e488       ??_C@_0EI@KGLMCDCI@I?$FLMTXTXQWOVNTMQMONMPLSLUMXOZQ?$FLT?$FL@ 10062488     cxcore210:cxtables.obj
 0002:0000e4d0       ??_C@_0EG@DMPICOEP@H?2WFW?$FLX?$FL?5WFXFX?$FL?5WPUNSMPMNNLPKSKU@ 100624d0     cxcore210:cxtables.obj
 0002:0000e518       ??_C@_0EA@LAHFOKIJ@I?$FLXPVNTMQMONMPLSLUMXOZQ?$FLT?$FLVZXX?5X@ 10062518     cxcore210:cxtables.obj
 0002:0000e558       ??_C@_0EG@LKKOGKFN@H?2LFL?$FLM?$FL?5LFMFM?$FL?5MPONQMTMVNXPYSYU@ 10062558     cxcore210:cxtables.obj
 0002:0000e5a0       ??_C@_0EG@EBKMKLKD@H?2WMW?$FLX?$FL?5WMXMX?$FL?5WPUNSMPMNNLPKSKU@ 100625a0     cxcore210:cxtables.obj
 0002:0000e5e8       ??_C@_0FH@MJDCFMH@G?2ZHYJWOVRUTSWQYOZL?$FL?5SLRNPONOMMM@ 100625e8     cxcore210:cxtables.obj
 0002:0000e640       ??_C@_0FC@MNEPBNFC@G?$FNJJLGNFOFQGQIOOORPT?5OFPGPINONRP@ 10062640     cxcore210:cxtables.obj
 0002:0000e698       ??_C@_0GH@EBMEOMBJ@H?2PKOLMLLKLIMGOFQFSGTITLSPQUOXMZ@ 10062698     cxcore210:cxtables.obj
 0002:0000e700       ??_C@_0EO@MCPDEKN@F?$FNILHLGKGIHGJFNFMHLLKUJ?$FL?5LLLUK?$FL?5@ 10062700     cxcore210:cxtables.obj
 0002:0000e750       ??_C@_0EI@CPDAHKDJ@G?2HJJGLFMFOHOKNOLVLYM?$FL?5MFNHNKLRK@ 10062750     cxcore210:cxtables.obj
 0002:0000e798       ??_C@_0EM@BDHDMHB@G?$FNHJJGLFMFOHOKNNKVKYL?$FL?5MFNHNKKSJ@ 10062798     cxcore210:cxtables.obj
 0002:0000e7e8       ??_C@_0EL@JAGDFAGB@I?$FLYHXJVOTUSWQZO?$FL?5SLRNPONOMMMKNIP@ 100627e8     cxcore210:cxtables.obj
 0002:0000e838       ??_C@_0EI@BFDDBODG@H?2NIMKMMNOPPSPVOXN?$FLK?2H?2G?$FLFZFXGWH@ 10062838     cxcore210:cxtables.obj
 0002:0000e880       ??_C@_0HO@HOBDOAPI@F?$FOUGTHSJQOOUNWLZJ?$FL?5THSKQSPVOXMZJ@ 10062880     cxcore210:cxtables.obj
 0002:0000e900       ??_C@_0FG@NJNLENEF@H?$FNUJULTNSOQPOPNNNLOIQGTFWFYGZIZM@ 10062900     cxcore210:cxtables.obj
 0002:0000e958       ??_C@_0GI@LPLHGJJJ@F?$FNUGTHSJQOOUNWLZJ?$FL?5THSKQSPVOXMZJ@ 10062958     cxcore210:cxtables.obj
 0002:0000e9c0       ??_C@_0EE@PMICOANL@H?$FNSFQGOIMLLNKRKVLYMZO?$FLQ?$FLTZVXXUYS@ 100629c0     cxcore210:cxtables.obj
 0002:0000ea08       ??_C@_0EK@GFFNPKEL@G?$FORFQJOPMULWJZH?$FLF?$FLEZEXFWGXFY?5RFR@ 10062a08     cxcore210:cxtables.obj
 0002:0000ea58       ??_C@_0FO@OBPDHOMC@D?$GARFNOKUIXGZE?$FLC?$FLBZBXCWDXCY?5RFPMO@ 10062a58     cxcore210:cxtables.obj
 0002:0000eab8       ??_C@_0FA@IDBDEJBA@I?$FLMILKLMMOOPRPUOWNZK?$FLH?$FLGZFYFWGVH@ 10062ab8     cxcore210:cxtables.obj
 0002:0000eb08       ??_C@_0HC@CHIPIPKP@F?$FOLLKKKIMGPFRFOQMWLYKZI?$FLG?$FLFZFXGW@ 10062b08     cxcore210:cxtables.obj
 0002:0000eb80       ??_C@_0EE@KOEFFFHF@IZYFWHUKSPPYN?$FN?5YMWOTPQPOONMNKOIQ@ 10062b80     cxcore210:cxtables.obj
 0002:0000ebc8       ??_C@_0EC@GPCONHKA@IYWHUKSPQUPWNZL?$FL?5YLWNTOQOONNLNJO@ 10062bc8     cxcore210:cxtables.obj
 0002:0000ec10       ??_C@_0GM@HECAGKIK@F?$FOLLKKKILGOFRFOQMWLYKZI?$FLG?$FLFZFXGW@ 10062c10     cxcore210:cxtables.obj
 0002:0000ec80       ??_C@_0GI@JEACLJMG@G?$FNJIIKIMJOLPOPROTNWKXHXGWFVFTGRI@ 10062c80     cxcore210:cxtables.obj
 0002:0000ece8       ??_C@_0FK@CFNDEJFM@G?2WHVJTORUQWOZM?$FL?5QLPNNOLOKMKKLIN@ 10062ce8     cxcore210:cxtables.obj
 0002:0000ed48       ??_C@_0GA@LIPCDCIF@I?2WIVJVLWMYMZKZIYGWFTFRGQHPJPLQN@ 10062d48     cxcore210:cxtables.obj
 0002:0000eda8       ??_C@_0FG@EDNLCDFM@F?$FNUGTHSJQOOUNWLZJ?$FL?5THSKQSPVOXMZJ@ 10062da8     cxcore210:cxtables.obj
 0002:0000ee00       ??_C@_0FC@CCGCHCHM@H?$FNKHJJJLKNNOQOUNWMYKZIZGYFWFTGQJ@ 10062e00     cxcore210:cxtables.obj
 0002:0000ee58       ??_C@_0II@KJPMJCEM@F?$FOUGTHSJQOOUNWLZJ?$FL?5THSKQSPVOXMZJ@ 10062e58     cxcore210:cxtables.obj
 0002:0000eee0       ??_C@_0EK@JPGPLFEK@E?2XFVHTKQPOSLWIZG?$FLE?$FLDZDXEWFXEY?5X@ 10062ee0     cxcore210:cxtables.obj
 0002:0000ef2c       ??_C@_0CE@EFDMMLHM@H?2XFK?$FL?5YFL?$FL?5KFYF?5KFKGXG?5LZYZY?$FL?5K@ 10062f2c     cxcore210:cxtables.obj
 0002:0000ef50       ??_C@_0CA@JLOIHIAI@I?2KFRPR?$FLS?$FL?5KFLFSP?5ZFYFRP?5ZFSPS?$FL?$AA@ 10062f50     cxcore210:cxtables.obj
 0002:0000ef70       ??_C@_0BO@JMLNHENO@H?2KFX?$FLY?$FL?5KFLFY?$FL?5YFXFK?$FL?5YFL?$FLK?$FL?$AA@ 10062f70     cxcore210:cxtables.obj
 0002:0000ef90       ??_C@_0CO@FGPMGPKM@E_GFM?$FL?5GFHFMX?5RFMX?5RIM?$FL?5RIW?$FL?5RFW@ 10062f90     cxcore210:cxtables.obj
 0002:0000efc0       ??_C@_0BK@OMIAHLKP@H?2JFR?$FL?5JFKFRX?5ZFYFRX?5ZFR?$FL?$AA@ 10062fc0     cxcore210:cxtables.obj
 0002:0000efdc       ??_C@_0DA@OGCJOOIO@G?$FNKFKULXNZQ?$FLS?$FLVZXXYUYF?5KFLFLUMXN@ 10062fdc     cxcore210:cxtables.obj
 0002:0000f00c       ??_C@_0BM@BHCDLJOI@J?$FLRGR?$FL?5SGS?$FLR?$FL?5LFYFYG?5LFLGYG?$AA@ 1006300c     cxcore210:cxtables.obj
 0002:0000f028       ??_C@_0FG@HJNLEEOD@H?2YIWGTFPFMGKIKKLMMNOOTQVRWSXUXX@ 10063028     cxcore210:cxtables.obj
 0002:0000f080       ??_C@_0EA@GLHLCKDM@H?2LFL?$FL?5MGM?$FLL?$FL?5LFTFWGXHYJYMXOWPTQ@ 10063080     cxcore210:cxtables.obj
 0002:0000f0c0       ??_C@_0FO@PECNGNFO@G?$FNPFNGLIKKJNJSKVLXNZP?$FLT?$FLVZXXYVZS@ 100630c0     cxcore210:cxtables.obj
 0002:0000f120       ??_C@_0DE@FHIHBBOH@H?2LFL?$FL?5MGM?$FLL?$FL?5LFUFWGXHYJYMXOWPUQ@ 10063120     cxcore210:cxtables.obj
 0002:0000f158       ??_C@_0FA@JGILOGCD@G?$FNPFNGLIKKJNJSKVLXNZP?$FLT?$FLVZXXYVZS@ 10063158     cxcore210:cxtables.obj
 0002:0000f1a8       ??_C@_0CE@KBIPEHCO@G?$FNKFK?$FL?5LIL?$FLK?$FL?5LIY?$FL?5KFXX?5XFXX?5XFY@ 100631a8     cxcore210:cxtables.obj
 0002:0000f1cc       ??_C@_0CO@DGNNAMJJ@F?$FOJFJ?$FL?5KKK?$FLJ?$FL?5KKR?$FL?5JFRX?5ZFRX?5YKR@ 100631cc     cxcore210:cxtables.obj
 0002:0000f1fc       ??_C@_0BK@ILDIFNDJ@IZMFM?$FL?5MFNFNZ?5NZYZY?$FL?5M?$FLY?$FL?$AA@ 100631fc     cxcore210:cxtables.obj
 0002:0000f218       ??_C@_0CI@HDHODLPO@H?$FNLFL?$FLM?$FL?5LFMFM?$FL?5ZFYFMR?5ZFMS?5POY?$FL@ 10063218     cxcore210:cxtables.obj
 0002:0000f240       ??_C@_0CI@DCBFDFJM@J?$FLVFVVUYSZQZOYNVMV?5VFWFWVVYUZS?$FLQ@ 10063240     cxcore210:cxtables.obj
 0002:0000f268       ??_C@_0BA@JIJCLHLD@NWRFR?$FLS?$FL?5RFSFS?$FL?$AA@ 10063268     cxcore210:cxtables.obj
 0002:0000f278       ??_C@_0CI@MLMCMGDJ@G?$FNKFK?$FL?5KFLFL?$FLK?$FL?5YFXFX?$FLY?$FL?5YFY?$FL?5LP@ 10063278     cxcore210:cxtables.obj
 0002:0000f2a0       ??_C@_0FI@ICDMBJHJ@H?$FNZKYIWGUFQFOGMILKKNKSLVMXOZQ?$FLU?$FL@ 100632a0     cxcore210:cxtables.obj
 0002:0000f2f8       ??_C@_0CG@FNDGFCAG@I?$FLMFM?$FL?5NGN?$FLM?$FL?5MFYF?5NGYGYF?5NPTPTQ@ 100632f8     cxcore210:cxtables.obj
 0002:0000f320       ??_C@_0DA@NEGHGGN@I?2MFM?$FL?5NGNZ?5MFYF?5NGYGYF?5NPTPTQ?5N@ 10063320     cxcore210:cxtables.obj
 0002:0000f350       ??_C@_0DO@KNKOJAF@H?$FNLFL?$FL?5MGMZ?5LFSFVGXIYKZNZSYVXXVZ@ 10063350     cxcore210:cxtables.obj
 0002:0000f390       ??_C@_0EM@GBLGBMEF@H?$FNZKYIWGUFQFOGMILKKNKSLVMXOZQ?$FLU?$FL@ 10063390     cxcore210:cxtables.obj
 0002:0000f3e0       ??_C@_0FE@NHGKENG@H?2LFL?$FL?5MGMZ?5LFTFWGXHYJYMXOWPTQ?5M@ 100633e0     cxcore210:cxtables.obj
 0002:0000f434       ??_C@_0CE@KHKODHPA@H?2RFJ?$FL?5RIK?$FLJ?$FL?5RIY?$FLZ?$FL?5RFZ?$FL?5MUWU?5L@ 10063434     cxcore210:cxtables.obj
 0002:0000f458       ??_C@_0GP@CAJDBFMP@Ca?$FN?4?2?4?$FL?1?$FL0?21?$FN1?$FO0?$FO?4?$FN?0?$FL?$CLY?$CLW?0U?4T0S3@ 10063458     cxcore210:cxtables.obj
 0002:0000f4c8       ??_C@_0BK@BBOKJBJJ@7Z?3RARRo?5?$EARQo?5?$DPRRr?5Z?$CCVJRr?$AA@ 100634c8     cxcore210:cxtables.obj
 0002:0000f4e8       ??_C@_0EA@BJHAAKIF@I?$FLN?4Q1S4U8V?$DNVCUITMQXP?2ObOgPlQoSs@ 100634e8     cxcore210:cxtables.obj
 0002:0000f528       ??_C@_0EA@KNFCAGDH@I?$FLV?4S1Q4O8N?$DNNCOIPMSXT?2UbUgTlSoQs@ 10063528     cxcore210:cxtables.obj
 0002:0000f568       ??_C@_0EL@NFPHDGBA@I?2N?$CLR1T5U?3U?$DOTBPJPLQNROWRRUQVPXPZ@ 10063568     cxcore210:cxtables.obj
 0002:0000f5b8       ??_C@_0EL@FPBHOIJN@H?$FLV?$CLR1P5O?3O?$DOPBTJTLSNROMRRUSVTXTZ@ 100635b8     cxcore210:cxtables.obj
 0002:0000f604       ??_C@_0BK@BDLKBCDM@I?$FLV?$CLVRVy?5W?$CLWRWy?5L?$CLW?$CL?5LyWy?$AA@ 10063604     cxcore210:cxtables.obj
 0002:0000f620       ??_C@_0BK@GKABCHGG@I?$FLM?$CLMRMy?5N?$CLNRNy?5M?$CLX?$CL?5MyXy?$AA@ 10063620     cxcore210:cxtables.obj
 0002:0000f63c       ??_C@_0DI@GKOAILOC@I?$FLL?$CLO1R8T?$DNUAVFWNWVV?$FOUcTgRlOsLy?5O@ 1006363c     cxcore210:cxtables.obj
 0002:0000f674       ??_C@_0DI@BOPPEGPH@I?$FLX?$CLU1R8P?$DNOANFMNMVN?$FOOcPgRlUsXy?5U@ 10063674     cxcore210:cxtables.obj
 0002:0000f6ac       ??_C@_0CK@BMAOOMBN@BaGBQPFb?5FBPP?5EBPQ?5EB?2B?$FOI?$FLB?5Ga?2a@ 100636ac     cxcore210:cxtables.obj
 0002:0000f6d8       ??_C@_0CF@IMDIOLMC@AcHBHb?5IBIb?5?$FLB?$FLb?5?2B?2b?5DB?$GAB?5DbMb?5@ 100636d8     cxcore210:cxtables.obj
 0002:0000f700       ??_C@_0KB@BFCOCCPE@D?$GAH?$DOHf?5I?$DOIf?5M?$DOMf?5QBSBSDQDQAR?$DPT?$DOW@ 10063700     cxcore210:cxtables.obj
 0002:0000f7a8       ??_C@_0KF@EEGLJNLF@IjNQOOQNSNUOVQVSUUSVQVOUNTMQMNNK@ 100637a8     cxcore210:cxtables.obj
 0002:0000f850       ??_C@_0DA@HJMOJCA@JZPOOMOKMKMMNNPOSOUNWL?5NKNN?5MLOL@ 10063850     cxcore210:cxtables.obj
 0002:0000f880       ??_C@_0EE@EANNMLCP@JZQCVMRTRU?5ULQS?5TITKPRRUUY?5W?2UYS@ 10063880     cxcore210:cxtables.obj
 0002:0000f8c4       ??_C@_0DP@JJNGPECL@H?2PMMNLOKQKSLUMVPWTWWVXUYSYQXOWN@ 100638c4     cxcore210:cxtables.obj
 0002:0000f904       ??_C@_0DE@KFABDCHG@D?$GAH?$EAHd?5M?$EAMd?5W?$EAWd?5?2?$EA?2d?5MMWK?5MNWL?5@ 10063904     cxcore210:cxtables.obj
 0002:0000f938       ??_C@_0MB@KCJJHAEP@EfNSOUQVSVUUVSVQUOSNQNOONPMSMVNY@ 10063938     cxcore210:cxtables.obj
 0002:0000fa00       ??_C@_0KK@DMENGBNF@A?$FOGfHfIeIdHcGcFdFfGhIiKiNhPfQdR?$GA@ 10063a00     cxcore210:cxtables.obj
 0002:0000faac       ??_C@_0DA@JFEBPM@JZPOOMOKMKMMNNPOSOUNWL?5NKNN?5MLOL@ 10063aac     cxcore210:cxtables.obj
 0002:0000fae0       ??_C@_0FJ@IMPAIGKF@JZMLWX?5MLONQOTOVNWMWKUKUMTO?5ONTO@ 10063ae0     cxcore210:cxtables.obj
 0002:0000fb3c       ??_C@_0CA@CLKLGLLC@JZMNMQ?5WNWQ?5MNWN?5MOWO?5MPWP?5MQWQ?$AA@ 10063b3c     cxcore210:cxtables.obj
 0002:0000fb5c       ??_C@_0CA@PGALJLKJ@E_HIHL?5?2I?2L?5HI?2I?5HJ?2J?5HK?2K?5HL?2L?$AA@ 10063b5c     cxcore210:cxtables.obj
 0002:0000fb7c       ??_C@_0DA@IEGDLLBN@JZNBNW?5NNQLTLVMWOWQVSSUQVNW?5NNQM@ 10063b7c     cxcore210:cxtables.obj
 0002:0000fbac       ??_C@_0CA@IFKHJJKH@JZNFNX?5VLV?$FO?5NNVL?5NOVM?5NWVU?5NXVV?$AA@ 10063bac     cxcore210:cxtables.obj
 0002:0000fbcc       ??_C@_0CA@PLIFDCGD@JZOGO?$FO?5UFU?$FN?5MNWL?5MOWM?5MWWU?5MXWV?$AA@ 10063bcc     cxcore210:cxtables.obj
 0002:0000fbec       ??_C@_0DP@BEOAOEGL@J?$FLSMPNNPMRMTNVPWRWUVWTXRXPWNUMSM@ 10063bec     cxcore210:cxtables.obj
 0002:0000fc30       ??_C@_0ED@KMEDODFC@H?2SMONLPKRKTLVNWQWUVXTYRYPXNVMSM@ 10063c30     cxcore210:cxtables.obj
 0002:0000fc74       ??_C@_0CD@NOIMOFEB@JZWKVMTOPQMR?5SPMS?5UFVGWIWKVNTPQR@ 10063c74     cxcore210:cxtables.obj
 0002:0000fc98       ??_C@_0CD@DMIHBFEK@JZMPQRTTVVWYW?$FLV?$FNU?$FO?5MQST?5MRPSTUVW@ 10063c98     cxcore210:cxtables.obj
 0002:0000fcbc       ??_C@_0BH@DGKHKPIK@NVQQQSSSSQQQ?5QQSS?5SQQS?$AA@ 10063cbc     cxcore210:cxtables.obj
 0002:0000fcd8       ??_C@_0FK@LCENANID@F?$FOJHNJPLQOQRPUNWJY?5JHMIOJQLRO?5RR@ 10063cd8     cxcore210:cxtables.obj
 0002:0000fd38       ??_C@_0EC@PGIKNNEE@F?$FOIOLLPN?5KMOORLUN?5QMTOWLYN?5VMXO?$FL@ 10063d38     cxcore210:cxtables.obj
 0002:0000fd80       ??_C@_0EB@CBNPPNLK@F?$FOHOJKOU?5JMOWRPWPZO?$FLM?$FLKZIXHWHUIT@ 10063d80     cxcore210:cxtables.obj
 0002:0000fdc4       ??_C@_0DL@EPPIHKIK@G?$FNZIJY?5ZIWJQJ?5XKUKQJ?5ZIYLYR?5XKXN@ 10063dc4     cxcore210:cxtables.obj
 0002:0000fe00       ??_C@_0DI@LEHNJGMH@F_GLJIMLMX?5IJLMLX?5MLPISLSX?5OJRMR@ 10063e00     cxcore210:cxtables.obj
 0002:0000fe38       ??_C@_0EP@DAOKPDIJ@F?$FOISMSLRKOKMLJNHQGSGVHXJYMYOXRWS@ 10063e38     cxcore210:cxtables.obj
 0002:0000fe88       ??_C@_0FK@CALCDFF@G_HKKHMKMV?5JILLLV?5MKPHRKRU?5OIQLQ@ 10063e88     cxcore210:cxtables.obj
 0002:0000fee8       ??_C@_0FP@BAAAHNAN@F?$FNOUMTLTJUIWIXJZL?$FLM?$FLOZPXPWOUJPIN@ 10063ee8     cxcore210:cxtables.obj
 0002:0000ff48       ??_C@_0FM@DCMPOGDG@F?$FO?$FLILIJJILINJPLQNQPPQNQLPJ?$FLJ?5IMJ@ 10063f48     cxcore210:cxtables.obj
 0002:0000ffa4       ??_C@_0DI@NDLEJGEB@F?$FOMJMV?5NKNU?5VKVU?5WJWV?5IGKIMJPKTK@ 10063fa4     cxcore210:cxtables.obj
 0002:0000ffe0       ??_C@_0GD@LOMCOPO@F?$FOIGJKKMMOPPTPWOYMZK?$FLG?5IGJJKLMNP@ 10063fe0     cxcore210:cxtables.obj
 0002:00010048       ??_C@_0EO@BNBMMMPP@F_JMILIJJHLGNGPHQIRKSP?5IJKHMHOIP@ 10064048     cxcore210:cxtables.obj
 0002:00010098       ??_C@_0BJ@NEFDHPDG@I?$FLKKYY?5QXUXYYXUXQ?5UXXXXU?$AA@ 10064098     cxcore210:cxtables.obj
 0002:000100b4       ??_C@_0BJ@CNLMOHLN@I?$FLYYKK?5SLOLKKLOLS?5OLLLLO?$AA@ 100640b4     cxcore210:cxtables.obj
 0002:000100d0       ??_C@_0BJ@PLIPKAEA@I?$FLYKKY?5LQLUKYOXSX?5LULXOX?$AA@ 100640d0     cxcore210:cxtables.obj
 0002:000100ec       ??_C@_0BJ@JCFOLIAG@I?$FLKYYK?5QLULYKXOXS?5ULXLXO?$AA@ 100640ec     cxcore210:cxtables.obj
 0002:00010108       ??_C@_0GA@ICAPONAM@F?$FONMLNKNIMHKHJIHKGLGNHOJOKNMKQJT@ 10064108     cxcore210:cxtables.obj
 0002:00010168       ??_C@_0GA@GNACKFJE@F?$FONVLUKUIVHXHYI?$FLK?2L?2N?$FLOYOXNVKRJO@ 10064168     cxcore210:cxtables.obj
 0002:000101c8       ??_C@_0BG@FGAFPIFH@H?2OKUY?5UKOY?5KOYU?5YOKU?$AA@ 100641c8     cxcore210:cxtables.obj
 0002:000101e0       ??_C@_0DE@GIHKPAKL@F_OQMQKRJSIUIWJYKZM?$FLO?$FLQZRYSWSURS@ 100641e0     cxcore210:cxtables.obj
 0002:00010214       ??_C@_0DA@GPICPGEK@H?$FLYGUGQHNJLMKPKSLVNYQ?$FLU?2Y?2?5YGVHS@ 10064214     cxcore210:cxtables.obj
 0002:00010244       ??_C@_0DL@GEDKHMLF@G?$FNLFL?$FL?5MFM?$FL?5IFUFXGYHZJZMYOXPUQMQ@ 10064244     cxcore210:cxtables.obj
 0002:00010280       ??_C@_0EF@LEJHKJPD@G?$FOQHRFR?$FL?5THSFS?$FL?5JHKFKMLPNRQSRS?5M@ 10064280     cxcore210:cxtables.obj
 0002:000102c8       ??_C@_0FF@NLDHMPLE@I?2RNOOMQLTLUMXOZR?$FLS?$FLVZXXYUYTXQVO@ 100642c8     cxcore210:cxtables.obj
 0002:00010320       ??_C@_0DJ@DGHBPJNH@I?2MFMU?5NFMQ?5MQNOONQMTMWNXPXRWTUV@ 10064320     cxcore210:cxtables.obj
 0002:0001035c       ??_C@_0DF@EPDMDJBF@F?2IIJGLFOFQGRIRLQOPQNSKU?5OFPGQIQ@ 1006435c     cxcore210:cxtables.obj
 0002:00010394       ??_C@_0DM@HOKFCMDL@G?$GAPMMNKPJSJTKWMYPZQZTYVWWTWSVPTN@ 10064394     cxcore210:cxtables.obj
 0002:000103d0       ??_C@_0DH@CPDLJLHC@D?$GAPFMGJIHLGOGSHVJYM?$FLP?2T?2W?$FLZY?2V?$FNS@ 100643d0     cxcore210:cxtables.obj
 0002:00010408       ??_C@_0DE@HEHIGGEP@I?2RFOGMILLLMMPORRSSSVRXPYMYLXIVG@ 10064408     cxcore210:cxtables.obj
 0002:00010440       ??_C@_0FE@EAAMHFIE@J?$FLPFNGOIQJ?5PFOGOI?5UFWGVITJ?5UFVGV@ 10064440     cxcore210:cxtables.obj
 0002:00010498       ??_C@_0EL@EFDAOJHI@E?$GAQFNGKIILHOHRIUKXNZQ?$FLT?$FLWZZX?2U?$FNR@ 10064498     cxcore210:cxtables.obj
 0002:000104e4       ??_C@_0BG@IOBNJHFH@I?2XFX?$FL?5KFXF?5PPXP?5K?$FLX?$FL?$AA@ 100644e4     cxcore210:cxtables.obj
 0002:00010500       ??_C@_0GH@GAIMKLLK@JZRFQHRJSHRF?5RFRT?5RPQRSVRXQVSRRP@ 10064500     cxcore210:cxtables.obj
 0002:00010568       ??_C@_0DI@FAIMBCFO@JZRFQHRJSHRF?5RFRb?5RQQTRbSTRQ?5LMN@ 10064568     cxcore210:cxtables.obj
 0002:000105a0       ??_C@_0FK@OHGEEJGN@JZUITJUKVJVIUGSFQFOGNINKOMQOVR?5O@ 100645a0     cxcore210:cxtables.obj
 0002:00010600       ??_C@_0FC@LBENALBF@H?2PBP_?5TBT_?5XIWJXKYJYIWGTFPFMGKI@ 10064600     cxcore210:cxtables.obj
 0002:00010658       ??_C@_0GO@EFODDCAH@E?$GAWNVLTKQKOLNMMPMSNUPVSVUUVS?5QKO@ 10064658     cxcore210:cxtables.obj
 0002:000106c8       ??_C@_0GB@HPHPKLDI@F_?$FLNZO?$FLP?2O?2N?$FLMZMYNXPVUTXRZP?$FLM?$FLJZ@ 100646c8     cxcore210:cxtables.obj
 0002:0001072c       ??_C@_0DP@PHKOFGPI@F?$FO?$FLFI?$FL?5NFPHPJOLMMKMIKIIJGLFNFPGS@ 1006472c     cxcore210:cxtables.obj
 0002:0001076c       ??_C@_0DF@BHJJEEMA@F_?2S?$FLUYVWVUUTTQPPONNLNJOIQISJULV@ 1006476c     cxcore210:cxtables.obj
 0002:000107a8       ??_C@_0GD@KAMGCHCA@F?$FO?$FLCZD?$FLE?2D?2C?$FLBYBWCUETGSJRNPZO?$FON?$GA@ 100647a8     cxcore210:cxtables.obj
 0002:0001080c       ??_C@_0BD@LAHJBIML@AbDMIMRY?5HNR?$FL?5b?3R?$FL?$AA@ 1006480c     cxcore210:cxtables.obj
 0002:00010820       ??_C@_0BL@CFBEJGCC@H?2JFR?$FL?5KFRY?5ZFR?$FL?5JFZF?5KGYG?$AA@ 10064820     cxcore210:cxtables.obj
 0002:00010840       ??_C@_0FH@MFOLCLJF@I?2XRWOVNTMRMONMQLTLWMYNZP?$FLR?$FLUZWX@ 10064840     cxcore210:cxtables.obj
 0002:00010898       ??_C@_0BF@CEOLLGEN@JZPXR?$FLTX?5MURZWU?5RIRZ?$AA@ 10064898     cxcore210:cxtables.obj
 0002:000108b0       ??_C@_0BF@CGPOHDLJ@E_LPIRLT?5OMJROW?5JR?$FLR?$AA@ 100648b0     cxcore210:cxtables.obj
 0002:000108c8       ??_C@_0BF@DHOABGMI@JZPLRITL?5MORJWO?5RJR?$FL?$AA@ 100648c8     cxcore210:cxtables.obj
 0002:000108e0       ??_C@_0BF@LLDPAPLG@E_XP?$FLRXT?5UMZRUW?5IRZR?$AA@ 100648e0     cxcore210:cxtables.obj
 0002:000108f8       ??_C@_0CA@OBHOGPK@F?$FOZJSJOKMLKNJQJSKVMXOYSZZZ?5JRVR?$AA@ 100648f8     cxcore210:cxtables.obj
 0002:00010918       ??_C@_0BL@PCDDCANG@F?$FOJZJSKOLMNKQJSJVKXMYOZSZZ?$AA@ 10064918     cxcore210:cxtables.obj
 0002:00010934       ??_C@_0BL@HPJAFEDM@F?$FOJJQJUKWLYNZQZSYVWXUYQZJZ?$AA@ 10064934     cxcore210:cxtables.obj
 0002:00010950       ??_C@_0BL@KPHGEJJL@F?$FOJJJQKULWNYQZSZVYXWYUZQZJ?$AA@ 10064950     cxcore210:cxtables.obj
 0002:0001096c       ??_C@_0BL@HHKACMHI@F?$FOZJSJOKMLKNJQJSKVMXOYSZZZ?$AA@ 1006496c     cxcore210:cxtables.obj
 0002:00010988       ??_C@_0BD@KEGIOKHE@E?$FLHMLMRY?5KMR?$FL?5?$FLBR?$FL?$AA@ 10064988     cxcore210:cxtables.obj
 0002:0001099c       ??_C@_0BB@LDLPMFLF@MWQFRGSISKRLQKRJ?$AA@ 1006499c     cxcore210:cxtables.obj
 0002:000109b0       ??_C@_0BB@IMAOKGAC@MWRHSGRFQGQIRKSL?$AA@ 100649b0     cxcore210:cxtables.obj
 0002:000109c4       ??_C@_0CE@LBCOKHKF@H?2KFLHNJQKSKVJXHYF?5KFLINKQLSLVKX@ 100649c4     cxcore210:cxtables.obj
 0002:000109e8       ??_C@_0O@JKOFBBJJ@LXPFUL?5PFOGUL?$AA@ 100649e8     cxcore210:cxtables.obj
 0002:000109f8       ??_C@_0O@GGMBLGFB@LXTFOL?5TFUGOL?$AA@ 100649f8     cxcore210:cxtables.obj
 0002:00010a08       ??_C@_0BA@EEKBNBGI@G?$FNJTROZT?5JTRPZT?$AA@ 10064a08     cxcore210:cxtables.obj
 0002:00010a18       ??_C@_0DA@CKOEBPJK@F?$FOIUISJPLONOPPTSVTXTZS?$FLQ?5ISJQLPN@ 10064a18     cxcore210:cxtables.obj
 0002:00010a48       ??_C@_0CL@EKIHILDH@F_?$FLWYWWVUTRPQOONMNKOJQJSKUMVOVQU@ 10064a48     cxcore210:cxtables.obj
 0002:00010a74       ??_C@_0BD@HGPHLDNM@F?$FOJFZMJT?5JVZV?5J?$FLZ?$FL?$AA@ 10064a74     cxcore210:cxtables.obj
 0002:00010a88       ??_C@_0BD@JBMDBDDE@F?$FOZFJMZT?5JVZV?5J?$FLZ?$FL?$AA@ 10064a88     cxcore210:cxtables.obj
 0002:00010a9c       ??_C@_0BB@EGBJCCIE@E_IM?$FLM?5IR?$FLR?5IW?$FLW?$AA@ 10064a9c     cxcore210:cxtables.obj
 0002:00010ab0       ??_C@_0BB@IPEMCODH@E_YIK?$FL?5IO?$FLO?5IU?$FLU?$AA@ 10064ab0     cxcore210:cxtables.obj
 0002:00010ac4       ??_C@_0BN@LDGCENDK@E_RIQJRKSJRI?5IR?$FLR?5RYQZR?$FLSZRY?$AA@ 10064ac4     cxcore210:cxtables.obj
 0002:00010ae4       ??_C@_0BH@CBNFAEL@MWQQQSSSSQQQ?5RQRS?5QRSR?$AA@ 10064ae4     cxcore210:cxtables.obj
 0002:00010afc       ??_C@_0BB@EIHPKENJ@F?$FORJR?$FL?5JJZJ?5JRZR?$AA@ 10064afc     cxcore210:cxtables.obj
 0002:00010b10       ??_C@_0BB@KHJMGCNK@F?$FORJR?$FL?5JRZR?5J?$FLZ?$FL?$AA@ 10064b10     cxcore210:cxtables.obj
 0002:00010b24       ??_C@_0M@EOJHADKL@KYOBOb?5UBUb?$AA@ 10064b24     cxcore210:cxtables.obj
 0002:00010b30       ??_C@_08FNBAOAL@KYOBVROb?$AA@ 10064b30     cxcore210:cxtables.obj
 0002:00010b3c       ??_C@_08IHFODHGO@KYUBNRUb?$AA@ 10064b3c     cxcore210:cxtables.obj
 0002:00010b48       ??_C@_0BB@FFALGMDN@JZRFRR?5MIWO?5WIMO?$AA@ 10064b48     cxcore210:cxtables.obj
 0002:00010b5c       ??_C@_0BG@FBKMLOCJ@JZNFMM?5OFMM?5VFUM?5WFUM?$AA@ 10064b5c     cxcore210:cxtables.obj
 0002:00010b74       ??_C@_0M@IPIDEDAD@NVRFQM?5SFQM?$AA@ 10064b74     cxcore210:cxtables.obj
 0002:00010b80       ??_C@_0DP@FDEMJJDH@I?$FLMJNKMLLKLJMHNGPFSFVGWHXJXLWNVO@ 10064b80     cxcore210:cxtables.obj
 0002:00010bc0       ??_C@_0BN@BCGGGNBL@MWRFQHRTSHRF?5RHRN?5RYQZR?$FLSZRY?$AA@ 10064bc0     cxcore210:cxtables.obj
 0002:00010be0       ??_C@_0BM@NNLPFJLD@MWRMQNROSNRM?5R?$FLQZRYSZS?2R?$FOQ_?$AA@ 10064be0     cxcore210:cxtables.obj
 0002:00010bfc       ??_C@_0BB@LKPDIAKF@MWR?$FLQZRYSZS?2R?$FOQ_?$AA@ 10064bfc     cxcore210:cxtables.obj
 0002:00010c10       ??_C@_0FP@OLKAHKCM@H?2XMWPURRSQSNRLPKMKLLINGQFSFVGXI@ 10064c10     cxcore210:cxtables.obj
 0002:00010c70       ??_C@_0HK@JBPLIKHN@H?2PFMGLILLMNPOTOWNXLXIWGTFPF?5PFN@ 10064c70     cxcore210:cxtables.obj
 0002:00010cec       ??_C@_0DL@HCHOKOON@H?2KFKL?5KJLHNFPFUIWIXHYF?5LHNGPGUI@ 10064cec     cxcore210:cxtables.obj
 0002:00010d28       ??_C@_0FP@PFCONIFE@H?2WIVJWKXJXIWGUFRFOGMILKKOKULXNZ@ 10064d28     cxcore210:cxtables.obj
 0002:00010d88       ??_C@_0EL@PEMIJNFJ@H?2MFKP?5KPMNPMSMVNXPYSYUXXVZS?$FLP?$FLM@ 10064d88     cxcore210:cxtables.obj
 0002:00010dd4       ??_C@_0BI@GONEJOOI@H?2THT?$FL?5UFU?$FL?5UFJUZU?5Q?$FLX?$FL?$AA@ 10064dd4     cxcore210:cxtables.obj
 0002:00010df0       ??_C@_0FM@OKFEALJI@H?2LJMKLLKKKJLHMGPFTFWGXIXLWNTOQO@ 10064df0     cxcore210:cxtables.obj
 0002:00010e50       ??_C@_0FI@JHGCODI@H?2LJMKLLKKKJLHMGPFTFWGXHYJYLXNUP@ 10064e50     cxcore210:cxtables.obj
 0002:00010ea8       ??_C@_0BF@FDJLNOL@H?2NJPISFS?$FL?5RGR?$FL?5N?$FLW?$FL?$AA@ 10064ea8     cxcore210:cxtables.obj
 0002:00010ec0       ??_C@_0EP@OKPOLLIF@H?2QFNGLJKOKRLWNZQ?$FLS?$FLVZXWYRYOXJVG@ 10064ec0     cxcore210:cxtables.obj
 0002:00010f10       ??_C@_0CI@COAIMPPI@LYMQNOPMSMTNTQRWRZS?$FL?5RMSNSQQWQZR@ 10064f10     cxcore210:cxtables.obj
 0002:00010f38       ??_C@_0KK@EPAJLAFG@?$EAcTGSHTIUHTGRFOFLGJIIKHNGRE?$FLD_Ca@ 10064f38     cxcore210:cxtables.obj
 0002:00010fe8       ??_C@_0KH@HNAMJNPL@?$EAcTGSHTIUHTGRFOFLGJIIKHNGRE?$FLD_Ca@ 10064fe8     cxcore210:cxtables.obj
 0002:00011090       ??_C@_0GI@CDHDOPJP@F?$FOYGXHYIZHZGXF?5?2FUFRGPIOKNNMRK?$FLJ@ 10065090     cxcore210:cxtables.obj
 0002:000110f8       ??_C@_0GF@GCJJJMFA@F?$FO?$FLGZH?$FLI?2H?$FLGXFUFRGPIOKNNMRK?$FLJ_Ia@ 100650f8     cxcore210:cxtables.obj
 0002:00011160       ??_C@_0IH@BAAJBBIK@E_YGXHYIZHYGWFTFQGOINKMNLRJ?$FLI_Ha@ 10065160     cxcore210:cxtables.obj
 0002:000111e8       ??_C@_0FJ@NHJBMFJA@G?$FNLMKNJPJRKUOYP?$FL?5JRKTOXP?$FLP?$FNO?$GAMbL@ 100651e8     cxcore210:cxtables.obj
 0002:00011244       ??_C@_0DG@NKEGGKCD@I?$FLTMVNXPXOWNTMQMNNMOLQLSMUOWSZ?5Q@ 10065244     cxcore210:cxtables.obj
 0002:00011280       ??_C@_0FB@LPJJOJPC@G?$FNUFOb?5VFNb?5QMMNKPJSJVKXMZP?$FLS?$FLWZ@ 10065280     cxcore210:cxtables.obj
 0002:000112d8       ??_C@_0FE@FNHPJAKC@I?2TFQGOJNLMOLTLXMZO?$FLQ?$FLTZVWWUXRYM@ 100652d8     cxcore210:cxtables.obj
 0002:0001132c       ??_C@_0DB@LCEEHCCI@IZWNUMRMONMPLSLVMYNZQ?$FLT?$FLVZ?5RMPNN@ 1006532c     cxcore210:cxtables.obj
 0002:00011360       ??_C@_0BG@LBNINADE@MXRMR?$FL?5SMS?$FL?5OMSM?5O?$FLV?$FL?$AA@ 10065360     cxcore210:cxtables.obj
 0002:00011378       ??_C@_0GH@JGHAFELC@BcRGQHRISHRGPFMFJGHIGLG?$FL?5MFKGIIH@ 10065378     cxcore210:cxtables.obj
 0002:000113e0       ??_C@_0GE@PLIBKPLM@BcRGQHRISHRGPFMFJGHIGLG?$FL?5MFKGIIH@ 100653e0     cxcore210:cxtables.obj
 0002:00011448       ??_C@_0EA@NPKLDPCF@G?$FNVGUHVIWHWGUF?5XFRFOGMILLL?$FL?5RFPG@ 10065448     cxcore210:cxtables.obj
 0002:00011488       ??_C@_0DN@DBEOMDMF@G?$FNWGVHWIXHWGUFRFOGMILLL?$FL?5RFPGNIM@ 10065488     cxcore210:cxtables.obj
 0002:000114c8       ??_C@_0FB@JDGIEJMJ@G?$FOVGUHVIWHWGUFRFOGMILLL?$FL?5RFPGNIM@ 100654c8     cxcore210:cxtables.obj
 0002:0001151c       ??_C@_0DL@OGGHHJJD@H?2YMXOVQNWLYK?$FL?5LQMOOMRMVO?5MOONRN@ 1006551c     cxcore210:cxtables.obj
 0002:00011558       ??_C@_0FA@NKFILKCB@G?2HQIOKMNMONOQMWMYO?$FL?5MMNNNQLWLYM@ 10065558     cxcore210:cxtables.obj
 0002:000115a8       ??_C@_0FC@EMBLOENK@H?2KQMNOMRMSOSR?5QMRORRQVPXNZL?$FLK?$FLJ@ 100655a8     cxcore210:cxtables.obj
 0002:00011600       ??_C@_0FA@BPBIENKD@C?$GADQEOGMJMKNKQIWIYK?$FL?5IMJNJQHWHYI@ 10065600     cxcore210:cxtables.obj
 0002:00011650       ??_C@_0DE@OOGNNPEA@H?2IQJOLMOMPNPQNWNYP?$FL?5NMONOQMWMYN@ 10065650     cxcore210:cxtables.obj
 0002:00011688       ??_C@_0EI@JKCOICOE@F?$FNGQHOJMMMNNNQLWLYN?$FL?5LMMNMQKWKYL@ 10065688     cxcore210:cxtables.obj
 0002:000116d0       ??_C@_0CD@NDNDKNOK@KYTFPTOXOZP?$FLS?$FLUYVW?5UFQTPXPZQ?$FL?5NM@ 100656d0     cxcore210:cxtables.obj
 0002:000116f4       ??_C@_0DI@PIHLEHCJ@J?$FLXOXPYPYOXNUMRMONNONQORVVWW?5NPO@ 100656f4     cxcore210:cxtables.obj
 0002:0001172c       ??_C@_0DD@BMFIFNMN@IZJQKOMMPMQNQPPTN?$FL?5OMPNPPOTM?$FL?5PT@ 1006572c     cxcore210:cxtables.obj
 0002:00011760       ??_C@_0DP@JCBBICNP@H?2XMRb?5YMSb?5VTVQUNSMQMNNLQKTKWLY@ 10065760     cxcore210:cxtables.obj
 0002:000117a0       ??_C@_0FB@FPPGAAGJ@G?2HQIOKMNMONOPNTJb?5MMNNNPMTIb?5NT@ 100657a0     cxcore210:cxtables.obj
 0002:000117f8       ??_C@_0EI@KDKABDEO@F?$FNGQHOJMMMNNNPMTK?$FL?5LMMNMPLTJ?$FL?5MT@ 100657f8     cxcore210:cxtables.obj
 0002:00011840       ??_C@_0GE@BDHFNLJI@AbBQCOEMHMINIPHTF?$FL?5GMHNHPGTE?$FL?5HT@ 10065840     cxcore210:cxtables.obj
 0002:000118a4       ??_C@_0CD@PDOICAAG@MYUFQTPXPZQ?$FLT?$FLVYWW?5VFRTQXQZR?$FL?5RF@ 100658a4     cxcore210:cxtables.obj
 0002:000118c8       ??_C@_0EA@GPGBNGKC@H?2PFJ?$FL?5QFK?$FL?5XNWOXPYOYNXMWMUNQROS@ 100658c8     cxcore210:cxtables.obj
 0002:00011908       ??_C@_0DP@GBMDGPDJ@LYVFUGVHWGVF?5NQOOQMTMUNUQR?$FLQ?$FOP?$GAO@ 10065908     cxcore210:cxtables.obj
 0002:00011948       ??_C@_0DD@NEIJBMCE@LYUFTGUHVGUF?5MQNOPMSMTNTQRWRZS?$FL?5@ 10065948     cxcore210:cxtables.obj
 0002:0001197c       ??_C@_0DL@JMJPFIJC@H?$FNPFJ?$FL?5QFK?$FL?5MTOPQNSMUMWNXOXQVWVZ@ 1006597c     cxcore210:cxtables.obj
 0002:000119b8       ??_C@_0FE@LGIPKBPD@H?2YMU?$FLT?$FORaObLbJaI?$GAI_J?$FOK_J?$GA?5XMT?$FLS@ 100659b8     cxcore210:cxtables.obj
 0002:00011a10       ??_C@_0EF@GBGMHMEF@KZZGYHZI?$FLH?$FLGZFXFVGUHTJSMP?$FLO_Na?5X@ 10065a10     cxcore210:cxtables.obj
 0002:00011a58       ??_C@_0DE@MOFAJIHC@I?$FLMVQUTTWRXPWNUMRMONMQLTLWMYNZP?$FL@ 10065a58     cxcore210:cxtables.obj
 0002:00011a90       ??_C@_0FB@CBDGINNB@H?$FNZFVTUXUZV?$FLY?$FL?$FLY?2W?5?$FLFWTVXVZW?$FL?5VT@ 10065a90     cxcore210:cxtables.obj
 0002:00011ae4       ??_C@_0DC@JNAKFKEJ@I?$FLWPWQXQXPWNUMRMONMQLTLWMYNZP?$FLR?$FL@ 10065ae4     cxcore210:cxtables.obj
 0002:00011b18       ??_C@_0EF@PDPGMLMF@H?$FLPFLSLVMYNZ?5QFMS?5MSNPPNRMTMVNWO@ 10065b18     cxcore210:cxtables.obj
 0002:00011b60       ??_C@_0EM@MJKBDLLP@H?$FNXMVTUXUZV?$FLY?$FL?$FLY?2W?5YMWTVXVZW?$FL?5VT@ 10065b60     cxcore210:cxtables.obj
 0002:00011bb0       ??_C@_0FG@HMFELFOE@F?$FNJQLOONNMLNJQITIWJZK?$FLM?$FLOZQWRT?5I@ 10065bb0     cxcore210:cxtables.obj
 0002:00011c08       ??_C@_0EC@LNCJEJA@F?$FNUFOb?5VFNb?5GQHOJMMMNNNPMUMXOZRZ@ 10065c08     cxcore210:cxtables.obj
 0002:00011c4c       ??_C@_0CN@HJNDHNKG@I?$FLKMMMONPPU_VaWb?5MMNNOPT_UaWbYb?5@ 10065c4c     cxcore210:cxtables.obj
 0002:00011c80       ??_C@_0EJ@NIDGIBDN@G?$FNONMOKQJTJWKYLZN?$FLQ?$FLTZWXYUZRZOXM@ 10065c80     cxcore210:cxtables.obj
 0002:00011ccc       ??_C@_0DN@BNGMAEJP@H?2IQJOLMOMPNPPNVNYP?$FL?5NMONOPMVMYN@ 10065ccc     cxcore210:cxtables.obj
 0002:00011d0c       ??_C@_0BO@GODJLIIP@H?2SNP?$FL?5SNQ?$FL?5JPLNOMZM?5JPLOONZN?$AA@ 10065d0c     cxcore210:cxtables.obj
 0002:00011d30       ??_C@_0EE@KFIBFLHJ@H?$FN?$FLMQMNNLQKTKWLYMZO?$FLQ?$FLTZVWWTWQVO@ 10065d30     cxcore210:cxtables.obj
 0002:00011d74       ??_C@_0DN@GEOJAIIK@H?$FLLVMYNZP?$FLR?$FLUZWWXTXQWOVNTMRMONMQ@ 10065d74     cxcore210:cxtables.obj
 0002:00011db4       ??_C@_0CI@EJIJMCIK@G?$FNPNL?$FL?5PNM?$FL?5VNV?$FL?5VNW?$FL?5IPKNNM?$FLM?5I@ 10065db4     cxcore210:cxtables.obj
 0002:00011ddc       ??_C@_0DP@BOMEPLDC@I?$FLRMONMQLTLWMYNZP?$FLR?$FLUZWWXTXQWOVN@ 10065ddc     cxcore210:cxtables.obj
 0002:00011e20       ??_C@_0FH@CEDHCBBK@IZTFRGQHQIRJUKXK?5UKQLOMNONQPSSTV@ 10065e20     cxcore210:cxtables.obj
 0002:00011e78       ??_C@_0CN@MFFCFKMN@H?2NML?$FL?5OMNSMXL?$FL?5YMXQVU?5ZMYPXRVUT@ 10065e78     cxcore210:cxtables.obj
 0002:00011ea8       ??_C@_0DF@DODPMBKK@F?$FNMMGb?5NMHb?5MPLVLYN?$FLP?$FLRZTXVU?5XMU@ 10065ea8     cxcore210:cxtables.obj
 0002:00011ee0       ??_C@_0CM@ENFKHBFH@H?2KFMFOGPHQJWXXZY?$FL?5MFOHPJVXWZY?$FLZ@ 10065ee0     cxcore210:cxtables.obj
 0002:00011f0c       ??_C@_0DH@LGMDHLAE@H?2NMJ?$FL?5OMK?$FL?5XMYNZNYMWMUNQROSMS?5O@ 10065f0c     cxcore210:cxtables.obj
 0002:00011f44       ??_C@_0BO@LJHGPHIG@LXRMPTOXOZP?$FLS?$FLUYVW?5SMQTPXPZQ?$FL?$AA@ 10065f44     cxcore210:cxtables.obj
 0002:00011f68       ??_C@_0FH@NOBJEFCM@F?$FNGQHOJMMMNNNPMUMXNZO?$FL?5LMMNMPLUL@ 10065f68     cxcore210:cxtables.obj
 0002:00011fc0       ??_C@_0DO@LDMNJKEB@G?$FNHQIOKMNMONOPNTL?$FL?5MMNNNPMTK?$FL?5NT@ 10065fc0     cxcore210:cxtables.obj
 0002:00012000       ??_C@_0DO@EINOOOLD@I?$FLTFRGQHQIRJUKZKZJWKSMPOMRLULWMY@ 10066000     cxcore210:cxtables.obj
 0002:00012040       ??_C@_0DO@JHOCJEAJ@I?$FLXPVNTMPMNNNPPRSS?5PMONOPQRSS?5SS@ 10066040     cxcore210:cxtables.obj
 0002:00012080       ??_C@_0FH@CABOLPLA@I?2VNTMRMONMQLTLWMYNZP?$FLR?$FLUZWWXTXQ@ 10066080     cxcore210:cxtables.obj
 0002:000120d8       ??_C@_0DG@HKJJPPAN@H?2IPKNMMOMQNROSRSVRZOb?5JOLNPNRO?5@ 100660d8     cxcore210:cxtables.obj
 0002:00012110       ??_C@_0GO@NIJFFJGM@G?2TFQGOIMMLPKTJZIb?5TFRGPINMMPLTK@ 10066110     cxcore210:cxtables.obj
 0002:00012180       ??_C@_0EO@NEDJDBNH@G?$FOQMNNLPKRJUJXKZN?$FLP?$FLRZUWWTYPZM?5Q@ 10066180     cxcore210:cxtables.obj
 0002:000121d0       ??_C@_0BO@HCDDMPDM@I?$FLWML?$FL?5XMM?$FL?5MMLQLMXM?5L?$FLX?$FLXWW?$FL?$AA@ 100661d0     cxcore210:cxtables.obj
 0002:000121f0       ??_C@_0CJ@MGCOKO@H?$FLLMR?$FL?5MMRY?5XMR?$FLP_NaLbKbJaK?$GALa?5J@ 100661f0     cxcore210:cxtables.obj
 0002:0001221c       ??_C@_0CF@HOBPNKIH@H?2LMW?$FL?5MMX?$FL?5XML?$FL?5JMPM?5TMZM?5J?$FLP?$FL?5@ 1006621c     cxcore210:cxtables.obj
 0002:00012244       ??_C@_0CK@GBACOCLP@F?$FOJMN?$FL?5KMNX?5RMN?$FL?5RMV?$FL?5SMVX?5ZMV?$FL?5@ 10066244     cxcore210:cxtables.obj
 0002:00012270       ??_C@_0BL@NPMPODPL@I?$FLLMR?$FL?5MMRY?5XMR?$FL?5JMPM?5TMZM?$AA@ 10066270     cxcore210:cxtables.obj
 0002:0001228c       ??_C@_0DD@KNFEEPIH@G?$FNLMLXMZP?$FLR?$FLUZWX?5MMMXNZP?$FL?5WMW?$FL?5X@ 1006628c     cxcore210:cxtables.obj
 0002:000122c0       ??_C@_0BP@EKFHCLDE@KZPFPWQZS?$FLU?$FLWZXX?5QFQWRZS?$FL?5MMUM?$AA@ 100662c0     cxcore210:cxtables.obj
 0002:000122e0       ??_C@_0EA@NEENLBOM@J?$FLWOXMXQWOVNTMPMNNMOMQNRPSUUWVXW@ 100662e0     cxcore210:cxtables.obj
 0002:00012320       ??_C@_0CL@LLACALFK@IZNMN?$FL?5OMO?$FL?5OSPPRNTMWMXNXOWPVOWN@ 10066320     cxcore210:cxtables.obj
 0002:0001234c       ??_C@_0DP@LFMCEDLP@H?2WMWb?5XMXb?5WPUNSMQMNNLPKSKULXNZ@ 1006634c     cxcore210:cxtables.obj
 0002:00012390       ??_C@_0EE@MDOHGCKI@G?2LMLb?5MMMb?5MPONQMSMVNXPYSYUXXVZ@ 10066390     cxcore210:cxtables.obj
 0002:000123d8       ??_C@_0EH@NDBGBEAK@H?2QMNNLPKSKULXNZQ?$FLS?$FLVZXXYUYSXPVN@ 100663d8     cxcore210:cxtables.obj
 0002:00012420       ??_C@_0DD@KOFHAJAO@G?$FNLML?$FL?5MMM?$FL?5MPONRMTMWNXPX?$FL?5TMVNW@ 10066420     cxcore210:cxtables.obj
 0002:00012458       ??_C@_0FA@FFLBINKF@BcGMG?$FL?5HMH?$FL?5HPJNMMOMRNSPS?$FL?5OMQNR@ 10066458     cxcore210:cxtables.obj
 0002:000124a8       ??_C@_0BG@NEEFLKNC@MXRFR?$FL?5SFS?$FL?5OFSF?5O?$FLV?$FL?$AA@ 100664a8     cxcore210:cxtables.obj
 0002:000124c0       ??_C@_0CP@BPLOFFDA@G?2LFL?$FL?5MFM?$FL?5WMMW?5RSX?$FL?5QSW?$FL?5IFMF?5@ 100664c0     cxcore210:cxtables.obj
 0002:000124f0       ??_C@_0DA@GACACOPM@MXSFRGSHTGSF?5TMT_SaQbObNaN?$GAO_P?$GAO@ 100664f0     cxcore210:cxtables.obj
 0002:00012520       ??_C@_0CB@DKJBODDN@MXRFQGRHSGRF?5RMR?$FL?5SMS?$FL?5OMSM?5O?$FLV?$FL@ 10066520     cxcore210:cxtables.obj
 0002:00012544       ??_C@_0DD@HMOJGFDO@G?$FNLFL?$FL?5MFM?$FL?5MPONRMTMWNXPX?$FL?5TMVNW@ 10066544     cxcore210:cxtables.obj
 0002:00012578       ??_C@_0HE@BCPJJDLE@I?2QMONNOMQMSNUOVQWSWUVVUWSWQVOUN@ 10066578     cxcore210:cxtables.obj
 0002:000125ec       ??_C@_0CK@JJEGLKLE@KXUGTHUIVHVGUFSFQGPIP?$FL?5SFRGQIQ?$FL?5@ 100665ec     cxcore210:cxtables.obj
 0002:00012618       ??_C@_0DN@MODFEPAA@H?$FLLSXSXQWOVNTMQMNNLPKSKULXNZQ?$FLS?$FL@ 10066618     cxcore210:cxtables.obj
 0002:00012658       ??_C@_0EE@PACCLDAK@H?$FNWFW?$FL?5XFX?$FL?5WPUNSMQMNNLPKSKULXNZ@ 10066658     cxcore210:cxtables.obj
 0002:0001269c       ??_C@_0DI@KLGOCCDK@H?$FLWPVQWRXQXPVNTMQMNNLPKSKULXNZQ?$FL@ 1006669c     cxcore210:cxtables.obj
 0002:000126d4       ??_C@_0DP@ILMEEJIJ@G?2LFL?$FL?5MFM?$FL?5MPONQMSMVNXPYSYUXXVZ@ 100666d4     cxcore210:cxtables.obj
 0002:00012718       ??_C@_0EM@CMLHOPEM@I?$FNNONPMPMONNPMTMVNWOXQXXYZZ?$FL?5WOW@ 10066718     cxcore210:cxtables.obj
 0002:00012764       ??_C@_0M@KHPNDIDK@F?$FORJIZ?5RJ?$FLZ?$AA@ 10066764     cxcore210:cxtables.obj
 0002:00012770       ??_C@_06PDBCKF@G?$FNIB?$FLb?$AA@ 10066770     cxcore210:cxtables.obj
 0002:00012778       ??_C@_0DL@GGIHNPO@H?2QIK?$FL?5SIY?$FL?5RIX?$FL?5MUVU?5I?$FLO?$FL?5U?$FL?$FL?$FL?5@ 10066778     cxcore210:cxtables.obj
 0002:000127b8       ??_C@_0FF@BBOCAKLB@H?2KILKXWYYY?$FL?5LLXX?5KIKKLMXYY?$FL?5PPL@ 100667b8     cxcore210:cxtables.obj
 0002:00012810       ??_C@_0BO@BKOOHHKM@G?$FN?$FLFH?$FL?5?2FI?$FL?5OFLLNF?2F?5H?$FLV?$FLXUU?$FL?$AA@ 10066810     cxcore210:cxtables.obj
 0002:00012830       ??_C@_0CE@BOBINDBA@H?$FNNFRPO?$FL?5OFSPP?$FL?5?$FNFSP?5LFRF?5YF_F?5L@ 10066830     cxcore210:cxtables.obj
 0002:00012854       ??_C@_0CF@CKMCIOHM@G?$FNNFU?$FL?5OFV?$FL?5?2FH?$FL?5LFRF?5XF?$FOF?5F?$FLL?$FL?5@ 10066854     cxcore210:cxtables.obj
 0002:0001287c       ??_C@_0CK@ICLFJDDH@E_MFK?$FL?5NFLY?5UFK?$FL?5UFS?$FL?5VFTY?5?$FNFS?$FL?5@ 1006687c     cxcore210:cxtables.obj
 0002:000128a8       ??_C@_0BL@IDPGAGHJ@H?2NFO?$FL?5OFPY?5?2FO?$FL?5LFRF?5XF?$FOF?$AA@ 100668a8     cxcore210:cxtables.obj
 0002:000128c4       ??_C@_0DA@KDOHAOK@F_NFKQJUJXKZN?$FLR?$FLUZWXXU?2F?5OFLQKUK@ 100668c4     cxcore210:cxtables.obj
 0002:000128f4       ??_C@_0BO@MHJHPLN@H?$FNUFO?$FL?5VFP?$FL?5OFLLNF?$FNF?2L?2F?5L?$FLS?$FL?$AA@ 100668f4     cxcore210:cxtables.obj
 0002:00012918       ??_C@_0EG@BGFIDLCD@G?$FOZH?$FLH?2F?$FLL?$FLJZHYGVFRFOGMIMKNMONVR@ 10066918     cxcore210:cxtables.obj
 0002:00012960       ??_C@_0EP@HMODLDAM@F?$FOOFI?$FL?5PFJ?$FL?5LFWFZG?$FLI?$FLKZNYOVPMP?5W@ 10066960     cxcore210:cxtables.obj
 0002:000129b0       ??_C@_0HH@LMDEHACE@G?$FNSFPGNILLKOJSJVKYLZN?$FLQ?$FLTZVXXUYR@ 100669b0     cxcore210:cxtables.obj
 0002:00012a28       ??_C@_0DD@CLMPPHPM@F?$FNOFI?$FL?5PFJ?$FL?5LFXF?$FLG?2I?2K?$FLNYPUQMQ?5X@ 10066a28     cxcore210:cxtables.obj
 0002:00012a60       ??_C@_0FD@GEJHIIAD@G?$FNSFPGNILLKOJSJVKYLZN?$FLQ?$FLTZVXXUYR@ 10066a60     cxcore210:cxtables.obj
 0002:00012ab4       ??_C@_0CF@JDPEKNBE@F_OFI?$FL?5OFVX?5OIV?$FL?5?2FV?$FL?5LFOF?5YF_F?5@ 10066ab4     cxcore210:cxtables.obj
 0002:00012adc       ??_C@_0DE@GHDDJCKP@E?$GANFH?$FL?5NFO?$FL?5OFPY?5?2FO?$FL?5?2FV?$FL?5?$FNFW?$FL?5@ 10066adc     cxcore210:cxtables.obj
 0002:00012b10       ??_C@_0BK@GPCJPAOO@H?2QFK?$FL?5RFL?$FL?5NFUF?5H?$FLW?$FLYUV?$FL?$AA@ 10066b10     cxcore210:cxtables.obj
 0002:00012b2c       ??_C@_0CP@EPGKMOME@F?$FNOFI?$FL?5PFJ?$FL?5?$FNFLS?5SOW?$FL?5ROV?$FL?5LFSF?5@ 10066b2c     cxcore210:cxtables.obj
 0002:00012b5c       ??_C@_0CJ@FEKMEBME@I?$FLXFSWRYQZO?$FLM?$FLKZJXJVKULVKW?5WFRWQ@ 10066b5c     cxcore210:cxtables.obj
 0002:00012b88       ??_C@_0BG@OMENBEAC@LYUFO?$FL?5VFP?$FL?5RFYF?5L?$FLS?$FL?$AA@ 10066b88     cxcore210:cxtables.obj
 0002:00012ba0       ??_C@_0CP@DNKBLFIL@E_NFH?$FL?5OFI?$FL?5?$FLFU?$FL?5?2FV?$FL?5KFRF?5XF_F?5@ 10066ba0     cxcore210:cxtables.obj
 0002:00012bd0       ??_C@_0FC@INLLPHAN@H?$FOZH?$FLH?2F?$FLL?$FLJZHYGWFTFQGOIMLLOKSKV@ 10066bd0     cxcore210:cxtables.obj
 0002:00012c24       ??_C@_0CE@JINDMOHN@F?2OFI?$FL?5PFJ?$FL?5TLRT?5LF?$FLFZLZF?5MPSP?5F@ 10066c24     cxcore210:cxtables.obj
 0002:00012c48       ??_C@_0CI@BKLCNGPH@F?$FNOFI?$FL?5PFJ?$FL?5TLRT?5LF?$FLFZLZF?5MPSP?5F@ 10066c48     cxcore210:cxtables.obj
 0002:00012c70       ??_C@_0DK@GJJBEDPB@F?$FNOFI?$FL?5PFJ?$FL?5LFUFXGYHZKZOYSWWUYSZ@ 10066c70     cxcore210:cxtables.obj
 0002:00012cb0       ??_C@_0EE@CDLICILO@H?$FNZH?$FLH?2F?$FLL?$FLJZHYGWFTFQGOIMLLOKSKV@ 10066cb0     cxcore210:cxtables.obj
 0002:00012cf8       ??_C@_0EO@EOPAKADJ@F?$FOOFI?$FL?5PFJ?$FL?5LFWFZG?$FLI?$FLKZNYOVP?5WFY@ 10066cf8     cxcore210:cxtables.obj
 0002:00012d48       ??_C@_0CA@EINGIIGC@H?2UFH?$FL?5UFV?$FL?5THU?$FL?5LUUU?5F?$FLL?$FL?5R?$FLX?$FL?$AA@ 10066d48     cxcore210:cxtables.obj
 0002:00012d68       ??_C@_0FD@PNENGOEK@G?$FNJXK?$FLO?$FLMWKSJPJLKIMGPFTFWGYIZLZP@ 10066d68     cxcore210:cxtables.obj
 0002:00012dc0       ??_C@_0EN@BJHCEIHP@G?$FORFR?$FL?5SFS?$FL?5IMJLLMMQNSOTQU?5JLKML@ 10066dc0     cxcore210:cxtables.obj
 0002:00012e10       ??_C@_0FL@BIIFJKHH@H?$FNRFR?$FL?5SFS?$FL?5PKMLLMKOKRLTMUPVUVXU@ 10066e10     cxcore210:cxtables.obj
 0002:00012e6c       ??_C@_0DP@LDJBDPLK@I?2KKKILGMFOFPGQIRMR?$FL?5KIMGOGQI?5ZK@ 10066e6c     cxcore210:cxtables.obj
 0002:00012eac       ??_C@_0CF@DMECFOIA@H?$FNKFRPJ?$FL?5JFQP?5JFYFZLXF?5KZXZ?5J?$FLY?$FL@ 10066eac     cxcore210:cxtables.obj
 0002:00012ed4       ??_C@_0CF@BDAHDHLI@F?$FOKFK?$FL?5LFL?$FL?5XFX?$FL?5YFY?$FL?5HF?2F?5H?$FLO?$FL?5@ 10066ed4     cxcore210:cxtables.obj
 0002:00012efc       ??_C@_0DO@EKONNFKE@G?$FNKEJJ?5ZEYJ?5ONNS?5VNUS?5KWJ?2?5ZWY?2?5@ 10066efc     cxcore210:cxtables.obj
 0002:00012f3c       ??_C@_0BL@PNGFCCPJ@H?2RFK?$FL?5RFY?$FL?5RIX?$FL?5I?$FLO?$FL?5U?$FL?$FL?$FL?$AA@ 10066f3c     cxcore210:cxtables.obj
 0002:00012f58       ??_C@_0GL@FJGKLHEM@G?$FNQFNGLIKKJOJRKVLXNZQ?$FLS?$FLVZXXYVZR@ 10066f58     cxcore210:cxtables.obj
 0002:00012fc4       ??_C@_0BL@LNFJFBMI@H?2RFJ?$FL?5RFZ?$FL?5RIY?$FL?5KZYZ?5J?$FLZ?$FL?$AA@ 10066fc4     cxcore210:cxtables.obj
 0002:00012fe0       ??_C@_0BK@LDEPBKBN@I?$FLNFN?$FL?5OFO?$FL?5KFZFZLYF?5K?$FLR?$FL?$AA@ 10066fe0     cxcore210:cxtables.obj
 0002:00012ffc       ??_C@_0BO@ODDKPFKJ@H?2XFK?$FL?5YFL?$FL?5LFKLKFYF?5K?$FLY?$FLYUX?$FL?$AA@ 10066ffc     cxcore210:cxtables.obj
 0002:0001301c       ??_C@_0CE@PPPIODHH@H?$FNKFRQR?$FL?5LFSQS?$FL?5ZFSQ?5IFOF?5VF?2F?5O@ 1006701c     cxcore210:cxtables.obj
 0002:00013040       ??_C@_0CF@CMGKOJHL@H?2KFX?$FL?5LFY?$FL?5YFK?$FL?5IFOF?5UF?$FLF?5I?$FLO?$FL?5@ 10067040     cxcore210:cxtables.obj
 0002:00013068       ??_C@_0CK@CHHABON@F?$FOJFN?$FL?5KFNV?5RFN?$FL?5RFV?$FL?5SFVV?5ZFV?$FL?5@ 10067068     cxcore210:cxtables.obj
 0002:00013094       ??_C@_0BL@FFJPCOGA@H?2KFR?$FL?5LFRX?5YFR?$FL?5IFOF?5UF?$FLF?$AA@ 10067094     cxcore210:cxtables.obj
 0002:000130b0       ??_C@_0CM@HFPADJAN@F?$FOKFKULXNZQ?$FLS?$FLVZXXYUYF?5LFLUMXOZQ@ 100670b0     cxcore210:cxtables.obj
 0002:000130dc       ??_C@_0BO@GGAFFNAG@I?2RFR?$FL?5SFS?$FL?5LFKLKFZFZLYF?5O?$FLV?$FL?$AA@ 100670dc     cxcore210:cxtables.obj
 0002:00013100       ??_C@_0EE@ENANPAPK@H?2XIYFYLXIVGSFPFMGKIKKLMMNOOUQWR@ 10067100     cxcore210:cxtables.obj
 0002:00013148       ??_C@_0FF@NAHCLECC@G?$FNLFL?$FL?5MFM?$FL?5IFUFXGYHZJZLYNXOUPMP@ 10067148     cxcore210:cxtables.obj
 0002:000131a0       ??_C@_0HN@PIHLCKKP@G?$FNQFNGLIKKJOJRKVLXNZQ?$FLS?$FLVZXXYVZR@ 100671a0     cxcore210:cxtables.obj
 0002:00013220       ??_C@_0DH@PKIIJIEL@G?$FNLFL?$FL?5MFM?$FL?5IFUFXGYHZJZMYOXPUQMQ@ 10067220     cxcore210:cxtables.obj
 0002:00013258       ??_C@_0FH@GNMODGBO@G?$FNQFNGLIKKJOJRKVLXNZQ?$FLS?$FLVZXXYVZR@ 10067258     cxcore210:cxtables.obj
 0002:000132b0       ??_C@_0CF@OJILNHPB@G?$FOLFL?$FL?5MFYY?5MHY?$FL?5YFY?$FL?5IFMF?5VF?2F?5@ 100672b0     cxcore210:cxtables.obj
 0002:000132d8       ??_C@_0DE@HJFEALAD@F_KFK?$FL?5LFRX?5KFR?$FL?5YFR?$FL?5YFY?$FL?5ZFZ?$FL?5@ 100672d8     cxcore210:cxtables.obj
 0002:0001330c       ??_C@_0BK@CPNDOFO@I?$FLNFN?$FL?5OFO?$FL?5KFRF?5K?$FLZ?$FLZUY?$FL?$AA@ 1006730c     cxcore210:cxtables.obj
 0002:00013328       ??_C@_0CP@DEAEKNGO@F?2KFK?$FL?5LFL?$FL?5YFLS?5QOY?$FL?5POX?$FL?5HFOF?5@ 10067328     cxcore210:cxtables.obj
 0002:00013358       ??_C@_0CH@ODHKEFOJ@KZUFUWTZR?$FLP?$FLNZMXMVNUOVNW?5TFTWSZR@ 10067358     cxcore210:cxtables.obj
 0002:00013380       ??_C@_0BG@JMKFLELG@MXRFR?$FL?5SFS?$FL?5OFVF?5O?$FLV?$FL?$AA@ 10067380     cxcore210:cxtables.obj
 0002:00013398       ??_C@_0CP@HOABHCFB@F?$FOKFK?$FL?5LFL?$FL?5XFX?$FL?5YFY?$FL?5HFOF?5UF?2F?5@ 10067398     cxcore210:cxtables.obj
 0002:000133c8       ??_C@_0EN@FHCJKCAB@G?$FOXIYLYFXIVGSFQFNGLIKKJNJSKVLXNZ@ 100673c8     cxcore210:cxtables.obj
 0002:00013418       ??_C@_0CE@GJNBIFH@G?$FLLFL?$FL?5MFM?$FL?5SLST?5IFYFYLXF?5MPSP?5I@ 10067418     cxcore210:cxtables.obj
 0002:0001343c       ??_C@_0CI@DMAFEMMB@G?2LFL?$FL?5MFM?$FL?5SLST?5IFYFYLXF?5MPSP?5I@ 1006743c     cxcore210:cxtables.obj
 0002:00013464       ??_C@_0DK@DNFLMEGE@G?$FNLFL?$FL?5MFM?$FL?5IFSFVGXIYKZNZSYVXXVZ@ 10067464     cxcore210:cxtables.obj
 0002:000134a0       ??_C@_0EA@DIOAINOP@G?2XIYLYFXIVGSFQFNGLIKKJNJSKVLXNZ@ 100674a0     cxcore210:cxtables.obj
 0002:000134e0       ??_C@_0FG@ENHAINDO@G?$FNLFL?$FL?5MFM?$FL?5IFUFXGYHZJZLYNXOUP?5U@ 100674e0     cxcore210:cxtables.obj
 0002:00013538       ??_C@_0CA@CMMDFKDK@H?2RFK?$FL?5RFY?$FL?5RIX?$FL?5MUVU?5I?$FLO?$FL?5U?$FL?$FL?$FL?$AA@ 10067538     cxcore210:cxtables.obj
 0002:00013558       ??_C@_0EA@OFEOEIOF@F?$FO?$FLCZD?$FLE?2D?2C?$FLBYBWCUETGSJRNPZO?$FON?$GA@ 10067558     cxcore210:cxtables.obj
 0002:00013598       ??_C@_0BI@HBIFGEKE@AXCRGRR?$GA?5GSRa?5FSRb?5X?3Rb?$AA@ 10067598     cxcore210:cxtables.obj
 0002:000135b0       ??_C@_0DA@PCNDCBJG@KYO?$EARCTFUIULTOQVPYP?2Q_Ra?5RCSETHT@ 100675b0     cxcore210:cxtables.obj
 0002:000135e0       ??_C@_0DA@IAPNBLNM@KYU?$EARCPFOIOLPOSVTYT?2S_Ra?5RCQEPHP@ 100675e0     cxcore210:cxtables.obj
 0002:00013610       ??_C@_0DD@FBDLJJKM@KZPBSETHTJSMQOQPURQTQUSWTZT?2S_Pb@ 10067610     cxcore210:cxtables.obj
 0002:00013644       ??_C@_0DD@LPNLFDKA@JYTBQEPHPJQMSOSPORSTSUQWPZP?2Q_Tb@ 10067644     cxcore210:cxtables.obj
 0002:00013678       ??_C@_0BG@CMKBFCFL@KYTBTb?5UBUb?5NBUB?5NbUb?$AA@ 10067678     cxcore210:cxtables.obj
 0002:00013690       ??_C@_0BG@FNKCLLNM@KYOBOb?5PBPb?5OBVB?5ObVb?$AA@ 10067690     cxcore210:cxtables.obj
 0002:000136a8       ??_C@_0CI@HLMLILLA@KYNBPDRGTKUPUTTYR?$FNP?$GANb?5PDRHSKTPT@ 100676a8     cxcore210:cxtables.obj
 0002:000136d0       ??_C@_0CI@HANNJGFB@KYVBTDRGPKOPOTPYR?$FNT?$GAVb?5TDRHQKPPP@ 100676d0     cxcore210:cxtables.obj
 0002:000136f8       ??_C@_0CF@HEIOJGBB@H?$FNKHRQJ?2?5JHQQ?5JHYHZMXH?5K?$FLX?$FL?5J?2Y?2@ 100676f8     cxcore210:cxtables.obj
 0002:00013720       ??_C@_0CF@IAGIFOAB@F?$FOKHK?2?5LHL?2?5XHX?2?5YHY?2?5HH?2H?5H?2O?2?5@ 10067720     cxcore210:cxtables.obj
 0002:00013748       ??_C@_0EE@EDHAEHHI@J?$FLOOMOLNLLMKOKPLPNNPMRMUNWOXQYTY@ 10067748     cxcore210:cxtables.obj
 0002:00013790       ??_C@_0EE@FIPNDBMO@J?$FLOUMULVLXMYOYPXPVNTMRMONMOLQKTK@ 10067790     cxcore210:cxtables.obj
 0002:000137d4       ??_C@_0BG@BBJECMMH@KYPMTW?5TMPW?5MPWT?5WPMT?$AA@ 100677d4     cxcore210:cxtables.obj
 0002:000137ec       ??_C@_0CM@CGFOOHFM@JZRRPQOQMRLTLUMWOXPXRWSUSTRR?5SLQ@ 100677ec     cxcore210:cxtables.obj
 0002:00013818       ??_C@_0CI@JBICFDOM@LYWKTKQLONNQNSOVQXTYWY?5WKTLRNQQQ@ 10067818     cxcore210:cxtables.obj
 0002:00013840       ??_C@_0DD@DFLFBNJC@JYNKNX?5OKOX?5LKSKVLWNWOVQSROR?5SKU@ 10067840     cxcore210:cxtables.obj
 0002:00013874       ??_C@_0DC@DOHCDODG@JZRKRY?5MKMPNRPSTSVRWPWK?5LMMKNM?5Q@ 10067874     cxcore210:cxtables.obj
 0002:000138a8       ??_C@_0DE@FGGPDID@LYONRKRQ?5VNSKSQ?5RQPROTOUPWRXSXUW@ 100678a8     cxcore210:cxtables.obj
 0002:000138dc       ??_C@_0DD@KCBJPDAB@JYNKNU?5OKNR?5NROPQOSOUPVQVTTVTXUY@ 100678dc     cxcore210:cxtables.obj
 0002:00013910       ??_C@_0CP@FDKIOKIE@JZLLMKOKQLRNRPQRPSNT?5OKPLQNQQPS?5@ 10067910     cxcore210:cxtables.obj
 0002:00013940       ??_C@_0DA@GOKCBMBK@JYRRPQOQMRLTLUMWOXPXRWSUSTRR?5WMR@ 10067940     cxcore210:cxtables.obj
 0002:00013970       ??_C@_0CP@NKPKPPKP@H?2QKNLLNKQKSLVNXQYSYVXXVYSYQXNVL@ 10067970     cxcore210:cxtables.obj
 0002:000139a0       ??_C@_0CM@BCKJPFKK@LYRKPLONOOPQRRSRUQVOVNULSKRK?5RRR@ 100679a0     cxcore210:cxtables.obj
 0002:000139cc       ??_C@_0DO@HCJBNHMB@LYQKPLPMQN?5TKULUMTN?5RNPOOQORPTRU@ 100679cc     cxcore210:cxtables.obj
 0002:00013a0c       ??_C@_0DA@MPGLPGGE@H?2QKNLLNKQKSLVNXQYSYVXXVYSYQXNVL@ 10067a0c     cxcore210:cxtables.obj
 0002:00013a3c       ??_C@_0BG@HMEFIOMF@LYVKVX?5NKVK?5QQVQ?5NXVX?$AA@ 10067a3c     cxcore210:cxtables.obj
 0002:00013a58       ??_C@_0FC@CEOAAHBJ@LXRMSLRKQLRMRQQRSURV?5RQSRQURVRZQ@ 10067a58     cxcore210:cxtables.obj
 0002:00013aac       ??_C@_0DH@EKKECPOJ@LXRKQLRMSLRK?5RMRQ?5RQQSRVSSRQ?5RVR@ 10067aac     cxcore210:cxtables.obj
 0002:00013ae8       ??_C@_0EO@CGFHMJHI@LXTLSLSMTMTLSKQKPLPNQPTRUS?5PNQOT@ 10067ae8     cxcore210:cxtables.obj
 0002:00013b38       ??_C@_0BG@HPOOKHDA@KYPKP?$FL?5TKT?$FL?5MQWQ?5MUWU?$AA@ 10067b38     cxcore210:cxtables.obj
 0002:00013b50       ??_C@_0EC@POJOIMFL@KZQHQ?2?5THT?2?5WLVLVMWMWLUKPKNLNNOP@ 10067b50     cxcore210:cxtables.obj
 0002:00013b94       ??_C@_0DK@MEENPPAF@J?$FLUPSOQOPQPRQTSTUS?5UOUSVTXTYRYQX@ 10067b94     cxcore210:cxtables.obj
 0002:00013bd0       ??_C@_0FB@CENCNEMB@J?$FLYPXPXQYQYPXOWOVPUTTVSWQXOXMWLV@ 10067bd0     cxcore210:cxtables.obj
 0002:00013c24       ??_C@_0DD@HJGNADLJ@JZXKLX?5OKPLPNOOMOLNLLMKOKSLVLXK?5@ 10067c24     cxcore210:cxtables.obj
 0002:00013c58       ??_C@_0DF@MAKHGLDL@H?2ZRYTWUVUTTSSQPPONNMNKOJQJRKTMU@ 10067c58     cxcore210:cxtables.obj
 0002:00013c90       ??_C@_0EP@HKEIPEMN@I?$FLXIXJYJYIXHVHTJSLROQUPYO?$FL?5UITKS@ 10067c90     cxcore210:cxtables.obj
 0002:00013ce0       ??_C@_0DE@KLGFIBOO@I?$FLXIXJYJYIXHVHTJSLROQUPYO?$FL?5UITKS@ 10067ce0     cxcore210:cxtables.obj
 0002:00013d14       ??_C@_0BD@GDNEODJJ@G?$FLIOLORW?5KORX?5?$FLFRX?$AA@ 10067d14     cxcore210:cxtables.obj
 0002:00013d28       ??_C@_0BL@JLBPFLCJ@JZLKRX?5MKRV?5XKRX?5LKXK?5NLWL?$AA@ 10067d28     cxcore210:cxtables.obj
 0002:00013d48       ??_C@_0EJ@CHIAMBNN@KYVSUPSOQOOPNQMSMUNWPXRXTWUVVTWQ@ 10067d48     cxcore210:cxtables.obj
 0002:00013d94       ??_C@_0BJ@NFPDGDAG@MWRLRW?5OTPURXTUUT?5PURWTU?$AA@ 10067d94     cxcore210:cxtables.obj
 0002:00013db0       ??_C@_0BJ@KLCAGEOB@I?$FLPOOPLROTPU?5OPMROT?5MRXR?$AA@ 10067db0     cxcore210:cxtables.obj
 0002:00013dcc       ??_C@_0BJ@KGOONPKD@MWRMRX?5OPPORLTOUP?5PORMTO?$AA@ 10067dcc     cxcore210:cxtables.obj
 0002:00013de8       ??_C@_0BJ@HJGBJNOI@I?$FLTOUPXRUTTU?5UPWRUT?5LRWR?$AA@ 10067de8     cxcore210:cxtables.obj
 0002:00013e04       ??_C@_0BM@HIPIHILM@JZWMQMONNOMQMSNUOVQWWW?5MRUR?$AA@ 10067e04     cxcore210:cxtables.obj
 0002:00013e20       ??_C@_0BH@HPDIBNEK@JZMWMQNOONQMSMUNVOWQWW?$AA@ 10067e20     cxcore210:cxtables.obj
 0002:00013e38       ??_C@_0BH@DCFMFBMK@JZMMSMUNVOWQWSVUUVSWMW?$AA@ 10067e38     cxcore210:cxtables.obj
 0002:00013e50       ??_C@_0BH@ELNEPGLF@JZMMMSNUOVQWSWUVVUWSWM?$AA@ 10067e50     cxcore210:cxtables.obj
 0002:00013e68       ??_C@_0BH@BPGKFCKM@JZWMQMONNOMQMSNUOVQWWW?$AA@ 10067e68     cxcore210:cxtables.obj
 0002:00013e80       ??_C@_0BB@EOBFHLMF@NVQKSMSORPQORNSO?$AA@ 10067e80     cxcore210:cxtables.obj
 0002:00013e94       ??_C@_0BB@DAMGJIBO@NVQLRMSLRKQLQNSP?$AA@ 10067e94     cxcore210:cxtables.obj
 0002:00013ea8       ??_C@_0BB@EKLIADJJ@NVSKQMQORPSORNQO?$AA@ 10067ea8     cxcore210:cxtables.obj
 0002:00013ebc       ??_C@_0BB@COPHAGGJ@NVSLRMQLRKSLSNQP?$AA@ 10067ebc     cxcore210:cxtables.obj
 0002:00013ed0       ??_C@_0BM@LHAGICLN@LXNKOMQNSNUMVK?5NKONQOSOUNVK?$AA@ 10067ed0     cxcore210:cxtables.obj
 0002:00013eec       ??_C@_0O@CKECJNL@NVQKTO?5QKPLTO?$AA@ 10067eec     cxcore210:cxtables.obj
 0002:00013efc       ??_C@_0O@ICGCAIAL@NVSKPO?5SKTLPO?$AA@ 10067efc     cxcore210:cxtables.obj
 0002:00013f0c       ??_C@_0BA@EFECIKAA@JZMSRPWS?5MSRQWS?$AA@ 10067f0c     cxcore210:cxtables.obj
 0002:00013f1c       ??_C@_0CA@INOOGPEN@JZLTLRMPOPUSWSXR?5LRMQOQUTWTXRXP?$AA@ 10067f1c     cxcore210:cxtables.obj
 0002:00013f3c       ??_C@_0CL@IHBFMLLM@H?$FLYUWUUTTSRPQOONNNLOKQKRLTNUOUQT@ 10067f3c     cxcore210:cxtables.obj
 0002:00013f68       ??_C@_0BD@ODBFJHLA@JZMKWOMS?5MTWT?5MXWX?$AA@ 10067f68     cxcore210:cxtables.obj
 0002:00013f7c       ??_C@_0BD@GLFNPDDB@JZWKMOWS?5MTWT?5MXWX?$AA@ 10067f7c     cxcore210:cxtables.obj
 0002:00013f90       ??_C@_08CKPNEOFF@JZMLWRMX?$AA@ 10067f90     cxcore210:cxtables.obj
 0002:00013f9c       ??_C@_08NCLCCEFA@JZWLMRWX?$AA@ 10067f9c     cxcore210:cxtables.obj
 0002:00013fa8       ??_C@_0BB@IBCFIIJG@I?$FLLNXN?5LRXR?5LVXV?$AA@ 10067fa8     cxcore210:cxtables.obj
 0002:00013fbc       ??_C@_0BB@JBIGLLPJ@I?$FLWLMX?5LPXP?5LTXT?$AA@ 10067fbc     cxcore210:cxtables.obj
 0002:00013fd0       ??_C@_0M@EDAFIGNO@I?$FLLPXP?5LTXT?$AA@ 10067fd0     cxcore210:cxtables.obj
 0002:00013fdc       ??_C@_0BN@GBPBCJJK@I?$FLRLQMRNSMRL?5LRXR?5RVQWRXSWRV?$AA@ 10067fdc     cxcore210:cxtables.obj
 0002:00013ffc       ??_C@_0N@IMPHJFKJ@NVRQQRRSSRRQ?$AA@ 10067ffc     cxcore210:cxtables.obj
 0002:0001400c       ??_C@_0M@FADOOFAK@JZMMWW?5WMMW?$AA@ 1006800c     cxcore210:cxtables.obj
 0002:00014018       ??_C@_0BB@HJOCOKJD@JZRMRX?5MMWM?5MRWR?$AA@ 10068018     cxcore210:cxtables.obj
 0002:0001402c       ??_C@_0BB@OFPIDPK@JZRMRX?5MRWR?5MXWX?$AA@ 1006802c     cxcore210:cxtables.obj
 0002:00014040       ??_C@_0M@OBIICMBF@I?$FLRLRX?5LRXR?$AA@ 10068040     cxcore210:cxtables.obj
 0002:0001404c       ??_C@_06MDGMNKKA@I?$FLLRXR?$AA@ 1006804c     cxcore210:cxtables.obj
 0002:00014054       ??_C@_0M@PPEKJIKA@MWPHP?2?5THT?2?$AA@ 10068054     cxcore210:cxtables.obj
 0002:00014060       ??_C@_06OJNGLIKK@OURHR?2?$AA@ 10068060     cxcore210:cxtables.obj
 0002:00014068       ??_C@_08HPDDAGKC@MWPHTRP?2?$AA@ 10068068     cxcore210:cxtables.obj
 0002:00014074       ??_C@_08HJPFCMKN@MWTHPRT?2?$AA@ 10068074     cxcore210:cxtables.obj
 0002:00014080       ??_C@_0DB@NOHJLCPD@MXQHRISKSMRORPTRRTRUSWSYR?$FLQ?2?5RIS@ 10068080     cxcore210:cxtables.obj
 0002:000140b4       ??_C@_0DB@GLONCNOE@LWSHRIQKQMRORPPRRTRUQWQYR?$FLS?2?5RIQ@ 100680b4     cxcore210:cxtables.obj
 0002:000140e8       ??_C@_0BG@LMNBLEAN@MWSHS?2?5THT?2?5OHTH?5O?2T?2?$AA@ 100680e8     cxcore210:cxtables.obj
 0002:00014100       ??_C@_0BG@COCLJJKC@MWPHP?2?5QHQ?2?5PHUH?5P?2U?2?$AA@ 10068100     cxcore210:cxtables.obj
 0002:00014118       ??_C@_0CA@NGMMOBHJ@MWOHQJSMTPTTSWQZO?2?5QJRLSPSTRXQZ?$AA@ 10068118     cxcore210:cxtables.obj
 0002:00014138       ??_C@_0CA@MCCOHIFH@MWUHSJQMPPPTQWSZU?2?5SJRLQPQTRXSZ?$AA@ 10068138     cxcore210:cxtables.obj
 0002:00014158       ??_C@_06LBAFNCIA@KZXHM?2?$AA@ 10068158     cxcore210:cxtables.obj
 0002:00014160       ??_C@_0BB@BHGONNO@MWRJRP?5OKUO?5UKOO?$AA@ 10068160     cxcore210:cxtables.obj
 0002:00014174       ??_C@_0BF@DGEJMBPP@MWQKPLPNQOSOTNTLSKQK?$AA@ 10068174     cxcore210:cxtables.obj
 0002:0001418c       ??_C@_0BG@OMACFGLK@LXOKOP?5PKOP?5UKUP?5VKUP?$AA@ 1006818c     cxcore210:cxtables.obj
 0002:000141a4       ??_C@_0M@GCKPBIEO@OVRKRP?5SKRP?$AA@ 100681a4     cxcore210:cxtables.obj
 0002:000141b0       ??_C@_0DJ@DHOPPJMP@LYNNONOONONNOLQKTKVLWNWOVQSRRSRT@ 100681b0     cxcore210:cxtables.obj
 0002:000141ec       ??_C@_0BN@FBGACGDE@NVRKQLRSSLRK?5RLRO?5RVQWRXSWRV?$AA@ 100681ec     cxcore210:cxtables.obj
 0002:0001420c       ??_C@_0BM@KNLOLMHL@NVROQPRQSPRO?5SWRXQWRVSWSYQ?$FL?$AA@ 1006820c     cxcore210:cxtables.obj
 0002:00014228       ??_C@_0BI@MNHBHMMH@NVROQPRQSPRO?5RVQWRXSWRV?$AA@ 10068228     cxcore210:cxtables.obj
 0002:00014240       ??_C@_0BB@OMBNIBFE@NVSWRXQWRVSWSYQ?$FL?$AA@ 10068240     cxcore210:cxtables.obj
 0002:00014254       ??_C@_0N@DEJDBGIC@NVRVQWRXSWRV?$AA@ 10068254     cxcore210:cxtables.obj
 0002:00014268       ??_C@_0EH@CLGLKCKI@LYOVOUNUNVOWQXSXUWVVWSWNVLTKQKOL@ 10068268     cxcore210:cxtables.obj
 0002:000142b0       ??_C@_0GC@PNHMJCNI@LYQKOLNNOPQQTQVPWNVLTKQK?5QKPLONP@ 100682b0     cxcore210:cxtables.obj
 0002:00014314       ??_C@_0CJ@EJHOLFGC@LYNKNO?5VMRTPX?5WKTQQX?5NMPKRKUM?5NM@ 10068314     cxcore210:cxtables.obj
 0002:00014340       ??_C@_0EH@IMLHDFG@LYVMVNWNWMVLTKRKPLOMNPNUOWQXTXVW@ 10068340     cxcore210:cxtables.obj
 0002:00014388       ??_C@_0DP@IAKJPBII@LYOKNQ?5OKVK?5OLSLVK?5NQOPQOTOVPWRW@ 10068388     cxcore210:cxtables.obj
 0002:000143c8       ??_C@_0BI@PKBHGDK@LYSMSX?5TKTX?5TKMTXT?5QXVX?$AA@ 100683c8     cxcore210:cxtables.obj
 0002:000143e0       ??_C@_0EM@FBCDJAOM@LYOMONNNNMOLQKTKVLWNVPTQ?5TKULVNU@ 100683e0     cxcore210:cxtables.obj
 0002:00014430       ??_C@_0EE@GDOKGBGG@LYOMONNNNMOLQKTKVLWNVPTQQROSNUNX@ 10068430     cxcore210:cxtables.obj
 0002:00014474       ??_C@_0BD@HCKFCFOP@LYPNSKSX?5RLRX?5OXVX?$AA@ 10068474     cxcore210:cxtables.obj
 0002:00014488       ??_C@_0DH@NBKLLLJH@LYQKOLNONTOWQXTXVWWTWOVLTKQK?5QKP@ 10068488     cxcore210:cxtables.obj
 0002:000144c0       ??_C@_02LFMIFBF@LX?$AA@    100684c0     cxcore210:cxtables.obj
 0002:000144c4       ??_C@_02LMLEEFAB@OU?$AA@   100684c4     cxcore210:cxtables.obj
 0002:000144c8       ??_C@_0CI@JNAOPACB@MWNROPPOROSPSRRURWSX?5QORPRRQUQWR@ 100684c8     cxcore210:cxtables.obj
 0002:000144f0       ??_C@_0HG@CGGALHPH@F?$FOSKTLTM?5ULSKPKNLMMLOIYH?$FLG?2?5PKNM@ 100684f0     cxcore210:cxtables.obj
 0002:00014568       ??_C@_0HH@OJIBOHFE@F?$FOSKTLTM?5ULSKPKNLMMLOIYH?$FLG?2?5PKNM@ 10068568     cxcore210:cxtables.obj
 0002:000145e0       ??_C@_0EI@GNOPCCKI@IZVKWL?5XKSKQLPMOOLYK?$FLJ?2?5SKQMPOMY@ 100685e0     cxcore210:cxtables.obj
 0002:00014628       ??_C@_0EJ@CLHCAOD@IZVKWLXLXKSKQLPMOOLYK?$FLJ?2?5SKQMPOM@ 10068628     cxcore210:cxtables.obj
 0002:00014678       ??_C@_0FH@LFBHAIKM@I?$FLVKWLXLVKSKQLPMOOLYK?$FLJ?2?5SKQMPOM@ 10068678     cxcore210:cxtables.obj
 0002:000146d0       ??_C@_0CM@BPOJJNNJ@LXUPVRVQUPSOQOOPNRNTOVRX?5QOOQOTP@ 100686d0     cxcore210:cxtables.obj
 0002:00014700       ??_C@_0EB@BFFNJLAE@KZTKQ?2?5UKP?2?5QONPMRMUNWQXTXWWXUXR@ 10068700     cxcore210:cxtables.obj
 0002:00014748       ??_C@_0EE@POBAEFOF@LYSKQLPMOONRNUOWPXRXTWUVVTWQWNVL@ 10068748     cxcore210:cxtables.obj
 0002:0001478c       ??_C@_0CJ@DPJDAFKP@LXVPTOROPPOQNSNUOWQXSXUW?5ROPQOSO@ 1006878c     cxcore210:cxtables.obj
 0002:000147b8       ??_C@_0BG@MDMJBIJP@NWRORX?5SOSX?5POSO?5PXUX?$AA@ 100687b8     cxcore210:cxtables.obj
 0002:000147d0       ??_C@_0FE@JMIBFMCN@F_PKQLQMRMRLPKMKKLJNJX?5MKLLKNKX?5@ 100687d0     cxcore210:cxtables.obj
 0002:00014828       ??_C@_0FI@GGGPLGPI@F_PKQLQMRMRLPKMKKLJNJX?5MKLLKNKX?5@ 10068828     cxcore210:cxtables.obj
 0002:00014880       ??_C@_0DB@HIENPHBF@J?$FLWKQKOLNNNX?5QKPLONOX?5UKVLVX?5WKW@ 10068880     cxcore210:cxtables.obj
 0002:000148b4       ??_C@_0DF@LMMLCDCI@J?$FLUKVLWLWKQKOLNNNX?5QKPLONOX?5VOVX@ 100688b4     cxcore210:cxtables.obj
 0002:000148f0       ??_C@_0EJ@OMMJHJDH@H?$FLRKSLSMTMTLRKOKMLLNLX?5OKNLMNMX?5@ 100688f0     cxcore210:cxtables.obj
 0002:0001493c       ??_C@_0DD@PAMCONKE@KYWOWPVQNVMWMX?5NQOOROUQ?5OPRPUQVQ@ 1006893c     cxcore210:cxtables.obj
 0002:00014970       ??_C@_0EE@MPJNAIIC@IYJRKPLONOOPORNUNWOX?5MONPNRMUMWO@ 10068970     cxcore210:cxtables.obj
 0002:000149b8       ??_C@_0EK@LBKFGCID@JZMRNPPOROSPSR?5QORPRRQUPWNXMXLWL@ 100689b8     cxcore210:cxtables.obj
 0002:00014a08       ??_C@_0EI@MHJDEOOA@H?2IRJPKOMONPNRMUMWNX?5LOMPMRLULWN@ 10068a08     cxcore210:cxtables.obj
 0002:00014a50       ??_C@_0EA@MDLJHLLH@IZJRKPLONOOPORNUNWOX?5MONPNRMUMWO@ 10068a50     cxcore210:cxtables.obj
 0002:00014a90       ??_C@_0BP@HOMAJKCI@NWSKPVPWQXSXTWUU?5TKQVQWRX?5POUO?$AA@ 10068a90     cxcore210:cxtables.obj
 0002:00014ab0       ??_C@_0DA@BKLICNFJ@LYVPVQWQVPTOQOOPORQSTTVU?5OQQRTSV@ 10068ab0     cxcore210:cxtables.obj
 0002:00014ae0       ??_C@_0CL@HADDGBHN@LXMRNPOOQORPRQPX?5POQPQQOX?5RQSPUO@ 10068ae0     cxcore210:cxtables.obj
 0002:00014b0c       ??_C@_0DF@HIKFHCC@KYVOR?2?5WOS?2?5USUQSOQOOPNQMSMUNWPX@ 10068b0c     cxcore210:cxtables.obj
 0002:00014b48       ??_C@_0ED@ENFOKFPC@JYKRLPMOOOPPPQM?2?5NOOPOQL?2?5PQROTO@ 10068b48     cxcore210:cxtables.obj
 0002:00014b90       ??_C@_0EA@JOPEFINA@J?$FLKRLPMOOOPPPQNX?5NOOPOQMX?5PQQPSO@ 10068b90     cxcore210:cxtables.obj
 0002:00014bd0       ??_C@_0FI@FBDKHNML@F?$FOGRHPIOKOLPLQJX?5JOKPKQIX?5LQMPOO@ 10068bd0     cxcore210:cxtables.obj
 0002:00014c28       ??_C@_0BP@JFAMGIPE@NVSKPVPWQXSXTWUU?5TKQVQWRX?5QKTK?$AA@ 10068c28     cxcore210:cxtables.obj
 0002:00014c48       ??_C@_0DM@FJKLENNO@KXPKLX?5QKMX?5VPUQVQVPUOTORQPROR?5O@ 10068c48     cxcore210:cxtables.obj
 0002:00014c84       ??_C@_0DD@EEDFLLMB@MWTKTLULUKTK?5ORPPQOSOTPTRRYQ?$FLO?2M@ 10068c84     cxcore210:cxtables.obj
 0002:00014cb8       ??_C@_0DD@CLHIADBD@MWSKSLTLTKSK?5NROPPOROSPSRRURWSX?5@ 10068cb8     cxcore210:cxtables.obj
 0002:00014cec       ??_C@_0DH@COLFNLKO@KZPKLX?5QKMX?5OQPPROTOVPVRUUUWVX?5T@ 10068cec     cxcore210:cxtables.obj
 0002:00014d28       ??_C@_0EC@ODFIIINI@KYVOTVSYR?$FL?5WOUVTYR?$FLP?2M?2L?$FLM?$FLN?2?5US@ 10068d28     cxcore210:cxtables.obj
 0002:00014d6c       ??_C@_0CN@MNMFONDM@MXWKXLXKVKTLSNPYO?$FLN?2?5VKULTNQYP?$FLN@ 10068d6c     cxcore210:cxtables.obj
 0002:00014d9c       ??_C@_0CO@LKBEDJCL@KWNURTTSURUPSOQOOPNQMSMUNWPXRXTW@ 10068d9c     cxcore210:cxtables.obj
 0002:00014dd0       ??_C@_0ED@NIDONAAE@KZWKTVTWUXWXXWYU?5XKUVUWVX?5USUQSO@ 10068dd0     cxcore210:cxtables.obj
 0002:00014e14       ??_C@_0CM@GNCEHDML@KXUPUQVQUPSOQOOPNQMSMUNWPXRXTWUV@ 10068e14     cxcore210:cxtables.obj
 0002:00014e40       ??_C@_0DN@OJIDJADP@JXOKMR?5PKNRNVPX?5NROPQOSOUPVRVTUV@ 10068e40     cxcore210:cxtables.obj
 0002:00014e80       ??_C@_0DO@ODCNNDPC@KZVOTVTWUXWXXWYU?5WOUVUWVX?5USUQSO@ 10068e80     cxcore210:cxtables.obj
 0002:00014ec0       ??_C@_0EG@CEKIHFGI@JZNPPPPONPMQLSLUMWNXPXQWRUSR?5LUN@ 10068ec0     cxcore210:cxtables.obj
 0002:00014f08       ??_C@_0DG@CAEAKAFG@I?$FLTKQ?2?5UKP?2?5JRKPLONOOPOVPWSWUVWT@ 10068f08     cxcore210:cxtables.obj
 0002:00014f40       ??_C@_0CB@MJOCAFMC@KXMONOPPS?$FLT?2?5NOOPR?$FLT?2U?2?5VOTRNYL?2@ 10068f40     cxcore210:cxtables.obj
 0002:00014f68       ??_C@_0EE@IJICCKDO@KZOPNQMSMUNWPXRXUWWUXRXPWOUOTPSR@ 10068f68     cxcore210:cxtables.obj
 0002:00014fac       ??_C@_0DA@NJAFONC@JXKRLPMOOOPPPROUOWPX?5NOOPORNUNWP@ 10068fac     cxcore210:cxtables.obj
 0002:00014fdc       ??_C@_0BK@FMPMGGC@KZSPQX?5SPRX?5MQOOXO?5MQOPXP?$AA@ 10068fdc     cxcore210:cxtables.obj
 0002:00014ff8       ??_C@_0DH@MPNMIOJI@K?$FLYOQOOPNQMSMUNWPXRXTWUVVTVRUPYP@ 10068ff8     cxcore210:cxtables.obj
 0002:00015030       ??_C@_0DI@OBLCJIDG@JXSOQOOPNQMSJ?2?5QOOQNSK?2?5SOUPVRVT@ 10069030     cxcore210:cxtables.obj
 0002:00015068       ??_C@_0CE@PLPFBBDL@IZPPMX?5PPNX?5TPSX?5TPTX?5KQMOXO?5KQM@ 10069068     cxcore210:cxtables.obj
 0002:0001508c       ??_C@_0DH@GJOIMMEJ@KXQOOPNQMSMUNWPXRXTWUVVTVRUPSOQO@ 1006908c     cxcore210:cxtables.obj
 0002:000150c8       ??_C@_0EF@GNINLJOA@MXRKQLQMSNVN?5TNQOPPPRRSUS?5TNROQP@ 100690c8     cxcore210:cxtables.obj
 0002:00015110       ??_C@_0CE@DCMOGNFM@JYNOMX?5OONUMX?5VRVOWOVRTUQWNXMX?5L@ 10069110     cxcore210:cxtables.obj
 0002:00015134       ??_C@_0DB@BJDCOJNJ@KZOOK?2?5POL?2?5NUNWOXQXSWTV?5VOTVTWU@ 10069134     cxcore210:cxtables.obj
 0002:00015168       ??_C@_0BM@PEPGDFHH@LXLKNKPLWX?5NKOLVX?5RPMX?5RPNX?$AA@ 10069168     cxcore210:cxtables.obj
 0002:00015184       ??_C@_0DB@DJELIPLF@KYOOLX?5POMX?5UOVPWPVOTORQOR?5ORPSR@ 10069184     cxcore210:cxtables.obj
 0002:000151b8       ??_C@_0BK@FEGEEFDD@NWROPVPWQXSXUWVU?5SOQVQWRX?$AA@ 100691b8     cxcore210:cxtables.obj
 0002:000151d8       ??_C@_0EF@MDNIFCOF@IYJSKQLPNPOQOVPX?5MPNQNUOWPXQXSWT@ 100691d8     cxcore210:cxtables.obj
 0002:00015220       ??_C@_0DC@BLKLIPJF@IYJRKPLONOOPOQMX?5MONPNQLX?5OQPPRO@ 10069220     cxcore210:cxtables.obj
 0002:00015254       ??_C@_0DI@BEIEEJJK@LWRKQLQMSNVNVMSNPOOPNRNTOVPWRXSY@ 10069254     cxcore210:cxtables.obj
 0002:0001528c       ??_C@_0DE@JIBPONOK@LXVPTOQOOPOQPRRS?5QOPPPQRS?5RSOTNU@ 1006928c     cxcore210:cxtables.obj
 0002:000152c0       ??_C@_0EM@GPCOGLFN@KYSOQOOPNQMSMUNWPXRXTWUVVTVRUPRN@ 100692c0     cxcore210:cxtables.obj
 0002:0001530c       ??_C@_0CF@LFIGCOOB@KYLQNOPORPSSSXR?2?5LQNPPPRQSS?5WOVR@ 1006930c     cxcore210:cxtables.obj
 0002:00015338       ??_C@_0EM@GLLLDAN@KXRKPMOOMUK?2?5QLPNNTL?2?5RKTKVLVNUP@ 10069338     cxcore210:cxtables.obj
 0002:00015384       ??_C@_0DO@POOECOOD@K?$FLQOOPNQMSMUNWPXQXSWUUWRXO?5QOOQN@ 10069384     cxcore210:cxtables.obj
 0002:000153c4       ??_C@_0BO@FDJCPDLG@LXUONX?5VOOX?5OONQNOVO?5NXVXVVUX?$AA@ 100693c4     cxcore210:cxtables.obj
 0002:000153e4       ??_C@_0CL@MNPFFNJH@KYNORX?5OORV?5VORXP?$FLN?2M?2L?$FLLZMZM?$FLL?$FL@ 100693e4     cxcore210:cxtables.obj
 0002:00015410       ??_C@_0CF@EEBGMJLM@KYNOUX?5OOVX?5VONX?5LOQO?5TOXO?5LXPX?5@ 10069410     cxcore210:cxtables.obj
 0002:00015438       ??_C@_0CK@EFAOODIF@I?$FLLOOX?5MOOU?5ROOX?5ROUX?5SOUU?5XOUX?5@ 10069438     cxcore210:cxtables.obj
 0002:00015464       ??_C@_0BL@IHKFKDJF@KYNORX?5OORV?5VORX?5LOQO?5TOXO?$AA@ 10069464     cxcore210:cxtables.obj
 0002:00015480       ??_C@_0DD@CHLLHKGO@J?$FLNONUOWQXSXUWVU?5OOOUPWQX?5VOVX?5W@ 10069480     cxcore210:cxtables.obj
 0002:000154b4       ??_C@_0BL@EIDOJJPJ@LWPKPVRXTXUWUV?5QKQVRX?5NOTO?$AA@ 100694b4     cxcore210:cxtables.obj
 0002:000154d0       ??_C@_0DE@PBJAFBHF@LYTOUPUQVQVPTOQOOPORQSTTVU?5OQQRT@ 100694d0     cxcore210:cxtables.obj
 0002:00015504       ??_C@_0CJ@EDBCCJIB@KXOOOX?5POPX?5PRQPSOUOVPVQUQUPVP?5M@ 10069504     cxcore210:cxtables.obj
 0002:00015530       ??_C@_0DH@MJALMMMJ@KYUOU?2?5VOV?2?5URTPROPONPMRMUNWPXRX@ 10069530     cxcore210:cxtables.obj
 0002:00015568       ??_C@_0DM@NOGLFGIP@JYNON?2?5OOO?2?5ORPPROTOVPWRWUVWTXRX@ 10069568     cxcore210:cxtables.obj
 0002:000155a4       ??_C@_0DH@KJIAEMJN@LYQOOPNRNUOWQXTXVWWUWRVPTOQO?5QOP@ 100695a4     cxcore210:cxtables.obj
 0002:000155dc       ??_C@_0DD@NEDOOLJM@J?$FLNONX?5OOOX?5ORPPROTOVPWRWX?5TOUPV@ 100695dc     cxcore210:cxtables.obj
 0002:00015610       ??_C@_0FA@IGDAMPOG@F_JOJX?5KOKX?5KRLPNOPORPSRSX?5POQPR@ 10069610     cxcore210:cxtables.obj
 0002:00015660       ??_C@_0BG@JKKOOPHJ@NWRKRX?5SKSX?5PKSK?5PXUX?$AA@ 10069660     cxcore210:cxtables.obj
 0002:00015678       ??_C@_0CP@JGKBKFH@JZNKNX?5OKOX?5WOOU?5RSVX?5SSWX?5LKOK?5@ 10069678     cxcore210:cxtables.obj
 0002:000156a8       ??_C@_0CM@JJLNALBB@NWSKSLTLTKSK?5SOSZR?2?5TOTZR?2P?2O?$FLOZ@ 100696a8     cxcore210:cxtables.obj
 0002:000156d4       ??_C@_0CB@GPEOJFBI@NWRKRLSLSKRK?5RORX?5SOSX?5POSO?5PXUX@ 100696d4     cxcore210:cxtables.obj
 0002:000156f8       ??_C@_0DD@PPGNDBCF@J?$FLNKNX?5OKOX?5ORPPROTOVPWRWX?5TOUPV@ 100696f8     cxcore210:cxtables.obj
 0002:00015730       ??_C@_0FA@PBBIOGFK@LYQOOQOSQUSUUSUQSOQO?5QOPQPSQU?5SU@ 10069730     cxcore210:cxtables.obj
 0002:00015780       ??_C@_0CG@GPCKOJIA@LWTKULUMVMVLTKRKPMPX?5RKQMQX?5NOSO@ 10069780     cxcore210:cxtables.obj
 0002:000157a8       ??_C@_0DD@PIKBIHLP@LXOSVSVRUPSOQOOPNRNUOWQXSXUWVV?5U@ 100697a8     cxcore210:cxtables.obj
 0002:000157dc       ??_C@_0DM@HCCJDCBC@L?$FLVKVX?5WKWX?5VRUPSOQOOPNRNUOWQXSX@ 100697dc     cxcore210:cxtables.obj
 0002:00015818       ??_C@_0DA@PJMGEFJK@LXVQUQURVRVQUPSOQOOPNRNUOWQXSXUW@ 10069818     cxcore210:cxtables.obj
 0002:00015848       ??_C@_0DH@FBCCEMKM@JYNKNX?5OKOX?5ORPPROTOVPWRWUVWTXRX@ 10069848     cxcore210:cxtables.obj
 0002:00015880       ??_C@_0DO@DLBEBGMN@LZQOPPPQOQOPQOTOVQVWWXXX?5TOUQUWW@ 10069880     cxcore210:cxtables.obj
 0002:000158c0       ??_C@_0M@HFEHPMPJ@JZRMLW?5RMXW?$AA@ 100698c0     cxcore210:cxtables.obj
 0002:000158cc       ??_C@_06DOIKLOJ@KZMHX?2?$AA@ 100698cc     cxcore210:cxtables.obj
 0002:000158d4       ??_C@_0BO@NJIGBOJK@LYXKLX?5YKMX?5QKONPKYK?5LXUXVUTX?$AA@ 100698d4     cxcore210:cxtables.obj
 0002:000158f4       ??_C@_0CE@NOGKJIG@LYPKRQPX?5QKSQ?5YKSQQX?5NKSK?5VK?$FLK?5N@ 100698f4     cxcore210:cxtables.obj
 0002:00015918       ??_C@_0CF@PLODLFGM@KZPKTX?5QKUX?5YKLX?5NKSK?5VK?$FLK?5JXOX?5@ 10069918     cxcore210:cxtables.obj
 0002:00015940       ??_C@_0CK@KHEJJJPD@I?$FLNKMX?5OKNV?5TKMX?5TKSX?5UKTV?5ZKSX?5@ 10069940     cxcore210:cxtables.obj
 0002:0001596c       ??_C@_0BL@EPBHCKMM@KYOKPX?5PKQV?5YKPX?5MKRK?5VK?$FLK?$AA@ 1006996c     cxcore210:cxtables.obj
 0002:00015988       ??_C@_0CG@FKIILKBB@J?$FLPKMUMWOXSXUWVUYK?5QKNUNWOX?5NKSK@ 10069988     cxcore210:cxtables.obj
 0002:000159b0       ??_C@_0BO@PCJGFMKI@KZTKPX?5UKQX?5PKNNOKZKYNYK?5NXSX?$AA@ 100699b0     cxcore210:cxtables.obj
 0002:000159d0       ??_C@_0DI@FLPGHHCF@KZWLXLYKXNWLUKRKPLOMOOPPUSVT?5ONP@ 100699d0     cxcore210:cxtables.obj
 0002:00015a08       ??_C@_0EB@GKDEFCMJ@JZPKLX?5QKMX?5NKUKWLXMXOWQTROR?5UKW@ 10069a08     cxcore210:cxtables.obj
 0002:00015a50       ??_C@_0FJ@FIFHHEPN@KYRKPLOMNOMRMUNWPXRXTWUVVTWQWNVL@ 10069a50     cxcore210:cxtables.obj
 0002:00015aac       ??_C@_0CN@GEAEKJAH@JYPKLX?5QKMX?5NKUKWLXMXOWQTROR?5UKW@ 10069aac     cxcore210:cxtables.obj
 0002:00015adc       ??_C@_0DP@FFDMAKGJ@KYRKPLOMNOMRMUNWPXRXTWUVVTWQWNVL@ 10069adc     cxcore210:cxtables.obj
 0002:00015b1c       ??_C@_0CF@NFIDJAOB@JZPKLX?5PKTX?5QKTU?5XKTX?5NKQK?5VKZK?5@ 10069b1c     cxcore210:cxtables.obj
 0002:00015b44       ??_C@_0DE@MIOHNGGI@I?2OKKX?5OMPX?5PKQV?5YKPX?5YKUX?5ZKVX?5@ 10069b44     cxcore210:cxtables.obj
 0002:00015b78       ??_C@_0BK@HMAHKEIM@KXQKMX?5RKNX?5OKTK?5KXUXVUTX?$AA@ 10069b78     cxcore210:cxtables.obj
 0002:00015b94       ??_C@_0CP@DCIMOIIO@JZPKLX?5QKMX?5YKOR?5RPTX?5SPUX?5NKSK?5@ 10069b94     cxcore210:cxtables.obj
 0002:00015bc4       ??_C@_0CF@EIHOHIMC@LXUKRUQWPX?5VKSURWPXOXMWLUMTNUMV?5@ 10069bc4     cxcore210:cxtables.obj
 0002:00015bec       ??_C@_0BG@CBNPDAA@NWTKPX?5UKQX?5RKWK?5NXSX?$AA@ 10069bec     cxcore210:cxtables.obj
 0002:00015c04       ??_C@_0CP@KIIAECHG@J?$FLPKLX?5QKMX?5XKTX?5YKUX?5NKSK?5VK?$FLK?5@ 10069c04     cxcore210:cxtables.obj
 0002:00015c38       ??_C@_0EA@CAIKAFFG@KYVLWLXKWNVLTKRKPLOMNOMRMUNWPXRX@ 10069c38     cxcore210:cxtables.obj
 0002:00015c78       ??_C@_0CE@JHIHDHIK@JXPKLX?5QKMX?5SORS?5NKXKWNWK?5OQRQ?5J@ 10069c78     cxcore210:cxtables.obj
 0002:00015c9c       ??_C@_0CI@ICIBJGCC@JYPKLX?5QKMX?5SORS?5NKXKWNWK?5OQRQ?5J@ 10069c9c     cxcore210:cxtables.obj
 0002:00015cc4       ??_C@_0DC@EPPMNODB@JYPKLX?5QKMX?5NKTKVLWNWQVTUVTWQXJX@ 10069cc4     cxcore210:cxtables.obj
 0002:00015cf8       ??_C@_0DC@ILDIAFDG@KXVLWLXKWNVLTKRKPLOMNOMRMUNWPXRX@ 10069cf8     cxcore210:cxtables.obj
 0002:00015d30       ??_C@_0EA@MGGGLOKP@JYPKLX?5QKMX?5NKUKWLWNVPSQ?5UKVLVNU@ 10069d30     cxcore210:cxtables.obj
 0002:00015d70       ??_C@_0CA@JMPBCCPC@KYTKKX?5SMTX?5TKUX?5NTTT?5IXNX?5RXWX?$AA@ 10069d70     cxcore210:cxtables.obj
 0002:00015d90       ??_C@_0ED@FMPBOBEJ@KZMVNXQXMRMONMOLQKTKVLWMXOXRTXWX@ 10069d90     cxcore210:cxtables.obj
 0002:00015dd4       ??_C@_0DN@NHKEDCNK@J?$FLRKRX?5SKSX?5LPMONOOSQU?5TUVSWOXOY@ 10069dd4     cxcore210:cxtables.obj
 0002:00015e18       ??_C@_0EL@GKFPPKNK@KZRKRX?5SKSX?5QNNOMQMRNTQUTUWTXRXQ@ 10069e18     cxcore210:cxtables.obj
 0002:00015e64       ??_C@_0DP@IABHEOBN@KZMONLOKPKQLRORX?5XOWLVKUKTLSOSX?5@ 10069e64     cxcore210:cxtables.obj
 0002:00015ea4       ??_C@_0CF@FPFMJCCP@K?$FLMKRQ?5NKSQMX?5MKWKXOVK?5NWWW?5MXWX@ 10069ea4     cxcore210:cxtables.obj
 0002:00015ecc       ??_C@_0CF@FAFMBHDD@J?$FLNKNX?5OKOX?5VKVX?5WKWX?5LKYK?5LXQX?5@ 10069ecc     cxcore210:cxtables.obj
 0002:00015ef4       ??_C@_0DO@GLBCIJCN@JZMJLM?5XJWM?5PPOS?5UPTS?5MVLY?5XVWY?5@ 10069ef4     cxcore210:cxtables.obj
 0002:00015f34       ??_C@_0BL@NOFHNCJP@KYRKMX?5RNVX?5RKWX?5KXPX?5TXYX?$AA@ 10069f34     cxcore210:cxtables.obj
 0002:00015f50       ??_C@_0FD@JAHCHODG@KZQKOLNMMPMSNVOWQXTXVWWVXSXPWMVL@ 10069f50     cxcore210:cxtables.obj
 0002:00015fa4       ??_C@_0BL@JNICKNLK@KYRKLX?5RMWX?5RKXX?5MWVW?5LXXX?$AA@ 10069fa4     cxcore210:cxtables.obj
 0002:00015fc0       ??_C@_0BK@JGIJLKIE@KXOKOX?5PKPX?5MKWKWOVK?5MXRX?$AA@ 10069fc0     cxcore210:cxtables.obj
 0002:00015fdc       ??_C@_0BO@JGFMJOHM@LYVKNX?5WKOX?5OKNONKWK?5NXWXWTVX?$AA@ 10069fdc     cxcore210:cxtables.obj
 0002:00015ffc       ??_C@_0CE@CHABLIFC@LYNKRRRX?5OKSR?5WKSRSX?5LKQK?5TKYK?5P@ 10069ffc     cxcore210:cxtables.obj
 0002:00016020       ??_C@_0CF@FBKKCHGH@KZNKVX?5OKWX?5WKNX?5LKQK?5TKYK?5LXQX?5@ 1006a020     cxcore210:cxtables.obj
 0002:00016048       ??_C@_0CK@MMCPBIGK@I?$FLLKOX?5MKOT?5RKOX?5RKUX?5SKUT?5XKUX?5@ 1006a048     cxcore210:cxtables.obj
 0002:00016074       ??_C@_0BL@MJJFOENG@KYMKRX?5NKRU?5WKRX?5KKPK?5TKYK?$AA@ 1006a074     cxcore210:cxtables.obj
 0002:00016090       ??_C@_0CG@PCAGJECO@J?$FLNKNUOWQXTXVWWUWK?5OKOUPWQX?5LKQK@ 1006a090     cxcore210:cxtables.obj
 0002:000160b8       ??_C@_0BO@HHOICJCJ@KZRKRX?5SKSX?5NKMOMKXKXOWK?5PXUX?$AA@ 1006a0b8     cxcore210:cxtables.obj
 0002:000160d8       ??_C@_0EA@KIKKABHH@KZVMWKWOVMULSKQKOLNMNOOPQQTRVSWT@ 1006a0d8     cxcore210:cxtables.obj
 0002:00016118       ??_C@_0EF@LPIIHFDC@JZNKNX?5OKOX?5LKSKVLWNWOVQSROR?5SKU@ 1006a118     cxcore210:cxtables.obj
 0002:00016160       ??_C@_0FL@LKEDLLEI@KZQKOLNMMPMSNVOWQXTXVWWVXSXPWMVL@ 1006a160     cxcore210:cxtables.obj
 0002:000161bc       ??_C@_0CP@NNILAFCG@JYNKNX?5OKOX?5LKSKVLWNWOVQSROR?5SKU@ 1006a1bc     cxcore210:cxtables.obj
 0002:000161ec       ??_C@_0DP@JMPAJOBC@KZQKOLNMMPMSNVOWQXTXVWWVXSXPWMVL@ 1006a1ec     cxcore210:cxtables.obj
 0002:0001622c       ??_C@_0CF@HAPGLOPB@JZNKNX?5OMVX?5OKVV?5VKVX?5LKOK?5TKXK?5@ 1006a22c     cxcore210:cxtables.obj
 0002:00016254       ??_C@_0DE@JJOPHJPB@I?2MKMX?5NNRX?5NKRU?5WKRX?5WKWX?5XKXX?5@ 1006a254     cxcore210:cxtables.obj
 0002:00016288       ??_C@_0BK@BEDIIJA@KXOKOX?5PKPX?5MKRK?5MXWXWTVX?$AA@ 1006a288     cxcore210:cxtables.obj
 0002:000162a4       ??_C@_0CP@BBGHIBE@JZNKNX?5OKOX?5WKOS?5QQVX?5RQWX?5LKQK?5@ 1006a2a4     cxcore210:cxtables.obj
 0002:000162d4       ??_C@_0CF@JOPPDMDI@LXSKSURWQX?5TKTUSWQXPXNWMUNTOUNV?5@ 1006a2d4     cxcore210:cxtables.obj
 0002:000162fc       ??_C@_0BG@FMMBOGPO@NWRKRX?5SKSX?5PKUK?5PXUX?$AA@ 1006a2fc     cxcore210:cxtables.obj
 0002:00016314       ??_C@_0CP@ONKFIJAD@J?$FLNKNX?5OKOX?5VKVX?5WKWX?5LKQK?5TKYK?5@ 1006a314     cxcore210:cxtables.obj
 0002:00016348       ??_C@_0EE@GNKLEKEP@K?$FLVLWKWOVLTKQKOLNMMPMSNVOWQXTXVW@ 1006a348     cxcore210:cxtables.obj
 0002:0001638c       ??_C@_0CE@PJLFIKPD@JXNKNX?5OKOX?5SOSS?5LKVKVOUK?5OQSQ?5L@ 1006a38c     cxcore210:cxtables.obj
 0002:000163b0       ??_C@_0CI@EFKFJLOE@JYNKNX?5OKOX?5SOSS?5LKVKVOUK?5OQSQ?5L@ 1006a3b0     cxcore210:cxtables.obj
 0002:000163d8       ??_C@_0DC@KEFHEJH@JZNKNX?5OKOX?5LKSKVLWMXPXSWVVWSXLX@ 1006a3d8     cxcore210:cxtables.obj
 0002:0001640c       ??_C@_0DA@PKLDHNPN@KYVLWKWOVLTKQKOLNMMPMSNVOWQXTXVW@ 1006a40c     cxcore210:cxtables.obj
 0002:00016440       ??_C@_0EC@FDPLCKGG@JZNKNX?5OKOX?5LKSKVLWNVPSQ?5SKULVNU@ 1006a440     cxcore210:cxtables.obj
 0002:00016484       ??_C@_0CA@NABKIKHD@KYRKMX?5RNVX?5RKWX?5OTTT?5KXPX?5TXYX?$AA@ 1006a484     cxcore210:cxtables.obj
 0002:000164a4       ??_C@_0DN@CBBMFMOH@H?$FLWPVQWRXQXPVNTMQMNNLPKSKULXNZQ?$FL@ 1006a4a4     cxcore210:cxtables.obj
 0002:000164e8       ??_C@_0EB@BOBFKKKP@AcRAPCMDJDGCEABGAKAPBTDXG?2L?$GARc?5R@ 1006a4e8     cxcore210:cxtables.obj
 0002:00016530       ??_C@_0EE@DNOAPOFH@?$DOfRAPCMDJDGCEA?$DOH?$EAJAMAZB?$FND_G?$GAM?$GAPa@ 1006a530     cxcore210:cxtables.obj
 0002:00016578       ??_C@_0GF@PNICOMGP@?$CJ?$HLO?$CJI?$CKE?$CL?$EA?9?$DL073370?$DL?9?$EA?$CLE?$CKI?$CJO?$CJU?$CK?$FL?$CL_@ 1006a578     cxcore210:cxtables.obj
 0002:000165e0       ??_C@_0EF@DBIAPHOG@?$DMhP?$DMK?$DNG?$DPDAAD?$DPG?$DNK?$DMP?$DMT?$DNY?$DP?$FNA?$GADcGeKg@ 1006a5e0     cxcore210:cxtables.obj
 0002:00016628       ??_C@_0EF@FJIPBEEC@AcPALBJCGEEGCJBLAPATBXCZE?$FNG_JaLb@ 1006a628     cxcore210:cxtables.obj
 0002:00016670       ??_C@_0CN@GIDEJFBN@G?$FNPGMHJJHMGPGTHWJZM?2P?$FNT?$FNW?2ZZ?2W?$FNT@ 1006a670     cxcore210:cxtables.obj
 0002:000166a0       ??_C@_0CF@OEHAGHAA@MWQMONNOMQMSNUOVQWSWUVVUWSWQVOUN@ 1006a6a0     cxcore210:cxtables.obj
 0002:000166c8       ??_C@_0BN@KFPKAHNJ@NVQNOONQNSOUQVSVUUVSVQUOSNQN?$AA@ 1006a6c8     cxcore210:cxtables.obj
 0002:000166e8       ??_C@_0BF@EDJIBCFK@PTQPPQPSQTSTTSTQSPQP?$AA@ 1006a6e8     cxcore210:cxtables.obj
 0002:00016700       ??_C@_0N@IHCDJBFG@QSRQQRRSSRRQ?$AA@ 1006a700     cxcore210:cxtables.obj
 0002:00016710       ??_C@_0BL@JOAGHIJN@I?$FLIPKR?5LKNP?5RGRO?5XKVP?5?$FLPYR?$AA@ 1006a710     cxcore210:cxtables.obj
 0002:0001672c       ??_C@_0DO@CMDJJHJB@JZRYQ?2?5RYS?2?5Q?2S?2?5RYVXVVXUXRZQZLY@ 1006a72c     cxcore210:cxtables.obj
 0002:00016770       ??_C@_0EO@LFOFGEHB@JZRYQ?2?5RYS?2?5Q?2S?2?5RYUZXZZXZUYTWTY@ 1006a770     cxcore210:cxtables.obj
 0002:000167c0       ??_C@_0KM@IIGAFBEP@JZRIRK?5RNRP?5RSRU?5RYQ?2?5RYS?2?5Q?2S?2?5@ 1006a7c0     cxcore210:cxtables.obj
 0002:00016870       ??_C@_0HC@KMNHPBIJ@JZRMRS?5RSQ?2?5RSS?2?5Q?2S?2?5RMQJPHNG?5Q@ 1006a870     cxcore210:cxtables.obj
 0002:000168e8       ??_C@_0EC@KAIBADJN@G?$FNPIPGQFSFTGTI?5GZHXJVKTLPLKMJOIU@ 1006a8e8     cxcore210:cxtables.obj
 0002:0001692c       ??_C@_0BE@LKOOBHLL@KYRJKVYVRJ?5RZYNKNRZ?$AA@ 1006a92c     cxcore210:cxtables.obj
 0002:00016940       ??_C@_0EA@BJBNMCGF@KYYPXNVLSKQKNLLNKQKSLVNXQYSYVXXV@ 1006a940     cxcore210:cxtables.obj
 0002:00016980       ??_C@_0BN@MMGIKEB@LXPLPPLPLTPTPXTXTTXTXPTPTLPL?$AA@ 1006a980     cxcore210:cxtables.obj
 0002:000169a0       ??_C@_0BF@GMADCGHM@G?$FLMJSV?5KPSL?5G?2?$FL?2?$FLRG?2?$AA@ 1006a9a0     cxcore210:cxtables.obj
 0002:000169b8       ??_C@_0CF@IOELJJM@I?$FLRGRV?5MJWP?5WJMP?5IVL?2?5?$FLVX?2?5IV?$FLV?5@ 1006a9b8     cxcore210:cxtables.obj
 0002:000169e0       ??_C@_0CA@LGBAOKNG@I?$FLNII?$FL?5VI?$FL?$FL?5MM?$FL?$FL?5WMI?$FL?5NIVI?5MMWM?$AA@ 1006a9e0     cxcore210:cxtables.obj
 0002:00016a00       ??_C@_0BK@FIOGICJJ@KYMNWX?5WNMX?5OLLOKQ?5ULXOYQ?$AA@ 1006aa00     cxcore210:cxtables.obj
 0002:00016a1c       ??_C@_0BF@OOFOECBK@LXRLRX?5LQMOWOXQ?5PWTW?$AA@ 1006aa1c     cxcore210:cxtables.obj
 0002:00016a34       ??_C@_0BJ@CLJBGHFD@MWRLRX?5OOUO?5MUOWQXSXUWWU?$AA@ 1006aa34     cxcore210:cxtables.obj
 0002:00016a50       ??_C@_0CI@HNHEGIA@LXRLNWXPLPVWRL?5RRRL?5RRLP?5RRNW?5RR@ 1006aa50     cxcore210:cxtables.obj
 0002:00016a78       ??_C@_0BP@MIBOLMML@OXXROMOWXR?5URPO?5URPU?5RRPQ?5RRPS?$AA@ 1006aa78     cxcore210:cxtables.obj
 0002:00016a98       ??_C@_0BP@JJEOOBFI@MWRXWOMORX?5RUUP?5RUOP?5RRSP?5RRQP?$AA@ 1006aa98     cxcore210:cxtables.obj
 0002:00016ab8       ??_C@_0BP@HPMEJFIC@LULRUWUMLR?5ORTU?5ORTO?5RRTS?5RRTQ?$AA@ 1006aab8     cxcore210:cxtables.obj
 0002:00016ad8       ??_C@_0BP@IDEIMHBF@MWRLMUWURL?5ROOT?5ROUT?5RRQT?5RRST?$AA@ 1006aad8     cxcore210:cxtables.obj
 0002:00016af8       ??_C@_0DA@JGCMLLO@NVNNNVVVVNNN?5OOOU?5POPU?5QOQU?5RORU@ 1006aaf8     cxcore210:cxtables.obj
 0002:00016b28       ??_C@_0EA@OBHNEKOD@NVQNOONQNSOUQVSVUUVSVQUOSNQN?5OQO@ 1006ab28     cxcore210:cxtables.obj
 0002:00016b68       ??_C@_0BB@GBCBHPNI@MWRLRX?5MOWU?5WOMU?$AA@ 1006ab68     cxcore210:cxtables.obj
 0002:00016b7c       ??_C@_0M@OPDCEBIC@MWMMWW?5WMMW?$AA@ 1006ab7c     cxcore210:cxtables.obj
 0002:00016b88       ??_C@_0M@CECLNLBB@KYRKRY?5KRYR?$AA@ 1006ab88     cxcore210:cxtables.obj
 0002:00016b94       ??_C@_0BJ@ICKACHAA@JZRIPOJOOSMYRUWYUSZOTORI?$AA@ 1006ab94     cxcore210:cxtables.obj
 0002:00016bb0       ??_C@_0N@JOCINGCE@LXRHLRR?2XRRH?$AA@ 1006abb0     cxcore210:cxtables.obj
 0002:00016bc0       ??_C@_0L@OCPJKABD@KYRJKVYVRJ?$AA@ 1006abc0     cxcore210:cxtables.obj
 0002:00016bcc       ??_C@_0N@HHAPDNB@LXLLLXXXXLLL?$AA@ 1006abcc     cxcore210:cxtables.obj
 0002:00016bdc       ??_C@_0CF@OJPAPEIM@KYQKNLLNKQKSLVNXQYSYVXXVYSYQXNVL@ 1006abdc     cxcore210:cxtables.obj
 0002:00016c04       ??_C@_0BB@PIGEGADO@D?$GADR?$GAR?5DRRb?5?$GARRb?$AA@ 1006ac04     cxcore210:cxtables.obj
 0002:00016c18       ??_C@_0BB@NAMBLCNB@D?$GADR?$GAR?5JYZY?5P?$GAT?$GA?$AA@ 1006ac18     cxcore210:cxtables.obj
 0002:00016c2c       ??_C@_0M@EOEIADCD@JZRDJR?5RDZR?$AA@ 1006ac2c     cxcore210:cxtables.obj
 0002:00016c38       ??_C@_0L@CGKCDLGD@D?$GADUDO?$GAO?$GAU?$AA@ 1006ac38     cxcore210:cxtables.obj
 0002:00016c44       ??_C@_0BB@DIDLLNHL@D?$GADRJR?5ORUR?5ZR?$GAR?$AA@ 1006ac44     cxcore210:cxtables.obj
 0002:00016c58       ??_C@_0DD@LMKLONKA@OUQOOQOSQUSUUSUQSOQO?5QPPQPSQTSTT@ 1006ac58     cxcore210:cxtables.obj
 0002:00016c8c       ??_C@_0CH@MBOKCOKC@EYETHVKWPWSVVTXQYNYLXKVKSLPNNQMT@ 1006ac8c     cxcore210:cxtables.obj
 0002:00016cb4       ??_C@_0CL@CGLNPCAI@E?$FLEPFRHTJUMVQVUUXSZP?$FLNZLWLSMQNNP@ 1006acb4     cxcore210:cxtables.obj
 0002:00016ce0       ??_C@_0CP@HNPMJABM@G?$FLGJGLHOIQLTNUQVUVXUZT?$FLS?$FLQZPXOUN@ 1006ace0     cxcore210:cxtables.obj
 0002:00016d10       ??_C@_0CP@NKNMPKPH@JZZGXGUHSIPLONNQNUOXPZQ?$FLS?$FLTZUXVU@ 1006ad10     cxcore210:cxtables.obj
 0002:00016d40       ??_C@_0CP@PDBBAOBG@I?$FN?$FNZ?$FNX?2U?$FLSXPVOSNONLOJPIQISJTLUOV@ 1006ad40     cxcore210:cxtables.obj
 0002:00016d70       ??_C@_0CP@CHCHHJAK@JZJ?$FNL?$FNO?2Q?$FLTXUVVSVOULTJSIQIPJOLNO@ 1006ad70     cxcore210:cxtables.obj
 0002:00016da0       ??_C@_0L@FEJGBDMH@JZLXJPZTXL?$AA@ 1006ada0     cxcore210:cxtables.obj
 0002:00016dac       ??_C@_0L@EODCNKEO@KYKVKNYVYN?$AA@ 1006adac     cxcore210:cxtables.obj
 0002:00016db8       ??_C@_0L@MLENHOKD@JZJRNKVYZR?$AA@ 1006adb8     cxcore210:cxtables.obj
 0002:00016dc4       ??_C@_0L@KNNPHLLB@KYRJYNKVRZ?$AA@ 1006adc4     cxcore210:cxtables.obj
 0002:00016dd0       ??_C@_0BD@FBJFOMOI@D?$GADUGSKQPPTPYQ?$FNS?$GAU?$AA@ 1006add0     cxcore210:cxtables.obj
 0002:00016de4       ??_C@_0BD@KHPIIOBN@OTODQGSKTPTTSYQ?$FNO?$GA?$AA@ 1006ade4     cxcore210:cxtables.obj
 0002:00016df8       ??_C@_0BD@OEALJBKH@PUUDSGQKPPPTQYS?$FNU?$GA?$AA@ 1006adf8     cxcore210:cxtables.obj
 0002:00016e0c       ??_C@_0BD@JEBJAPLD@D?$GADOGQKSPTTTYS?$FNQ?$GAO?$AA@ 1006ae0c     cxcore210:cxtables.obj
 0002:00016e20       ??_C@_06DNAODMJ@MWMMWW?$AA@ 1006ae20     cxcore210:cxtables.obj
 0002:00016e28       ??_C@_06IMFJKOOJ@MWMWWM?$AA@ 1006ae28     cxcore210:cxtables.obj
 0002:00016e30       ??_C@_06KKNJNMKF@KYKRYR?$AA@ 1006ae30     cxcore210:cxtables.obj
 0002:00016e38       ??_C@_06OFDBJODH@F?$FOFK?$FOY?$AA@ 1006ae38     cxcore210:cxtables.obj
 0002:00016e40       ??_C@_06NJBHFDGB@KYKFY?$FO?$AA@ 1006ae40     cxcore210:cxtables.obj
 0002:00016e48       ??_C@_06MOKBLEEI@KYK?$FOYF?$AA@ 1006ae48     cxcore210:cxtables.obj
 0002:00016e50       ??_C@_06GHNFHBPA@F?$FOFY?$FOK?$AA@ 1006ae50     cxcore210:cxtables.obj
 0002:00016e58       ??_C@_06NGAOLDOH@D?$GADR?$GAR?$AA@ 1006ae58     cxcore210:cxtables.obj
 0002:00016e60       ??_C@_06EOAMOPNF@D?$GADD?$GA?$GA?$AA@ 1006ae60     cxcore210:cxtables.obj
 0002:00016e68       ??_C@_06JJCHFECF@RRR?$DORf?$AA@ 1006ae68     cxcore210:cxtables.obj
 0002:00016e70       ??_C@_06JALEDGBK@D?$GAD?$GA?$GAD?$AA@ 1006ae70     cxcore210:cxtables.obj
 0002:00016e78       ??_C@_06PPKAFLED@?$DOf?$DORfR?$AA@ 1006ae78     cxcore210:cxtables.obj
 0002:00016e80       ??_C@_0DM@CPEGLFCJ@KYUARBPCNELHKLKRLUNWQXSXVWXUYR?5K@ 1006ae80     cxcore210:cxtables.obj
 0002:00016ebc       ??_C@_0CI@GILINOKK@H?2KFK?$FL?5HF?$FLFQP?$FLZ?5ZV?$FLY?2?$FL?5ZVZY?5WYZY@ 1006aebc     cxcore210:cxtables.obj
 0002:00016ee4       ??_C@_0DP@PADHKEOK@G?$FNRRTUUVWWYW?$FLV?2U?$FNS?$FNQ?2O?$FLNYMWMUNTO@ 1006aee4     cxcore210:cxtables.obj
 0002:00016f24       ??_C@_0CL@PAKDLIDH@G?$FNIWHVGTGQHOINKMMMONPOTUUVWWYW?$FLV@ 1006af24     cxcore210:cxtables.obj
 0002:00016f50       ??_C@_0CL@DAIFHLNI@MWWHVGTFQFOGNHMJMLNNOOUSVTWVWXVZ@ 1006af50     cxcore210:cxtables.obj
 0002:00016f7c       ??_C@_0P@CDJNNJEL@NRRROPNNNLOKPK?$AA@ 1006af7c     cxcore210:cxtables.obj
 0002:00016f8c       ??_C@_0P@BJIPOJIL@RVRRUPVNVLUKTK?$AA@ 1006af8c     cxcore210:cxtables.obj
 0002:00016f9c       ??_C@_0N@JCFEHCKF@RURUTTURTPRO?$AA@ 1006af9c     cxcore210:cxtables.obj
 0002:00016fac       ??_C@_0P@LJAHBKJH@LXLPNRQSSSVRXP?$AA@ 1006afac     cxcore210:cxtables.obj
 0002:00016fbc       ??_C@_0BH@JOKEGKEB@MWMRMSNUOVQWSWUVVUWSWR?$AA@ 1006afbc     cxcore210:cxtables.obj
 0002:00016fd4       ??_C@_0BL@CPMLLLLH@G?$FN?$FNR?$FNP?2MZJWHTGPGMHJJHMGPGR?$AA@ 1006afd4     cxcore210:cxtables.obj
 0002:00016ff0       ??_C@_0BH@PFBBMBBE@MWWRWQVOUNSMQMONNOMQMR?$AA@ 1006aff0     cxcore210:cxtables.obj
 0002:00017008       ??_C@_0BE@MCMJEIEF@MWRKQMOPMR?5RKSMUPWR?$AA@ 1006b008     cxcore210:cxtables.obj
 0002:0001701c       ??_C@_0BK@NFGBDBOE@LRLFLRRRLF?5LIPQ?5LLOR?5LOMQ?$AA@ 1006b01c     cxcore210:cxtables.obj
 0002:00017038       ??_C@_0DA@KFNHBODH@MWMRMQNOONQMSMUNVOWQWR?5PNTN?5OOUO@ 1006b038     cxcore210:cxtables.obj
 0002:00017068       ??_C@_0DC@KMPMNDA@MWRKQMOPMR?5RKSMUPWR?5RMOQ?5RMUQ?5RO@ 1006b068     cxcore210:cxtables.obj
 0002:0001709c       ??_C@_0BB@DHLBPMGI@NVPOTU?5TOPU?5NRVR?$AA@ 1006b09c     cxcore210:cxtables.obj
 0002:000170b0       ??_C@_0CA@JPHFGEIG@PTQPPQPSQTSTTSTQSPQP?5RQQRRSSRRQ?$AA@ 1006b0b0     cxcore210:cxtables.obj
 0002:000170d0       ??_C@_0CE@NEBGNEJJ@PSSRRSQSPRPQQPRPSQSSRUQV?5QQQRRRR@ 1006b0d0     cxcore210:cxtables.obj
 0002:000170f8       ??_C@_0GJ@CNGCKPMD@F?$FOISJSLTMVMXLZ?5ISIRJQLQMRNTNWMYL@ 1006b0f8     cxcore210:cxtables.obj
 0002:00017168       ??_C@_0GI@NKCKHBEC@F?$FORRR?$FLQ?2?5RVQ?2?5RIQHOHNINKONRR?5RIS@ 1006b168     cxcore210:cxtables.obj
 0002:000171d0       ??_C@_0FM@MGGCBKP@F?$FORTTWVXXXZW?$FLU?$FLSZQXPVPSQ?5SQUOVMV@ 1006b1d0     cxcore210:cxtables.obj
 0002:0001722c       ??_C@_0CG@KCOKHNOK@F?$FORGPJLOIR?5RGTJXO?$FLR?5IRLUPZR?$FN?5?$FLRX@ 1006b22c     cxcore210:cxtables.obj
 0002:00017254       ??_C@_0DE@NEEJCOAA@F?$FORNQKPINHMHKIJKJOKRLTNWR?2?5RNSKT@ 1006b254     cxcore210:cxtables.obj
 0002:00017288       ??_C@_0DP@KHHCIJJJ@F?$FORHNLKPJSJUKWMXOXQWRU?5RHVLYPZSZ@ 1006b288     cxcore210:cxtables.obj
 0002:000172c8       ??_C@_0CD@PNMLBMJF@E_RIQJRKSJRI?5IYHZI?$FLJZIY?5?$FLYZZ?$FL?$FL?2Z@ 1006b2c8     cxcore210:cxtables.obj
 0002:000172ec       ??_C@_08OHNJJBFH@F?$FO?$FLBI?$FL?$FL?$FL?$AA@ 1006b2ec     cxcore210:cxtables.obj
 0002:000172f8       ??_C@_0M@HNANBLMD@F?$FORBR?$FL?5I?$FL?$FL?$FL?$AA@ 1006b2f8     cxcore210:cxtables.obj
 0002:00017304       ??_C@_0M@HNOIGOJA@KYOBO?$FL?5UBU?$FL?$AA@ 1006b304     cxcore210:cxtables.obj
 0002:00017310       ??_C@_0DF@LNAAJIHO@F_?2Q?$FLOYNWNUOTPQTPUNVLVJUISIQJOLN@ 1006b310     cxcore210:cxtables.obj
 0002:00017348       ??_C@_0DG@EKNCMAAL@G?$FNIIJKKOKUJYI?$FL?5?$FLIZKYOYUZY?$FL?$FL?5IIKJ@ 1006b348     cxcore210:cxtables.obj
 0002:00017380       ??_C@_0EH@LFBKNBEA@E_?2O?2N?$FLMZMYNXPVUTXRZP?$FLL?$FLJZIYHWHU@ 1006b380     cxcore210:cxtables.obj
 0002:000173c8       ??_C@_0BG@KCBGBPNL@G?$FNOFOb?5UFUb?5JQZQ?5JWZW?$AA@ 1006b3c8     cxcore210:cxtables.obj
 0002:000173e0       ??_C@_0BC@BLPGHAKK@E_UMXP?$FLRXTUW?5IR?$FLR?$AA@ 1006b3e0     cxcore210:cxtables.obj
 0002:000173f4       ??_C@_0BB@FGLPPOII@MWRHQGRFSGSIRKQL?$AA@ 1006b3f4     cxcore210:cxtables.obj
 0002:00017408       ??_C@_0BB@BHGDLGAD@MWSFRGQIQKRLSKRJ?$AA@ 1006b408     cxcore210:cxtables.obj
 0002:0001741c       ??_C@_0N@KKJILFAI@MWRQQRRSSRRQ?$AA@ 1006b41c     cxcore210:cxtables.obj
 0002:0001742c       ??_C@_0BB@EIPJEBMK@JZRLRX?5MOWU?5WOMU?$AA@ 1006b42c     cxcore210:cxtables.obj
 0002:00017440       ??_C@_0M@NMEOCBEE@G?$FNKKYY?5YKKY?$AA@ 1006b440     cxcore210:cxtables.obj
 0002:0001744c       ??_C@_0M@BHJOHCPA@E_IO?$FLO?5IU?$FLU?$AA@ 1006b44c     cxcore210:cxtables.obj
 0002:00017458       ??_C@_0M@OFICHMON@E_RIR?$FL?5IR?$FLR?$AA@ 1006b458     cxcore210:cxtables.obj
 0002:00017464       ??_C@_06FFPLMDOL@E_IR?$FLR?$AA@ 1006b464     cxcore210:cxtables.obj
 0002:0001746c       ??_C@_06OHENDKKJ@NVRBRb?$AA@ 1006b46c     cxcore210:cxtables.obj
 0002:00017474       ??_C@_0BH@JNBLFIPI@KYNBPDRGTKUPUTTYR?$FNP?$GANb?$AA@ 1006b474     cxcore210:cxtables.obj
 0002:0001748c       ??_C@_0BH@OIEBHCFE@KYVBTDRGPKOPOTPYR?$FNT?$GAVb?$AA@ 1006b48c     cxcore210:cxtables.obj
 0002:000174a4       ??_C@_06FHBKBFJ@G?$FN?$FLBIb?$AA@ 1006b4a4     cxcore210:cxtables.obj
 0002:000174ac       ??_C@_0DF@GDOLMBID@H?2PBP_?5TBT_?5YIWGTFPFMGKIKKLMMNOO@ 1006b4ac     cxcore210:cxtables.obj
 0002:000174e4       ??_C@_0BN@PLJIIGNG@KYQFOGNINKOMQNSNUMVKVIUGSFQF?$AA@ 1006b4e4     cxcore210:cxtables.obj
 0002:00017504       ??_C@_0M@NDDJDBKP@JZNFNM?5VFVM?$AA@ 1006b504     cxcore210:cxtables.obj
 0002:00017510       ??_C@_06HKDDJFJD@NVRFRM?$AA@ 1006b510     cxcore210:cxtables.obj
 0002:00017518       ??_C@_0CK@BMFDAMGL@I?$FLLKLJMHNGPFTFVGWHXJXLWNVORQRT?5R@ 1006b518     cxcore210:cxtables.obj
 0002:00017544       ??_C@_0BC@MCIFPBLE@MWRFRT?5RYQZR?$FLSZRY?$AA@ 1006b544     cxcore210:cxtables.obj
 0002:00017558       ??_C@_0BO@BKJPHJCF@MWRMQNROSNRM?5SZR?$FLQZRYSZS?2R?$FOQ_?$AA@ 1006b558     cxcore210:cxtables.obj
 0002:00017578       ??_C@_0BI@GLLHLIKA@MWRMQNROSNRM?5RYQZR?$FLSZRY?$AA@ 1006b578     cxcore210:cxtables.obj
 0002:00017590       ??_C@_0BD@PJAIMBMO@MWSZR?$FLQZRYSZS?2R?$FOQ_?$AA@ 1006b590     cxcore210:cxtables.obj
 0002:000175a4       ??_C@_0N@ILJEMOMD@MWRYQZR?$FLSZRY?$AA@ 1006b5a4     cxcore210:cxtables.obj
 0002:000175b4       ??_C@_0DB@LEOOIMIK@H?2XMWPURRSQSNRLPKMKLLINGQFRFUGWI@ 1006b5b4     cxcore210:cxtables.obj
 0002:000175e8       ??_C@_0DN@LOKFLBPP@H?2PFMGLILKMMONSOVPXRYTYWXYWZT?$FLP?$FL@ 1006b5e8     cxcore210:cxtables.obj
 0002:00017628       ??_C@_0M@KKLJJLEN@H?2YFO?$FL?5KFYF?$AA@ 1006b628     cxcore210:cxtables.obj
 0002:00017634       ??_C@_0DB@MJEHDPNM@H?2XIWGTFRFOGMJLOLTMXOZR?$FLS?$FLVZXXYU@ 1006b634     cxcore210:cxtables.obj
 0002:00017668       ??_C@_0CF@GIDOLAGP@H?2WFMFLOMNPMSMVNXPYSYUXXVZS?$FLP?$FLMZ@ 1006b668     cxcore210:cxtables.obj
 0002:00017690       ??_C@_0O@HFDBPLOK@H?2UFKTZT?5UFU?$FL?$AA@ 1006b690     cxcore210:cxtables.obj
 0002:000176a0       ??_C@_0CB@MIIDEDEI@H?2MFXFRNUNWOXPYSYUXXVZS?$FLP?$FLMZLYKW@ 1006b6a0     cxcore210:cxtables.obj
 0002:000176c4       ??_C@_0BP@FDNDLAJE@H?2LKLJMHNGPFTFVGWHXJXLWNUQK?$FLY?$FL?$AA@ 1006b6c4     cxcore210:cxtables.obj
 0002:000176e4       ??_C@_0L@ICNMCFA@H?2NJPISFS?$FL?$AA@ 1006b6e4     cxcore210:cxtables.obj
 0002:000176f0       ??_C@_0CF@JMLCMPL@H?2QFNGLJKOKRLWNZQ?$FLS?$FLVZXWYRYOXJVG@ 1006b6f0     cxcore210:cxtables.obj
 0002:00017718       ??_C@_02DNOHJLCF@JZ?$AA@   1006b718     cxcore210:cxtables.obj
 0002:0001771c       ??_C@_0DP@KMKFPCNB@F?$FO?$FLFYGVHSHPGNFLFJGIIIKKMMMOLPJPH@ 1006b71c     cxcore210:cxtables.obj
 0002:0001775c       ??_C@_0CB@CFJOKNN@KYPBSETHTJSMQOQPURQTQUSWTZT?2S_Pb@ 1006b75c     cxcore210:cxtables.obj
 0002:00017780       ??_C@_0CB@HJHCHLJG@KYTBQEPHPJQMSOSPORSTSUQWPZP?2Q_Tb@ 1006b780     cxcore210:cxtables.obj
 0002:000177a4       ??_C@_0BB@HCNOJFFJ@KYUBUb?5NBUB?5NbUb?$AA@ 1006b7a4     cxcore210:cxtables.obj
 0002:000177b8       ??_C@_0BB@IBIAEMMI@KYOBOb?5OBVB?5ObVb?$AA@ 1006b7b8     cxcore210:cxtables.obj
 0002:000177cc       ??_C@_08LBLJNHB@F?$FOJIZRJ?$FL?$AA@ 1006b7cc     cxcore210:cxtables.obj
 0002:000177d8       ??_C@_08BAADDFEN@F?$FOZIJRZ?$FL?$AA@ 1006b7d8     cxcore210:cxtables.obj
 0002:000177e8       ??_C@_0FI@GPDOGKMO@DaWNVLTKQKOLNMMOMRNTOUQVTVVUWS?5W@ 1006b7e8     cxcore210:cxtables.obj
 0002:00017840       ??_C@_0CB@MIJNOOGO@I?$FLXOWNTMQMNNMOLQLSMUOWSZT?2T?$FOS_Q_@ 1006b840     cxcore210:cxtables.obj
 0002:00017864       ??_C@_0CK@JKMCEFEE@H?2VFNb?5QMNNLPKSKVLXNZQ?$FLS?$FLVZXXYUY@ 1006b864     cxcore210:cxtables.obj
 0002:00017890       ??_C@_0CO@BDLNIGBK@J?$FLTFRGPJOLNOMTMXNZO?$FLQ?$FLSZUWVUWRXM@ 1006b890     cxcore210:cxtables.obj
 0002:000178c0       ??_C@_0CA@DFFLGPH@JZWNUMRMPNNPMSMVNYOZQ?$FLT?$FLVZ?5MTUT?$AA@ 1006b8c0     cxcore210:cxtables.obj
 0002:000178e0       ??_C@_0DF@HBAPIJFC@I?$FLWUWRVOUNSMQMONMPLSLVMYNZP?$FLR?$FLTZ@ 1006b8e0     cxcore210:cxtables.obj
 0002:00017918       ??_C@_0CN@EKLHBHLI@J?2K?$FLNZQXSVUSWOXKXIWGUFSGRHQJPOPT@ 1006b918     cxcore210:cxtables.obj
 0002:00017948       ??_C@_0CP@FLFPMLIH@LZLVNSPRRRTTTVSXQZN?$FLP?2Q?$FOQaPdOfMg@ 1006b948     cxcore210:cxtables.obj
 0002:00017978       ??_C@_0CO@KLPDCAEA@L?$FLLVNRLXLZM?$FLO?$FLQZSXUU?5VRPdOfMgLfL@ 1006b978     cxcore210:cxtables.obj
 0002:000179a8       ??_C@_0CI@PBJNIBFE@JZJVLSNRPRQSQZR?$FLU?$FLXYZV?5WSVRTRSSO@ 1006b9a8     cxcore210:cxtables.obj
 0002:000179d0       ??_C@_0DB@MDOIIEEB@I?$FOLRJTIWIYJ?$FLL?$FLNZPX?5RRPXPZQ?$FLS?$FLUZW@ 1006b9d0     cxcore210:cxtables.obj
 0002:00017a04       ??_C@_0CC@KCHDBCFE@L?$FLLVNRMWMZN?$FLO?$FLRZTXUUUR?5URVVWWYW?$FL@ 1006ba04     cxcore210:cxtables.obj
 0002:00017a28       ??_C@_0CG@EBIIJPMN@L?$FLLVNRLXLZM?$FLO?$FLQZSXUU?5VRTXTZU?$FLV?$FLX@ 1006ba28     cxcore210:cxtables.obj
 0002:00017a50       ??_C@_0BP@PPHNNOGB@OXOVQSSO?5VFPXPZQ?$FLS?$FLUZVYXV?5PNWN?$AA@ 1006ba50     cxcore210:cxtables.obj
 0002:00017a70       ??_C@_0CA@OKJCDOF@NYNVPSQQQSSVTXTZR?$FL?5NZP?$FLT?$FLVZWYYV?$AA@ 1006ba70     cxcore210:cxtables.obj
 0002:00017a90       ??_C@_0BP@KGMKIDBJ@MZMVOSPQPSSSTTTVSYSZT?$FLU?$FLWZXYZV?$AA@ 1006ba90     cxcore210:cxtables.obj
 0002:00017ab0       ??_C@_0DG@ENMHOGEO@L?$FLUUTSRRPRNSMTLVLXMZO?$FLQ?$FLSZ?5VRUUS@ 1006bab0     cxcore210:cxtables.obj
 0002:00017ae8       ??_C@_0CP@OEFLAPPN@KZKVMSNQMUGg?5MUNSPRRRTSUUUWTYSZQ@ 1006bae8     cxcore210:cxtables.obj
 0002:00017b18       ??_C@_0CP@LKDOMBLH@LZRRPRNSMTLVLXMZO?$FLQ?$FLSZTYUWUUTSRR@ 1006bb18     cxcore210:cxtables.obj
 0002:00017b48       ??_C@_0CO@MCDKHFKO@J?2JVLSNROSOTNXM?$FL?5NXOVQSSRURVSVUU@ 1006bb48     cxcore210:cxtables.obj
 0002:00017b78       ??_C@_0EB@BNPPGLBN@E?$FOEVGSIRJSJTIXH?$FL?5IXJVLSNRPRQSQTP@ 1006bb78     cxcore210:cxtables.obj
 0002:00017bbc       ??_C@_0CF@IDJEAFHC@OWOVQSTNULVIVGUFSGRIQMPTPZQ?$FLR?$FLTZ@ 1006bbbc     cxcore210:cxtables.obj
 0002:00017be8       ??_C@_0EB@PGANGCLI@M?$FLMVOSRNSLTITGSFQGPIOMNSM?$FL?5M?$FLNXO@ 1006bbe8     cxcore210:cxtables.obj
 0002:00017c2c       ??_C@_0CI@MKPMOCND@PWSMSNTNTMSM?5PVRRLdKfIgHfHdIaL?$FOO@ 1006bc2c     cxcore210:cxtables.obj
 0002:00017c54       ??_C@_0CA@GAJHHCCL@PWSMSNTNTMSM?5PVRRPXPZQ?$FLR?$FLTZUYWV?$AA@ 1006bc54     cxcore210:cxtables.obj
 0002:00017c74       ??_C@_0DK@LFJHNJDK@M?2MVOSRNSLTITGSFQGPIOMNSM?$FL?5M?$FLNXO@ 1006bc74     cxcore210:cxtables.obj
 0002:00017cb0       ??_C@_0DI@DKILCHPM@L?$FLUUTSRRPRNSMTLVLXMZO?$FLQ?$FLSZTY?5VRT@ 1006bcb0     cxcore210:cxtables.obj
 0002:00017ce8       ??_C@_0DB@OKMFANNA@OWOVSQUNVLWIWGVFTGSIQQNZKaJdJfKg@ 1006bce8     cxcore210:cxtables.obj
 0002:00017d1c       ??_C@_0CD@NNEBKGC@NXOYQXRWSUSSRRQROSNUNXOZQ?$FLS?$FLUZVY@ 1006bd1c     cxcore210:cxtables.obj
 0002:00017d40       ??_C@_0DA@MIBKOPDM@L?2UUTSRRPRNSMTLVLXMZO?$FLQ?$FLSZTXZF?5V@ 1006bd40     cxcore210:cxtables.obj
 0002:00017d70       ??_C@_0BN@FBLKAABP@MXTTTSSRQROSNTMVMXNZP?$FLS?$FLVYXV?$AA@ 1006bd70     cxcore210:cxtables.obj
 0002:00017d90       ??_C@_0CP@DJAGBFCN@M?$FLMVOSRNSLTITGSFQGPIOMNTNZO?$FLP?$FLRZ@ 1006bd90     cxcore210:cxtables.obj
 0002:00017dc0       ??_C@_0CN@KFLNLHKD@L?2UUTSRRPRNSMTLVLXMZO?$FLQ?$FLSZTXVRUW@ 1006bdc0     cxcore210:cxtables.obj
 0002:00017df0       ??_C@_0CO@EMJMGCHG@F?$FNNMLNJQITIWJZK?$FLM?$FLOZQW?5RSQWRZS?$FLU@ 1006bdf0     cxcore210:cxtables.obj
 0002:00017e20       ??_C@_0CI@KOCNGKMH@F?$FNVFNb?5GQHOJMLMMNMPLULXMZO?$FLQ?$FLTZV@ 1006be20     cxcore210:cxtables.obj
 0002:00017e48       ??_C@_0BM@DLGKHLOA@I?$FLKMMMOOU?$GAWbYb?5ZMYOWRM?$FNK?$GAJb?$AA@ 1006be48     cxcore210:cxtables.obj
 0002:00017e64       ??_C@_0CL@JCJMDPOB@G?$FNONMOKQJTJWKYLZN?$FLQ?$FLTZWXYUZRZOXM@ 1006be64     cxcore210:cxtables.obj
 0002:00017e90       ??_C@_0CB@FDIAMBGO@H?2IQJOLMNMONOPMVMYO?$FLQ?$FLTZVXXTYPYM@ 1006be90     cxcore210:cxtables.obj
 0002:00017eb4       ??_C@_0BA@DDHFFHPO@H?2SMP?$FL?5JPLNOMZM?$AA@ 1006beb4     cxcore210:cxtables.obj
 0002:00017ec4       ??_C@_0CF@DOFBDGA@I?$FN?$FLMQMONMPLSLVMYNZP?$FLR?$FLTZVXWUWRVO@ 1006bec4     cxcore210:cxtables.obj
 0002:00017eec       ??_C@_0CH@IDEALEPL@I?$FLMSMVNYOZQ?$FLS?$FLUZWXXUXRWOVNTMRMPN@ 1006beec     cxcore210:cxtables.obj
 0002:00017f14       ??_C@_0BJ@MFPKNBBC@G?$FNPML?$FL?5UMVSWXX?$FL?5IPKNNM?$FLM?$AA@ 1006bf14     cxcore210:cxtables.obj
 0002:00017f30       ??_C@_0CF@LLKJAHJ@J?$FLRMPNNPMSMVNYOZQ?$FLS?$FLUZWXXUXRWOVN@ 1006bf30     cxcore210:cxtables.obj
 0002:00017f58       ??_C@_0DJ@BJCPCCMI@JZTFRGQHQIRJUKXK?5UKRLPMOOOQQSTTV@ 1006bf58     cxcore210:cxtables.obj
 0002:00017f94       ??_C@_0BM@EHMMLEJD@I?$FLLMOMNSMXL?$FL?5YMXPWRUURXOZL?$FL?$AA@ 1006bf94     cxcore210:cxtables.obj
 0002:00017fb0       ??_C@_0CJ@FCIAOLIG@H?$FNOMIb?5NQMVMYO?$FLQ?$FLSZUXWT?5YMWTVXVZ@ 1006bfb0     cxcore210:cxtables.obj
 0002:00017fdc       ??_C@_0BC@PFFNKCFL@JZKFMFOGPHX?$FL?5RML?$FL?$AA@ 1006bfdc     cxcore210:cxtables.obj
 0002:00017ff0       ??_C@_0CF@DEEOFPGJ@I?$FLOMK?$FL?5YNXMWMUNQROSNS?5NSPTQUSZT?$FL@ 1006bff0     cxcore210:cxtables.obj
 0002:00018018       ??_C@_0BD@PDBNKHPJ@LWRMPTOXOZP?$FLR?$FLTYUW?$AA@ 1006c018     cxcore210:cxtables.obj
 0002:0001802c       ??_C@_0DH@KBOPGAGF@G?2HQIOKMMMNNNPMUMXNZO?$FLQ?$FLSZUWVUWR@ 1006c02c     cxcore210:cxtables.obj
 0002:00018064       ??_C@_0CG@FCFHDLOD@H?2IQJOLMNMONOPNTL?$FL?5NTPPRNTMVMXOX@ 1006c064     cxcore210:cxtables.obj
 0002:0001808c       ??_C@_0CO@NIEBCLCM@JYTFRGQHQIRJUKXK?5XKTMQONRMUMWNYP@ 1006c08c     cxcore210:cxtables.obj
 0002:000180bc       ??_C@_0CG@NAMHGLGF@JZWOVNTMQMONOPPRSS?5SSOTMVMXNZP?$FLS@ 1006c0bc     cxcore210:cxtables.obj
 0002:000180e4       ??_C@_0DB@FOAOPKIJ@I?$FLTMQMONMPLSLVMYNZP?$FLR?$FLTZVXWUWRVO@ 1006c0e4     cxcore210:cxtables.obj
 0002:00018118       ??_C@_0CC@GJPHAJDP@I?2JPLNNMOMQNROSRSVR?$FL?5ZMYPXRR?$FLP_O@ 1006c118     cxcore210:cxtables.obj
 0002:0001813c       ??_C@_0DN@POOINEEG@I?2UFSGQIOMNPMTLZKb?5UFWFYHYKXMWNU@ 1006c13c     cxcore210:cxtables.obj
 0002:0001817c       ??_C@_0DA@HNBGKBBC@H?$FNQMONMPLRKUKXLZN?$FLP?$FLRZUWWTYPZM?5Q@ 1006c17c     cxcore210:cxtables.obj
 0002:000181ac       ??_C@_0BB@CKNKAGFJ@J?$FLXMM?$FL?5MMXM?5M?$FLX?$FL?$AA@ 1006c1ac     cxcore210:cxtables.obj
 0002:000181c0       ??_C@_0BE@BIGHGIMI@JZLMR?$FL?5XMR?$FLP_NaLbKb?$AA@ 1006c1c0     cxcore210:cxtables.obj
 0002:000181d4       ??_C@_0M@KBNFJKMP@J?$FLMMX?$FL?5XMM?$FL?$AA@ 1006c1d4     cxcore210:cxtables.obj
 0002:000181e0       ??_C@_0BG@ONLDEACB@G?$FNJMN?$FL?5RMN?$FL?5RMV?$FL?5ZMV?$FL?$AA@ 1006c1e0     cxcore210:cxtables.obj
 0002:000181f8       ??_C@_0M@JCDNGLE@JZLMR?$FL?5XMR?$FL?$AA@ 1006c1f8     cxcore210:cxtables.obj
 0002:00018204       ??_C@_0BG@NKCNNDGO@I?2MMMWNZP?$FLS?$FLUZXW?5XMX?$FL?$AA@ 1006c204     cxcore210:cxtables.obj
 0002:0001821c       ??_C@_0BC@HGGPHKJB@MYRFRWSZU?$FLW?$FL?5OMVM?$AA@ 1006c21c     cxcore210:cxtables.obj
 0002:00018230       ??_C@_0CF@LDJDNIDD@J?$FLXPWNTMQMNNMPNRPSUTWUXWXXWZT?$FLQ?$FL@ 1006c230     cxcore210:cxtables.obj
 0002:00018258       ??_C@_0BC@DNLBBJPB@KXOMO?$FL?5OSPPRNTMWM?$AA@ 1006c258     cxcore210:cxtables.obj
 0002:0001826c       ??_C@_0CE@CHDCANKN@I?2XMXb?5XPVNTMQMONMPLSLUMXOZQ?$FLT?$FLV@ 1006c26c     cxcore210:cxtables.obj
 0002:00018290       ??_C@_0CE@CMNJGPOM@H?$FLLMLb?5LPNNPMSMUNWPXSXUWXUZS?$FLP?$FLN@ 1006c290     cxcore210:cxtables.obj
 0002:000182b4       ??_C@_0CF@CNOFCLGH@I?2QMONMPLSLUMXOZQ?$FLT?$FLVZXXYUYSXPVN@ 1006c2b4     cxcore210:cxtables.obj
 0002:000182dc       ??_C@_0BG@ONADGLIL@I?2MMM?$FL?5MQPNRMUMWNXQX?$FL?$AA@ 1006c2dc     cxcore210:cxtables.obj
 0002:000182f4       ??_C@_0CF@DEBGLCDF@CaGMG?$FL?5GQJNLMOMQNRQR?$FL?5RQUNWMZM?2N@ 1006c2f4     cxcore210:cxtables.obj
 0002:0001831c       ??_C@_0BB@EICIGJOH@IZMFM?$FL?5WMMW?5QSX?$FL?$AA@ 1006c31c     cxcore210:cxtables.obj
 0002:00018330       ??_C@_0BI@MMAGBKDG@MWRFSGTFSERF?5SMS?$FORaPbNb?$AA@ 1006c330     cxcore210:cxtables.obj
 0002:00018348       ??_C@_0BC@KGBBOICJ@NVQFRGSFREQF?5RMR?$FL?$AA@ 1006c348     cxcore210:cxtables.obj
 0002:0001835c       ??_C@_0BG@EHPEPAKH@I?2MFM?$FL?5MQPNRMUMWNXQX?$FL?$AA@ 1006c35c     cxcore210:cxtables.obj
 0002:00018374       ??_C@_0CO@IDLIJKKH@I?2XMX?$FNW?$GAVaTbQbOa?5XPVNTMQMONMPLSL@ 1006c374     cxcore210:cxtables.obj
 0002:000183a4       ??_C@_0BC@HEIPLIPL@MYWFUFSGRJR?$FL?5OMVM?$AA@ 1006c3a4     cxcore210:cxtables.obj
 0002:000183b8       ??_C@_0CF@MNGBEGBB@I?$FLLSXSXQWOVNTMQMONMPLSLUMXOZQ?$FLT?$FL@ 1006c3b8     cxcore210:cxtables.obj
 0002:000183e0       ??_C@_0CE@IAOKACEJ@I?2XFX?$FL?5XPVNTMQMONMPLSLUMXOZQ?$FLT?$FLV@ 1006c3e0     cxcore210:cxtables.obj
 0002:00018404       ??_C@_0BP@BKIIPJKH@I?$FLXPVNTMQMONMPLSLUMXOZQ?$FLT?$FLVZXX?$AA@ 1006c404     cxcore210:cxtables.obj
 0002:00018424       ??_C@_0CE@ILABGAAI@H?$FLLFL?$FL?5LPNNPMSMUNWPXSXUWXUZS?$FLP?$FLN@ 1006c424     cxcore210:cxtables.obj
 0002:00018448       ??_C@_0CE@LHBIDCIF@I?2XMX?$FL?5XPVNTMQMONMPLSLUMXOZQ?$FLT?$FLV@ 1006c448     cxcore210:cxtables.obj
 0002:0001846c       ??_C@_0N@KFFIHKFP@I?$FLJ?$FLZ?$FLZZJZJ?$FL?$AA@ 1006c46c     cxcore210:cxtables.obj
 0002:0001847c       ??_C@_06ODGCAPKN@I?$FLJ?$FLZ?$FL?$AA@ 1006c47c     cxcore210:cxtables.obj
 0002:00018484       ??_C@_0M@BBONDFAK@E_RJIZ?5RJ?$FLZ?$AA@ 1006c484     cxcore210:cxtables.obj
 0002:00018490       ??_C@_06OACMGFJG@G?$FNIL?$FLb?$AA@ 1006c490     cxcore210:cxtables.obj
 0002:00018498       ??_C@_0BB@HHLJGBFB@I?$FLJFR?$FL?5ZFR?$FL?5JFZF?$AA@ 1006c498     cxcore210:cxtables.obj
 0002:000184b0       ??_C@_0FB@HKIAANEO@H?$FNULTNSOQPOPNNNLOIQGTFWFYGZIZMYP@ 1006c4b0     cxcore210:cxtables.obj
 0002:00018508       ??_C@_0EM@HAOCHIDO@F?$FNKMILHJHIIGKFLFNGOIOKNOMRLVLXMZ@ 1006c508     cxcore210:cxtables.obj
 0002:00018558       ??_C@_0EI@MMAJGION@F?$FONLLLKKKILGNFPFRGSISLQUQXRZT?$FLV?$FL@ 1006c558     cxcore210:cxtables.obj
 0002:000185a0       ??_C@_0DA@PBKLANL@C_HMFLEJEIFGHFIFKGLILLK?$FL?5UFK?$FL?5UF@ 1006c5a0     cxcore210:cxtables.obj
 0002:000185d0       ??_C@_0EB@JADPDNBH@F?$FNKMILHJHIIGKFLFNGOIOKNOMRLVLYM?$FL@ 1006c5d0     cxcore210:cxtables.obj
 0002:00018618       ??_C@_0EC@MMBDAKFB@E?$FNJMHLGJGIHGJFKFMGNINKMOLRKVKXLZ@ 1006c618     cxcore210:cxtables.obj
 0002:0001865c       ??_C@_0DC@HAAAFOLJ@H?$FLRLPLNKMINGQFTFXG?$FLG?$FNF?5XGVNTTRXP@ 1006c65c     cxcore210:cxtables.obj
 0002:00018690       ??_C@_0DJ@ELBIPFGG@H?2H?$FLJZLXOTQQSMTJTGSFRFQGPIPKQMSO@ 1006c690     cxcore210:cxtables.obj
 0002:000186d0       ??_C@_0EN@MLJCGFOE@F_SHTITLSPRSQUOXMZK?$FLJ?$FLIZIWJRKOLM@ 1006c6d0     cxcore210:cxtables.obj
 0002:00018720       ??_C@_0EB@KFOIHECB@H?$FOULTNSOQPOPNNNLOIQGTFWFYGZIZMYP@ 1006c720     cxcore210:cxtables.obj
 0002:00018764       ??_C@_0DP@DEEAHJKN@F_SHTITLSPRSQUOXMZK?$FLJ?$FLIZIWJRKOLM@ 1006c764     cxcore210:cxtables.obj
 0002:000187a4       ??_C@_0DL@LINJDGMO@H?$FNTFQGOIMLLNKRKVLYMZO?$FLQ?$FLTZVXXUYS@ 1006c7a4     cxcore210:cxtables.obj
 0002:000187e0       ??_C@_0EA@HABLHDLK@E?$FNJMHLGJGIHGJFKFMGNINKMPLTJ?$FL?5LTO@ 1006c7e0     cxcore210:cxtables.obj
 0002:00018820       ??_C@_0FJ@NMCGIGOM@?$EAaEMCLBJBICGEFFFHGIIIKHPGTE?$FL?5GTJ@ 1006c820     cxcore210:cxtables.obj
 0002:0001887c       ??_C@_0DL@NNANOEJK@I?2MRORSQVOXMYKYHXFVFUGTISNRSQVPX@ 1006c87c     cxcore210:cxtables.obj
 0002:000188b8       ??_C@_0EN@NINHFJFD@F?$FOMMKLJJJIKGMFNFPGQIQKPONULYJ?$FLH?$FL@ 1006c8b8     cxcore210:cxtables.obj
 0002:00018908       ??_C@_0DD@NAKDNELL@JYT?$FOR?$FLPVOPOJPGRFTFUGVJVMURR?$FLPaOd@ 1006c908     cxcore210:cxtables.obj
 0002:0001893c       ??_C@_0DD@BODDIBEN@IZWVUTSQROQLQIRGSFUFVGWIWLVQTVSX@ 1006c93c     cxcore210:cxtables.obj
 0002:00018970       ??_C@_0EM@LJPIGCC@F?$FOMMKLJJJIKGMFNFPGQIQKPONULYJ?$FLH?$FL@ 1006c970     cxcore210:cxtables.obj
 0002:000189bc       ??_C@_0DL@INJEOJEO@G?$FOG?$FLIZMVPQQNRJRGQFPFOGNINLONQOUO@ 1006c9bc     cxcore210:cxtables.obj
 0002:000189f8       ??_C@_0DH@PAACNNN@H?2RLPLNKMINGQFTFXG?$FLG?$FNF?5XGVNTTRXP@ 1006c9f8     cxcore210:cxtables.obj
 0002:00018a30       ??_C@_0DJ@PGOLACNB@H?2VJVKWLYLZKZIYGVFRFOGNINLONPOSP@ 1006ca30     cxcore210:cxtables.obj
 0002:00018a70       ??_C@_0EH@BMKHMBKO@G?$FOTFRGQIPMOSNVMXKZI?$FLG?$FLFZFXGWIWKX@ 1006ca70     cxcore210:cxtables.obj
 0002:00018ab8       ??_C@_0DB@JBJENBLI@H?2TLTMUNWNYMZKZIYGWFTFQGOIMLLNKR@ 1006cab8     cxcore210:cxtables.obj
 0002:00018af0       ??_C@_0FC@HDHLNHIP@F?$FNSHTITLSPRSQUOXMZK?$FLJ?$FLIZIWJRKOLM@ 1006caf0     cxcore210:cxtables.obj
 0002:00018b44       ??_C@_0CJ@CCJOOCLH@G?$FLG?$FLIZLWOSSLVFV?$FLUXSUQSNQLQKRKTLV@ 1006cb44     cxcore210:cxtables.obj
 0002:00018b70       ??_C@_0CD@HLMHNLAM@H?2K?$FLO?$FLLTKPKLLINGQFSFVGXIYLYPXTU?$FL@ 1006cb70     cxcore210:cxtables.obj
 0002:00018b94       ??_C@_0CE@BNIGLECO@G?$FNRFR?$FL?5ILJLKMLQMSNTQUSUVTWSXQYMZ@ 1006cb94     cxcore210:cxtables.obj
 0002:00018bb8       ??_C@_0M@JBEFHNHG@H?2KFY?$FL?5K?$FLYF?$AA@ 1006cbb8     cxcore210:cxtables.obj
 0002:00018bc4       ??_C@_0CK@OJHAKKPM@H?2RFR?$FL?5PKMLLMKOKRLTMUPVTVWUXTYRY@ 1006cbc4     cxcore210:cxtables.obj
 0002:00018bf0       ??_C@_0CG@CKCEMPOC@I?$FLKKKILGMFOFPGQIRMR?$FL?5YKYIXGWFUFT@ 1006cbf0     cxcore210:cxtables.obj
 0002:00018c18       ??_C@_0BD@HCICGMHJ@I?$FLKFRPK?$FL?5KFYF?5K?$FLY?$FL?$AA@ 1006cc18     cxcore210:cxtables.obj
 0002:00018c2c       ??_C@_0BB@GGBOLHEF@G?$FNKFK?$FL?5YFY?$FL?5KFYF?$AA@ 1006cc2c     cxcore210:cxtables.obj
 0002:00018c40       ??_C@_0BB@MPJKLBAL@I?$FLKFYF?5OPUP?5K?$FLY?$FL?$AA@ 1006cc40     cxcore210:cxtables.obj
 0002:00018c54       ??_C@_0M@DIPNBAIE@I?$FLRFJ?$FL?5RFZ?$FL?$AA@ 1006cc54     cxcore210:cxtables.obj
 0002:00018c60       ??_C@_0DC@HHOHGIKK@G?$FNPFNGLIKKJNJSKVLXNZP?$FLT?$FLVZXXYVZS@ 1006cc60     cxcore210:cxtables.obj
 0002:00018c94       ??_C@_0BB@IPHLPPDB@I?$FLRFJ?$FL?5RFZ?$FL?5J?$FLZ?$FL?$AA@ 1006cc94     cxcore210:cxtables.obj
 0002:00018ca8       ??_C@_0M@CHAEMMGH@HYLFL?$FL?5LFXF?$AA@ 1006cca8     cxcore210:cxtables.obj
 0002:00018cb4       ??_C@_0BB@JKFNHEFK@H?2YFK?$FL?5KFYF?5K?$FLY?$FL?$AA@ 1006ccb4     cxcore210:cxtables.obj
 0002:00018cc8       ??_C@_0O@CMNAKGKE@I?$FLJFRPR?$FL?5ZFRP?$AA@ 1006ccc8     cxcore210:cxtables.obj
 0002:00018cd8       ??_C@_0M@MJNICNNE@H?2KFY?$FL?5YFK?$FL?$AA@ 1006ccd8     cxcore210:cxtables.obj
 0002:00018ce4       ??_C@_0BG@OOLEEHDG@F?$FOHFM?$FL?5RFM?$FL?5RFW?$FL?5?2FW?$FL?$AA@ 1006cce4     cxcore210:cxtables.obj
 0002:00018cfc       ??_C@_0M@JNLJOBHP@I?$FLJFR?$FL?5ZFR?$FL?$AA@ 1006ccfc     cxcore210:cxtables.obj
 0002:00018d08       ??_C@_0BH@ECIIIIJN@G?$FNKFKULXNZQ?$FLS?$FLVZXXYUYF?$AA@ 1006cd08     cxcore210:cxtables.obj
 0002:00018d20       ??_C@_0M@LBGJBAJM@JZRFR?$FL?5KFYF?$AA@ 1006cd20     cxcore210:cxtables.obj
 0002:00018d2c       ??_C@_0CL@OEHFDJBL@H?2YIWGTFPFMGKIKKLMMNOOUQWRXSYUYX@ 1006cd2c     cxcore210:cxtables.obj
 0002:00018d58       ??_C@_0CB@HGHEMBEO@G?2KFK?$FL?5KFTFWGXHYJYLXNWOTPKP?5RPY?$FL@ 1006cd58     cxcore210:cxtables.obj
 0002:00018d7c       ??_C@_0DC@PDJEKNLJ@G?$FNPFNGLIKKJNJSKVLXNZP?$FLT?$FLVZXXYVZS@ 1006cd7c     cxcore210:cxtables.obj
 0002:00018db0       ??_C@_0BM@LAIGIFCI@G?2KFK?$FL?5KFTFWGXHYJYMXOWPTQKQ?$AA@ 1006cdb0     cxcore210:cxtables.obj
 0002:00018dcc       ??_C@_0CN@DCGOHBFE@G?$FNPFNGLIKKJNJSKVLXNZP?$FLT?$FLVZXXYVZS@ 1006cdcc     cxcore210:cxtables.obj
 0002:00018dfc       ??_C@_0BB@KAAJEOGO@G?$FNKFK?$FL?5KFY?$FL?5YFY?$FL?$AA@ 1006cdfc     cxcore210:cxtables.obj
 0002:00018e10       ??_C@_0BG@BGHDDJK@F?$FOJFJ?$FL?5JFR?$FL?5ZFR?$FL?5ZFZ?$FL?$AA@ 1006ce10     cxcore210:cxtables.obj
 0002:00018e28       ??_C@_0M@HKBLCPDJ@HYLFL?$FL?5L?$FLX?$FL?$AA@ 1006ce28     cxcore210:cxtables.obj
 0002:00018e34       ??_C@_0BB@JFPEOFGO@G?2KFK?$FL?5YFKT?5POY?$FL?$AA@ 1006ce34     cxcore210:cxtables.obj
 0002:00018e48       ??_C@_0BH@HPNJBGAC@JZVFVVUYTZR?$FLP?$FLNZMYLVLT?$AA@ 1006ce48     cxcore210:cxtables.obj
 0002:00018e60       ??_C@_06GGKLCAEE@NVRFR?$FL?$AA@ 1006ce60     cxcore210:cxtables.obj
 0002:00018e68       ??_C@_0BB@PPEAKNB@G?$FNKFK?$FL?5YFY?$FL?5KPYP?$AA@ 1006ce68     cxcore210:cxtables.obj
 0002:00018e7c       ??_C@_0CO@PGANNBIF@H?$FNZKYIWGUFQFOGMILKKNKSLVMXOZQ?$FLU?$FL@ 1006ce7c     cxcore210:cxtables.obj
 0002:00018eac       ??_C@_0BB@KPILDANC@HZLFL?$FL?5LFYF?5LPTP?$AA@ 1006ceac     cxcore210:cxtables.obj
 0002:00018ec0       ??_C@_0BG@OELKKKDM@H?$FLLFL?$FL?5LFYF?5LPTP?5L?$FLY?$FL?$AA@ 1006cec0     cxcore210:cxtables.obj
 0002:00018ed8       ??_C@_0CA@JOHFMBKL@G?2KFK?$FL?5KFRFUGWIXKYNYSXVWXUZR?$FLK?$FL?$AA@ 1006ced8     cxcore210:cxtables.obj
 0002:00018ef8       ??_C@_0CH@IFMIDBOD@H?$FNZKYIWGUFQFOGMILKKNKSLVMXOZQ?$FLU?$FL@ 1006cef8     cxcore210:cxtables.obj
 0002:00018f20       ??_C@_0CP@BJFEKJBN@G?2KFK?$FL?5KFTFWGXHYJYLXNWOTP?5KPTPWQ@ 1006cf20     cxcore210:cxtables.obj
 0002:00018f50       ??_C@_0BB@OKHILMOL@I?$FLRFJ?$FL?5RFZ?$FL?5MTWT?$AA@ 1006cf50     cxcore210:cxtables.obj
 0002:00018f64       ??_C@_0BB@FPMAFJNL@H?2LBL?$FL?5RBR?$FL?5XBX?$FL?$AA@ 1006cf64     cxcore210:cxtables.obj
 0002:00018f78       ??_C@_0CA@CAKHIJIM@F?$FOJJQJUKWLYNZQZSYVWXUYQZJZ?5ORZR?$AA@ 1006cf78     cxcore210:cxtables.obj
 0002:00018f98       ??_C@_0CA@IAOMMAEK@F?$FOJJQJUKWLYNZQZSYVWXUYQZJZ?5QFQ?$FO?$AA@ 1006cf98     cxcore210:cxtables.obj
 0002:00018fb8       ??_C@_0CA@BGOCFOCG@F?$FOZJSJOKMLKNJQJSKVMXOYSZZZ?5SFS?$FO?$AA@ 1006cfb8     cxcore210:cxtables.obj
 0002:00018fd8       ??_C@_0CL@CDGODCEF@JZWNTLRIPLMN?5PLRJTL?5RJRZ?5WVTXR?$FLP@ 1006cfd8     cxcore210:cxtables.obj
 0002:00019004       ??_C@_0CL@GPKIBEDP@E_NWLTIRLPNM?5LPJRLT?5JRZR?5VWXT?$FLRX@ 1006d004     cxcore210:cxtables.obj
 0002:00019030       ??_C@_0CD@JPOBIOJK@CaHQGRHSIRHQ?5RQQRRSSRRQ?5?2Q?$FLR?2S?$FNR@ 1006d030     cxcore210:cxtables.obj
 0002:00019054       ??_C@_0BG@INNMAECF@E_IM?$FLM?5IR?$FLR?5IW?$FLW?5K?$FLYI?$AA@ 1006d054     cxcore210:cxtables.obj
 0002:00019070       ??_C@_0FL@JAGBKBOI@E?$FOP?$FLMZJXHUGRGOHLJIMGPFTFWGYI?$FLL?2O@ 1006d070     cxcore210:cxtables.obj
 0002:000190d0       ??_C@_0HA@CDCAFFM@E?$FOP?$FLMZJXHUGRGOHLJIMGPFTFWGYI?$FLL?2O@ 1006d0d0     cxcore210:cxtables.obj
 0002:00019140       ??_C@_0EO@OEKDIONA@F?$FOYXWZU?$FLR?$FLPZMXKWIWHXHZI?$FLK?$FLMZOWPU@ 1006d140     cxcore210:cxtables.obj
 0002:00019190       ??_C@_0GH@DHGAHECI@LYOEOFNFNEODQCTCVDWFVHTI?5TCUDVFU@ 1006d190     cxcore210:cxtables.obj
 0002:000191f8       ??_C@_0CO@PCDBKINP@LYPFSCSP?5RDRP?5OPVP?5MRXR?5SVSa?5TTT@ 1006d1f8     cxcore210:cxtables.obj
 0002:00019228       ??_C@_0IJ@BGPKLAPH@LYOCNI?5OCVC?5ODSDVC?5NIOHQGTGVHWJW@ 1006d228     cxcore210:cxtables.obj
 0002:000192b8       ??_C@_0IO@ELDPGKP@LYNCNG?5VERLPP?5WCTIQP?5NEPCRCUE?5NE@ 1006d2b8     cxcore210:cxtables.obj
 0002:00019348       ??_C@_0KE@DCFCKFKM@LYOCNI?5OCVC?5ODSDVC?5NIOHQGTGVHWJW@ 1006d348     cxcore210:cxtables.obj
 0002:000193f0       ??_C@_0LB@FHJHHDLI@LYOEOFNFNEODQCTCVDWFVHTI?5TCUDVFU@ 1006d3f0     cxcore210:cxtables.obj
 0002:000194a8       ??_C@_0JD@JLNDPPOP@LYOEOFNFNEODQCTCVDWFVHTIQJOKNMNP@ 1006d4a8     cxcore210:cxtables.obj
 0002:00019540       ??_C@_0HI@IFPHEHIK@LYPFSCSP?5RDRP?5OPVP?5MRXR?5QTOUNWOY@ 1006d540     cxcore210:cxtables.obj
 0002:000195b8       ??_C@_0FN@IMAACCKF@LYPFSCSP?5RDRP?5OPVP?5MRXR?5VVVWWWWV@ 1006d5b8     cxcore210:cxtables.obj
 0002:00019618       ??_C@_0GC@NIGAMPID@LYPFSCSP?5RDRP?5OPVP?5MRXR?5OVOWNWNV@ 1006d618     cxcore210:cxtables.obj
 0002:00019680       ??_C@_0FK@LJMIEEEA@LYPFSCSP?5RDRP?5OPVP?5MRXR?5OVOWNWNV@ 1006d680     cxcore210:cxtables.obj
 0002:000196dc       ??_C@_0M@KAFLBPGE@H?2IR?$FLR?5IQ?$FLQ?$AA@ 1006d6dc     cxcore210:cxtables.obj
 0002:000196e8       ??_C@_06LCLINAIF@H?2IR?$FLR?$AA@ 1006d6e8     cxcore210:cxtables.obj
 0002:000196f0       ??_C@_0DG@LBPMOLEO@KYQVOUNSNQOOQNSNUOVQVSUUSVQV?5SVV@ 1006d6f0     cxcore210:cxtables.obj
 0002:00019728       ??_C@_0N@FFPJGADE@D?$GAF?$FO?$FO?$FO?$FOFFFF?$FO?$AA@ 1006d728     cxcore210:cxtables.obj
 0002:00019738       ??_C@_0BA@MHBEFOHJ@CaGO?$FNOXI?5L?$FLGU?$FNU?$AA@ 1006d738     cxcore210:cxtables.obj
 0002:00019748       ??_C@_0DG@MAEIPJBP@F?$FOISJQLPNPPQTTVUXUZT?$FLQ?5ISJPLONOP@ 1006d748     cxcore210:cxtables.obj
 0002:00019780       ??_C@_0FG@MOGBHLPI@F?$FOISJQLPNPPQTTVUXUZT?$FLQ?5ISJPLONOP@ 1006d780     cxcore210:cxtables.obj
 0002:000197d8       ??_C@_0N@HNAOIGPI@H?2RUJPRTZPRU?$AA@ 1006d7d8     cxcore210:cxtables.obj
 0002:000197e8       ??_C@_06HAIOGMIH@I?$FLKRYR?$AA@ 1006d7e8     cxcore210:cxtables.obj
 0002:000197f0       ??_C@_0DO@KHFNOBMB@H?2MPLQLRMSNSOROQNPMP?5MQMRNRNQMQ?5@ 1006d7f0     cxcore210:cxtables.obj
 0002:00019830       ??_C@_0BI@MHNKJEBO@H?2NRMQLRMSNR?5VRWQXRWSVR?$AA@ 1006d830     cxcore210:cxtables.obj
 0002:00019848       ??_C@_0CF@FLBJEKKK@LYRQQPOPNQNSOTQTRSSQTPVPWQWSVTTT@ 1006d848     cxcore210:cxtables.obj
 0002:00019870       ??_C@_0CG@IKJDLFOD@LXNNOQOSNV?5VNUQUSVV?5NNQOSOVN?5NVQ@ 1006d870     cxcore210:cxtables.obj
 0002:00019898       ??_C@_0CL@CHOKPOGH@LXVRURTSSURVOVNUNSORRQSPSNRMPMON@ 1006d898     cxcore210:cxtables.obj
 0002:000198c4       ??_C@_0BG@BNPOGDIK@MXQLQY?5TLTY?5OQVQ?5OTVT?$AA@ 1006d8c4     cxcore210:cxtables.obj
 0002:000198dc       ??_C@_0O@DLOJIFAE@LXSOVRSU?5NRVR?$AA@ 1006d8dc     cxcore210:cxtables.obj
 0002:000198ec       ??_C@_0P@PHDFOOJC@PUSNRNRMSMSORQ?$AA@ 1006d8ec     cxcore210:cxtables.obj
 0002:000198fc       ??_C@_0P@CBAIMHFA@PUSMRORQSQSPRP?$AA@ 1006d8fc     cxcore210:cxtables.obj
 0002:0001990c       ??_C@_0N@PDJLKGAJ@PURQRRSRSQRQ?$AA@ 1006d90c     cxcore210:cxtables.obj
 0002:0001991c       ??_C@_0BB@HIBEPLDP@MWRORU?5OPUT?5UPOT?$AA@ 1006d91c     cxcore210:cxtables.obj
 0002:00019930       ??_C@_0M@PBPAICGK@MWOOUU?5UOOU?$AA@ 1006d930     cxcore210:cxtables.obj
 0002:0001993c       ??_C@_0M@CDGFCLKK@LXNPVP?5NTVT?$AA@ 1006d93c     cxcore210:cxtables.obj
 0002:00019948       ??_C@_0M@OOFOBALF@LXRNRV?5NRVR?$AA@ 1006d948     cxcore210:cxtables.obj
 0002:00019954       ??_C@_06GHJOPJMD@LXNRVR?$AA@ 1006d954     cxcore210:cxtables.obj
 0002:0001995c       ??_C@_06NMNONMID@PTRKRY?$AA@ 1006d95c     cxcore210:cxtables.obj
 0002:00019964       ??_C@_0P@BMCJJFJB@OUPKRNSQSSRVPY?$AA@ 1006d964     cxcore210:cxtables.obj
 0002:00019974       ??_C@_0P@GCPAGOHE@OUTKRNQQQSRVTY?$AA@ 1006d974     cxcore210:cxtables.obj
 0002:00019984       ??_C@_06DIDDKGAP@MWVLNX?$AA@ 1006d984     cxcore210:cxtables.obj
 0002:0001998c       ??_C@_0CA@LILCNID@MWRKRX?5UNSMQMONOPQQTRUSUUSVQVOU?$AA@ 1006d98c     cxcore210:cxtables.obj
 0002:000199ac       ??_C@_0BF@IHEDHNKB@NVQMPNPPQQSQTPTNSMQM?$AA@ 1006d9ac     cxcore210:cxtables.obj
 0002:000199c4       ??_C@_0M@OAGKDPGA@NVPMPQ?5TMTQ?$AA@ 1006d9c4     cxcore210:cxtables.obj
 0002:000199d0       ??_C@_06DBGMAJFH@PTRMRQ?$AA@ 1006d9d0     cxcore210:cxtables.obj
 0002:000199d8       ??_C@_0CC@DAKGBDAJ@NWPNRMSMUNUPRQRRSRSQUP?5RURVSVSUR@ 1006d9d8     cxcore210:cxtables.obj
 0002:000199fc       ??_C@_0BH@ECINPPDH@PURMRR?5SMSR?5RURVSVSURU?$AA@ 1006d9fc     cxcore210:cxtables.obj
 0002:00019a14       ??_C@_0BK@HAPLIKDB@PURPRQSQSPRP?5SVRVRUSUSWRY?$AA@ 1006da14     cxcore210:cxtables.obj
 0002:00019a30       ??_C@_0BI@KGBJLHKD@PURPRQSQSPRP?5RURVSVSURU?$AA@ 1006da30     cxcore210:cxtables.obj
 0002:00019a48       ??_C@_0P@NEPHOLJM@PUSVRVRUSUSWRY?$AA@ 1006da48     cxcore210:cxtables.obj
 0002:00019a58       ??_C@_0N@OKFBIMM@PURURVSVSURU?$AA@ 1006da58     cxcore210:cxtables.obj
 0002:00019a68       ??_C@_0BN@JGMKEMLM@MWUPTRRSPROPPNRMTNUPUSTURVPV?$AA@ 1006da68     cxcore210:cxtables.obj
 0002:00019a88       ??_C@_0CG@EGFHFHJ@MWQMONOPQQSQUPUNSMQM?5QQOROUQVSVU@ 1006da88     cxcore210:cxtables.obj
 0002:00019ab0       ??_C@_0M@EJNLFGPN@MWUMQV?5OMUM?$AA@ 1006dab0     cxcore210:cxtables.obj
 0002:00019abc       ??_C@_0BN@EEJBFLFD@MWTMRMPNOPOSPURVTUUSTQRPPQOS?$AA@ 1006dabc     cxcore210:cxtables.obj
 0002:00019adc       ??_C@_0BM@PKHMIAJM@MWPMOQQPRPTQUSTURVQVOU?5PMTM?$AA@ 1006dadc     cxcore210:cxtables.obj
 0002:00019af8       ??_C@_0O@DGPNHLCH@MWSMSV?5SMNSVS?$AA@ 1006daf8     cxcore210:cxtables.obj
 0002:00019b08       ??_C@_0BO@PNNMLKPB@MWONQMSMUNUPSQ?5RQSQURUUSVQVOU?$AA@ 1006db08     cxcore210:cxtables.obj
 0002:00019b28       ??_C@_0BD@KELHDDIH@MWONQMSMUNUPTROVUV?$AA@ 1006db28     cxcore210:cxtables.obj
 0002:00019b3c       ??_C@_08BMGHLIJH@MWPORMRV?$AA@ 1006db3c     cxcore210:cxtables.obj
 0002:00019b48       ??_C@_0BJ@BHIPILDF@MWRMPNOPOSPURVTUUSUPTNRM?$AA@ 1006db48     cxcore210:cxtables.obj
 0002:00019b64       ??_C@_02JGFLHMPF@NV?$AA@   1006db64     cxcore210:cxtables.obj
 0002:00019b68       ??_C@_02LCNFJAAN@PT?$AA@   1006db68     cxcore210:cxtables.obj
 0002:00019b6c       ??_C@_0DA@MPAAOJIB@LYPMQNQOPPOPNONNOMPMSNUNWMNV?5UST@ 1006db6c     cxcore210:cxtables.obj
 0002:00019b9c       ??_C@_0BJ@OAGKHIFI@OUPKQLRNROQQSRQSRURVQXPY?$AA@ 1006db9c     cxcore210:cxtables.obj
 0002:00019bb8       ??_C@_0BJ@OJINJOBB@OUTKSLRNROSQQRSSRURVSXTY?$AA@ 1006dbb8     cxcore210:cxtables.obj
 0002:00019bd4       ??_C@_0L@DBIBEFOA@OUPKSKSYPY?$AA@ 1006dbd4     cxcore210:cxtables.obj
 0002:00019be0       ??_C@_0L@IGDLPOHJ@OUTKQKQYTY?$AA@ 1006dbe0     cxcore210:cxtables.obj
 0002:00019bec       ??_C@_08OIAJCMOP@MWONUROV?$AA@ 1006dbec     cxcore210:cxtables.obj
 0002:00019bf8       ??_C@_08BAEGEGOK@MWUNORUV?$AA@ 1006dbf8     cxcore210:cxtables.obj
 0002:00019c04       ??_C@_0DK@JPCDIJML@KYTPTSUTVTWSWQVOUNSMQMONNOMQMSNU@ 1006dc04     cxcore210:cxtables.obj
 0002:00019c40       ??_C@_0BJ@KJIIKHLF@MWUQSPQPOQOSPTRUSVSWRXQX?$AA@ 1006dc40     cxcore210:cxtables.obj
 0002:00019c5c       ??_C@_0BO@NKFGOBMH@MWTMQY?5RPPQOSPURVSVUUVSUQSPRP?$AA@ 1006dc5c     cxcore210:cxtables.obj
 0002:00019c7c       ??_C@_0CC@KCNPCOFL@MWRMQNPPOSOVPWRWSVTTUQUNTMRM?5PRT@ 1006dc7c     cxcore210:cxtables.obj
 0002:00019ca0       ??_C@_0BK@HKLDBDJB@MWUQSPRPPQOSPURVSVUU?5OSSS?$AA@ 1006dca0     cxcore210:cxtables.obj
 0002:00019cbc       ??_C@_0BN@ILGNFBFP@MWUSTQRPPQOSPURVTUUSUPTNRMQM?$AA@ 1006dcbc     cxcore210:cxtables.obj
 0002:00019cdc       ??_C@_0BJ@BHIOLNPA@NVUPOV?5PQQPSPTQ?5PUQVSVTU?$AA@ 1006dcdc     cxcore210:cxtables.obj
 0002:00019cf8       ??_C@_0CE@BEHDFPPD@MWNPOPPQPROTOUPVRVSUTS?5UPSVRXQYO@ 1006dcf8     cxcore210:cxtables.obj
 0002:00019d1c       ??_C@_0CE@HBJKCOAO@MWOQPPQPRQRUSVTVUU?5VQUPTPSQQUPVO@ 1006dd1c     cxcore210:cxtables.obj
 0002:00019d40       ??_C@_0CI@KANLKNBA@KYLPMPNQNRMTMUNVPVQURSSP?5RSRUSVU@ 1006dd40     cxcore210:cxtables.obj
 0002:00019d68       ??_C@_0BJ@CGNHAKAE@MWNPOPPQPROTOUPVRVTUURUP?$AA@ 1006dd68     cxcore210:cxtables.obj
 0002:00019d84       ??_C@_0CC@FPPMICOG@MWNPOPPQPROTOUPVRVSUTS?5UPTSTUUVV@ 1006dd84     cxcore210:cxtables.obj
 0002:00019da8       ??_C@_0BC@PAFDHJKO@NUSMQSQURVSV?5PPTP?$AA@ 1006dda8     cxcore210:cxtables.obj
 0002:00019dbc       ??_C@_0BL@CBAABHAO@NVTQSPQPPQPRQSRSSTSURVPVOU?$AA@ 1006ddbc     cxcore210:cxtables.obj
 0002:00019dd8       ??_C@_0BI@KEMIOFAI@MVOPPPQQQSPV?5UQTPSPRQQS?$AA@ 1006ddd8     cxcore210:cxtables.obj
 0002:00019df0       ??_C@_0BK@LCFGLCKI@MXUSTQRPPQOSPURVTUUS?5VPSY?$AA@ 1006ddf0     cxcore210:cxtables.obj
 0002:00019e0c       ??_C@_0CA@ODMIEGEO@MXNPOPPQPSNY?5PSQUSVUUVSUQSPQQPS?$AA@ 1006de0c     cxcore210:cxtables.obj
 0002:00019e2c       ??_C@_0CC@OADFPICP@MWNPOPPQPSOV?5PSQQRPTPUQURTTTUUVV@ 1006de2c     cxcore210:cxtables.obj
 0002:00019e50       ??_C@_0DB@KFBMDBJL@JYKPLPMQMSLV?5MSNQOPQPRQRSQV?5RSSQ@ 1006de50     cxcore210:cxtables.obj
 0002:00019e84       ??_C@_0N@JGNMNHBM@OTSMQSQURVSV?$AA@ 1006de84     cxcore210:cxtables.obj
 0002:00019e94       ??_C@_0BJ@FDCKFLMK@NVRMOV?5UPTPRQPS?5PSQUSVTV?$AA@ 1006de94     cxcore210:cxtables.obj
 0002:00019eb0       ??_C@_0CA@GPLCMHGO@OUSMSNTNTMSM?5QPRPSQSRRVQXPYOYNX?$AA@ 1006deb0     cxcore210:cxtables.obj
 0002:00019ed0       ??_C@_0BO@PGLLAPNB@PUSMSNTNTMSM?5QPRPSQSRRTRUSVTV?$AA@ 1006ded0     cxcore210:cxtables.obj
 0002:00019ef0       ??_C@_0BM@NKANFBG@MVQMNV?5OSPQQPSPTQTRSTSUTVUV?$AA@ 1006def0     cxcore210:cxtables.obj
 0002:00019f0c       ??_C@_0CC@HDMHPKAD@MXUSTQRPPQOSPURVTUUS?5VPTVSXRYPYO@ 1006df0c     cxcore210:cxtables.obj
 0002:00019f30       ??_C@_0BI@JKOPKOPD@OVVMUMTNSPQVPXOYNY?5QPUP?$AA@ 1006df30     cxcore210:cxtables.obj
 0002:00019f48       ??_C@_0BJ@CNICILFP@MWOSTSURUQSPRPPQOSPURVTV?$AA@ 1006df48     cxcore210:cxtables.obj
 0002:00019f64       ??_C@_0CA@HIIKAOLM@LWTSSQQPOQNSOUQVSUTS?5VMTSTUUVVV?$AA@ 1006df64     cxcore210:cxtables.obj
 0002:00019f84       ??_C@_0BD@LPIDHALC@MWUQSPRPPQOSPURVTV?$AA@ 1006df84     cxcore210:cxtables.obj
 0002:00019f98       ??_C@_0BH@FOMOBMGA@MWQMOSPURVTUUSTQRPPQOS?$AA@ 1006df98     cxcore210:cxtables.obj
 0002:00019fb0       ??_C@_0CA@DDDIGCOF@LWTSSQQPOQNSOUQVSUTS?5UPTSTUUVVV?$AA@ 1006dfb0     cxcore210:cxtables.obj
 0002:00019fd0       ??_C@_0BO@LEJAJMN@LXOPNRNTOVQVRTRR?5UPVRVTUVSVRT?$AA@ 1006dfd0     cxcore210:cxtables.obj
 0002:00019ff0       ??_C@_0BM@BNJFKJME@KYTMRY?5MQNPOPPQPUQVTVUUVSWP?$AA@ 1006dff0     cxcore210:cxtables.obj
 0002:0001a00c       ??_C@_0BI@NLKDLNGA@MWOPPPQQSXTYUY?5UPTRPWOY?$AA@ 1006e00c     cxcore210:cxtables.obj
 0002:0001a024       ??_C@_0BP@FIOIGBGI@MXPPOQOSPURVSVUUVSVQUPTPSQRSQY?$AA@ 1006e024     cxcore210:cxtables.obj
 0002:0001a044       ??_C@_0BH@OKOHFAKO@KXMQNPOPPQPUQVSVTUUSVP?$AA@ 1006e044     cxcore210:cxtables.obj
 0002:0001a05c       ??_C@_0O@NEJKMPJO@MXOQQPVP?5SPRV?$AA@ 1006e05c     cxcore210:cxtables.obj
 0002:0001a06c       ??_C@_0BH@JJLEKFKF@MXVPRPPQOSPURVTUUSTQRP?$AA@ 1006e06c     cxcore210:cxtables.obj
 0002:0001a084       ??_C@_0BH@GFCCKEEG@MWOSPURVTUUSTQRPPQOSNY?$AA@ 1006e084     cxcore210:cxtables.obj
 0002:0001a09c       ??_C@_0BH@PFNAHPLJ@MXOQQPVP?5QPQRPV?5TPTRUV?$AA@ 1006e09c     cxcore210:cxtables.obj
 0002:0001a0b4       ??_C@_0CL@FIBGJJNC@NWTMSNSOTP?5UPSPQQQRRSTS?5SSQTPUPV@ 1006e0b4     cxcore210:cxtables.obj
 0002:0001a0e0       ??_C@_0BC@KBGALAMO@MWNPOPOV?5UPTSRUOV?$AA@ 1006e0e0     cxcore210:cxtables.obj
 0002:0001a0f4       ??_C@_0CB@ICEDBNP@LYPPMY?5UPTSSUQVPVOUOS?5TSTUUVVVWU@ 1006e0f4     cxcore210:cxtables.obj
 0002:0001a118       ??_C@_0BC@FIEJBJLE@MWOMPMQNRPUV?5RPOV?$AA@ 1006e118     cxcore210:cxtables.obj
 0002:0001a12c       ??_C@_0BJ@MKDKCKAC@MWQPOV?5UPTPRQPS?5PSQUSVTV?$AA@ 1006e12c     cxcore210:cxtables.obj
 0002:0001a148       ??_C@_0P@PMPGFCLB@OVRPQSQURVSVTU?$AA@ 1006e148     cxcore210:cxtables.obj
 0002:0001a158       ??_C@_0CH@OPNCPMPF@LXNQOPPPQQQURVSVTUUSVPVNUMTMSNSP@ 1006e158     cxcore210:cxtables.obj
 0002:0001a180       ??_C@_0CA@LNFBCLLD@LXNQOPPPQQQSPV?5QSRQTPUPVQVSUVTY?$AA@ 1006e180     cxcore210:cxtables.obj
 0002:0001a1a0       ??_C@_0CA@BADFDNKB@NWTMSNSOTP?5UPSPQQPSPUQVSWSXRYQY?$AA@ 1006e1a0     cxcore210:cxtables.obj
 0002:0001a1c0       ??_C@_0BO@ECBGIOEP@NWUQSPQPPQPRQS?5SSQSPTPUQVSVUU?$AA@ 1006e1c0     cxcore210:cxtables.obj
 0002:0001a1e0       ??_C@_0BP@HIJAEJNM@MWTNSMRMQNQORPTQUSTURVPUOSPQRP?$AA@ 1006e1e0     cxcore210:cxtables.obj
 0002:0001a200       ??_C@_0BK@NCLAGEOJ@MXNQOPQPRQRSQW?5VPURSTQWPY?$AA@ 1006e200     cxcore210:cxtables.obj
 0002:0001a21c       ??_C@_0CF@PBLNNBCJ@MWOTQVSVTUTSSRPQRQTPUOUNTMRMQNPP@ 1006e21c     cxcore210:cxtables.obj
 0002:0001a244       ??_C@_0BJ@BHIOPMOE@MXVPUSTURVPUOSPQRPTQUUVV?$AA@ 1006e244     cxcore210:cxtables.obj
 0002:0001a260       ??_C@_0L@EJFBPPFC@MWOPUPOVUV?$AA@ 1006e260     cxcore210:cxtables.obj
 0002:0001a26c       ??_C@_0BC@GGLHOJGI@MWOPRV?5UPRVQXPYOY?$AA@ 1006e26c     cxcore210:cxtables.obj
 0002:0001a280       ??_C@_0M@JADGABFN@MWOPUV?5UPOV?$AA@ 1006e280     cxcore210:cxtables.obj
 0002:0001a28c       ??_C@_0BG@BMNANOD@LXNPPV?5RPPV?5RPTV?5VPTV?$AA@ 1006e28c     cxcore210:cxtables.obj
 0002:0001a2a4       ??_C@_0M@DIBNDFFH@NVOPRV?5UPRV?$AA@ 1006e2a4     cxcore210:cxtables.obj
 0002:0001a2b0       ??_C@_0BE@PEIOGHNL@MWUPUV?5OPOSPURVTUUS?$AA@ 1006e2b0     cxcore210:cxtables.obj
 0002:0001a2c4       ??_C@_0BC@FOGFNCHO@NVRMRUSVTVUU?5PPTP?$AA@ 1006e2c4     cxcore210:cxtables.obj
 0002:0001a2d8       ??_C@_0BL@GHKPCNOK@NWUQTPQPPQPRQSTSUTUUTVQVPU?$AA@ 1006e2d8     cxcore210:cxtables.obj
 0002:0001a2f4       ??_C@_0BA@PCEMNLOP@NVPPPV?5PSQQSPTP?$AA@ 1006e2f4     cxcore210:cxtables.obj
 0002:0001a304       ??_C@_0BK@JBPDBMJI@MWUPUY?5USTQRPPQOSPURVTUUS?$AA@ 1006e304     cxcore210:cxtables.obj
 0002:0001a320       ??_C@_0BK@BKMFACJ@MWOPOY?5OSPURVTUUSTQRPPQOS?$AA@ 1006e320     cxcore210:cxtables.obj
 0002:0001a33c       ??_C@_0BF@BKPKCFFH@MWRPPQOSPURVTUUSTQRP?$AA@ 1006e33c     cxcore210:cxtables.obj
 0002:0001a354       ??_C@_0BE@OJOGOJHH@MWOPOV?5OSPQRPTQUSUV?$AA@ 1006e354     cxcore210:cxtables.obj
 0002:0001a368       ??_C@_0CF@NDCCEACF@KYMPMV?5MSNQOPPPQQRSRV?5RSSQTPUPVQ@ 1006e368     cxcore210:cxtables.obj
 0002:0001a390       ??_C@_0BB@IONKJKKD@NWPMPV?5UPPT?5RSUV?$AA@ 1006e390     cxcore210:cxtables.obj
 0002:0001a3a4       ??_C@_0BI@ONOKELIJ@PUSLRMSNTMSL?5SPSXRYQYPX?$AA@ 1006e3a4     cxcore210:cxtables.obj
 0002:0001a3bc       ??_C@_0BC@FAEHBMI@PTRLQMRNSMRL?5RPRV?$AA@ 1006e3bc     cxcore210:cxtables.obj
 0002:0001a3d0       ??_C@_0BE@OMAJNDBI@MWOMOV?5OSPQRPTQUSUV?$AA@ 1006e3d0     cxcore210:cxtables.obj
 0002:0001a3e4       ??_C@_0CA@IHPIEKFE@MWUPUVTXRYPY?5USTQRPPQOSPURVTUUS?$AA@ 1006e3e4     cxcore210:cxtables.obj
 0002:0001a404       ??_C@_0BC@INLLOFG@NVUNTMSMRNRV?5PPTP?$AA@ 1006e404     cxcore210:cxtables.obj
 0002:0001a418       ??_C@_0BF@LCHHAIKM@MWOSUSTQRPPQOSPURVTV?$AA@ 1006e418     cxcore210:cxtables.obj
 0002:0001a430       ??_C@_0BK@EHACBNJL@MWUMUV?5USTQRPPQOSPURVTUUS?$AA@ 1006e430     cxcore210:cxtables.obj
 0002:0001a44c       ??_C@_0BF@JJGNJLNP@MWUQSPRPPQOSPURVSVUU?$AA@ 1006e44c     cxcore210:cxtables.obj
 0002:0001a464       ??_C@_0BK@NHFNFBCK@MWOMOV?5OSPURVTUUSTQRPPQOS?$AA@ 1006e464     cxcore210:cxtables.obj
 0002:0001a480       ??_C@_0BK@FCPLGACE@NWQPTPUQUV?5URQSPTPUQVSVUU?$AA@ 1006e480     cxcore210:cxtables.obj
 0002:0001a49c       ??_C@_0P@PKEJIJGJ@MWMMOKQKTMVMWK?$AA@ 1006e49c     cxcore210:cxtables.obj
 0002:0001a4ac       ??_C@_06HJOLLONJ@PVRMUQ?$AA@ 1006e4ac     cxcore210:cxtables.obj
 0002:0001a4b4       ??_C@_06NLLBBCPB@MWNVVV?$AA@ 1006e4b4     cxcore210:cxtables.obj
 0002:0001a4bc       ??_C@_0M@KLPLFJAJ@LXRONU?5ROVU?$AA@ 1006e4bc     cxcore210:cxtables.obj
 0002:0001a4c8       ??_C@_06HKJGIIIE@MWNLVX?$AA@ 1006e4c8     cxcore210:cxtables.obj
 0002:0001a4d0       ??_C@_0BB@MAOFHILC@LXNMRV?5VMRV?5NMVM?$AA@ 1006e4d0     cxcore210:cxtables.obj
 0002:0001a4e4       ??_C@_0L@NOJIABKA@MWQMWMNVTV?$AA@ 1006e4e4     cxcore210:cxtables.obj
 0002:0001a4f0       ??_C@_0O@KNKFHKLB@NWQMSQQV?5WMSQ?$AA@ 1006e4f0     cxcore210:cxtables.obj
 0002:0001a500       ??_C@_0M@JGJLHBFL@NWQMTV?5WMNV?$AA@ 1006e500     cxcore210:cxtables.obj
 0002:0001a50c       ??_C@_0BG@PBCFALBF@KXNMNV?5SMNV?5SMSV?5XMSV?$AA@ 1006e50c     cxcore210:cxtables.obj
 0002:0001a524       ??_C@_0M@IHPIPINJ@MWOMQV?5WMQV?$AA@ 1006e524     cxcore210:cxtables.obj
 0002:0001a530       ??_C@_0BD@EJNKAIDF@LXPMNSNUOVRVTUUSWM?$AA@ 1006e530     cxcore210:cxtables.obj
 0002:0001a544       ??_C@_0M@KJBHEHOO@MVSMPV?5PMVM?$AA@ 1006e544     cxcore210:cxtables.obj
 0002:0001a550       ??_C@_0BL@CCAIKBII@MWVNTMRMPNPPQQTRUSUUSVPVNU?$AA@ 1006e550     cxcore210:cxtables.obj
 0002:0001a56c       ??_C@_0CB@PIPJBMKL@MWQMNV?5QMUMVNVPUQSRPR?5QRRUSVTVUU@ 1006e56c     cxcore210:cxtables.obj
 0002:0001a590       ??_C@_0DE@GGFJGGKP@LXRMPNOONQNSOUPVRVTUUTVRVPUNTMRM@ 1006e590     cxcore210:cxtables.obj
 0002:0001a5c4       ??_C@_0BG@FJJBGEHO@MWQMNV?5QMUMVNVPUQSRPR?$AA@ 1006e5c4     cxcore210:cxtables.obj
 0002:0001a5dc       ??_C@_0CB@DJGGCAFG@LXRMPNOONQNSOUPVRVTUUTVRVPUNTMRM@ 1006e5dc     cxcore210:cxtables.obj
 0002:0001a600       ??_C@_0BB@JKOFAIPL@MXQMNV?5QMTV?5WMTV?$AA@ 1006e600     cxcore210:cxtables.obj
 0002:0001a614       ??_C@_0BG@CENMBCEF@LYPMMV?5PMQV?5XMQV?5XMUV?$AA@ 1006e614     cxcore210:cxtables.obj
 0002:0001a62c       ??_C@_0M@FLMKBCJO@NVRMOV?5OVTV?$AA@ 1006e62c     cxcore210:cxtables.obj
 0002:0001a638       ??_C@_0BB@PJHNIAKE@MVQMNV?5VMOS?5RQTV?$AA@ 1006e638     cxcore210:cxtables.obj
 0002:0001a64c       ??_C@_0BB@HBAIBBNG@OVUMSSRUQVPVOUOT?$AA@ 1006e64c     cxcore210:cxtables.obj
 0002:0001a660       ??_C@_06DIHHAHMM@PUTMQV?$AA@ 1006e660     cxcore210:cxtables.obj
 0002:0001a668       ??_C@_0BB@HBJHLAHL@MXQMNV?5WMTV?5PQUQ?$AA@ 1006e668     cxcore210:cxtables.obj
 0002:0001a67c       ??_C@_0BP@KMFEPPCK@LXVPUNTMRMPNOONQNSOUPVRVTUUSRS?$AA@ 1006e67c     cxcore210:cxtables.obj
 0002:0001a69c       ??_C@_0BB@HPHKIFGM@MVQMNV?5QMVM?5PQSQ?$AA@ 1006e69c     cxcore210:cxtables.obj
 0002:0001a6b0       ??_C@_0BG@PLJGINKB@MVQMNV?5QMVM?5PQSQ?5NVSV?$AA@ 1006e6b0     cxcore210:cxtables.obj
 0002:0001a6c8       ??_C@_0BI@KABMKAM@MXQMNV?5QMUMVOVQUTTURVNV?$AA@ 1006e6c8     cxcore210:cxtables.obj
 0002:0001a6e0       ??_C@_0BN@HEJKLOAL@LXVPUNTMRMPNOONQNSOUPVRVTUUT?$AA@ 1006e6e0     cxcore210:cxtables.obj
 0002:0001a700       ??_C@_0CB@CIDMAENO@MWQMNV?5QMTMVNVPSQPQ?5SQURUTTURVNV@ 1006e700     cxcore210:cxtables.obj
 0002:0001a724       ??_C@_0BB@FEDNGKJH@MWSMMV?5SMUV?5OSTS?$AA@ 1006e724     cxcore210:cxtables.obj
 0002:0001a738       ??_C@_0BL@EHKDJHLF@MXOVQVOROPPNRMSMUNVPVRTVVV?$AA@ 1006e738     cxcore210:cxtables.obj
 0002:0001a754       ??_C@_0BI@MNCCCOLH@LXRMRV?5NOOPOSQTSTUSUPVO?$AA@ 1006e754     cxcore210:cxtables.obj
 0002:0001a76c       ??_C@_0BK@FDGFABOB@LXRMRV?5PONPNSPTTTVSVPTOPO?$AA@ 1006e76c     cxcore210:cxtables.obj
 0002:0001a788       ??_C@_0BO@KJMBNBAG@MWNONNOMPMQNRPRV?5VOVNUMTMSNRP?$AA@ 1006e788     cxcore210:cxtables.obj
 0002:0001a7a8       ??_C@_0BD@IJBBIML@MWOMRQOV?5OMUM?5OVUV?$AA@ 1006e7a8     cxcore210:cxtables.obj
 0002:0001a7bc       ??_C@_0BB@FNKNOMHE@MWOMOV?5UMUV?5OMUM?$AA@ 1006e7bc     cxcore210:cxtables.obj
 0002:0001a7d0       ??_C@_0BG@IINABFAF@MWOMUM?5PQTR?5TQPR?5OVUV?$AA@ 1006e7d0     cxcore210:cxtables.obj
 0002:0001a7e8       ??_C@_0M@DNJMEIPD@MWRMNV?5RMVV?$AA@ 1006e7e8     cxcore210:cxtables.obj
 0002:0001a7f4       ??_C@_0CH@EJMKGKG@MXRMPNOPOSPURVSVUUVSVPUNSMRM?5QQT@ 1006e7f4     cxcore210:cxtables.obj
 0002:0001a81c       ??_C@_0BB@EFAMEIMF@MWRMNV?5RMVV?5NVVV?$AA@ 1006e81c     cxcore210:cxtables.obj
 0002:0001a830       ??_C@_0M@NBOILLAF@MVOMOV?5OMUM?$AA@ 1006e830     cxcore210:cxtables.obj
 0002:0001a83c       ??_C@_0BB@FLLMMDM@MWUMOV?5OMUM?5OVUV?$AA@ 1006e83c     cxcore210:cxtables.obj
 0002:0001a850       ??_C@_0O@PCKHACLN@MWNMRQRV?5VMRQ?$AA@ 1006e850     cxcore210:cxtables.obj
 0002:0001a860       ??_C@_0M@GPMKCLDJ@MWOMUV?5UMOV?$AA@ 1006e860     cxcore210:cxtables.obj
 0002:0001a86c       ??_C@_0BG@LBAMAIF@LXNMPV?5RMPV?5RMTV?5VMTV?$AA@ 1006e86c     cxcore210:cxtables.obj
 0002:0001a884       ??_C@_0M@NJJDADON@MWNMRV?5VMRV?$AA@ 1006e884     cxcore210:cxtables.obj
 0002:0001a890       ??_C@_0BD@CKPNNFJL@MXOMOSPURVSVUUVSVM?$AA@ 1006e890     cxcore210:cxtables.obj
 0002:0001a8a4       ??_C@_0M@BKKONNIO@MWRMRV?5NMVM?$AA@ 1006e8a4     cxcore210:cxtables.obj
 0002:0001a8b0       ??_C@_0BL@OLNHCKEH@MWUNSMQMONOOPPTRUSUUSVQVOU?$AA@ 1006e8b0     cxcore210:cxtables.obj
 0002:0001a8cc       ??_C@_0BJ@PGHEMHOF@MWOMOV?5OMSMUNUQSROR?5RRUV?$AA@ 1006e8cc     cxcore210:cxtables.obj
 0002:0001a8e8       ??_C@_0CC@JHLOOHIJ@MXRMPNOPOSPURVSVUUVSVPUNSMRM?5STV@ 1006e8e8     cxcore210:cxtables.obj
 0002:0001a90c       ??_C@_0BE@EEFGNOJO@MWOMOV?5OMSMUNUQSROR?$AA@ 1006e90c     cxcore210:cxtables.obj
 0002:0001a920       ??_C@_0BN@FOKFANPL@MXRMPNOPOSPURVSVUUVSVPUNSMRM?$AA@ 1006e920     cxcore210:cxtables.obj
 0002:0001a940       ??_C@_0BB@OOEHLJOM@MWOMOV?5OMUV?5UMUV?$AA@ 1006e940     cxcore210:cxtables.obj
 0002:0001a954       ??_C@_0BG@JBFFHAGH@LXNMNV?5NMRV?5VMRV?5VMVV?$AA@ 1006e954     cxcore210:cxtables.obj
 0002:0001a96c       ??_C@_0M@PPMGKAAB@MVOMOV?5OVUV?$AA@ 1006e96c     cxcore210:cxtables.obj
 0002:0001a978       ??_C@_0BB@IOMHOEGO@MWOMOV?5UMOS?5QQUV?$AA@ 1006e978     cxcore210:cxtables.obj
 0002:0001a98c       ??_C@_0P@KFFAEILN@NUSMSTRVPVOTOS?$AA@ 1006e98c     cxcore210:cxtables.obj
 0002:0001a99c       ??_C@_06HOCNJPJA@PTRMRV?$AA@ 1006e99c     cxcore210:cxtables.obj
 0002:0001a9a4       ??_C@_0BB@KBBFFJAO@MWOMOV?5UMUV?5OQUQ?$AA@ 1006e9a4     cxcore210:cxtables.obj
 0002:0001a9b8       ??_C@_0BO@JBKHBNIP@MXVNTMRMPNOPOSPURVTVVUVR?5SRVR?$AA@ 1006e9b8     cxcore210:cxtables.obj
 0002:0001a9d8       ??_C@_0BB@FOKFGNDI@MVOMOV?5OMUM?5OQSQ?$AA@ 1006e9d8     cxcore210:cxtables.obj
 0002:0001a9ec       ??_C@_0BG@IJLDDMAP@MWOMOV?5OMUM?5OQSQ?5OVUV?$AA@ 1006e9ec     cxcore210:cxtables.obj
 0002:0001aa04       ??_C@_0BI@DAIJOFMH@MWOMOV?5OMRMTNUPUSTURVOV?$AA@ 1006ea04     cxcore210:cxtables.obj
 0002:0001aa1c       ??_C@_0BH@NDHFGMBF@MXVNTMRMPNOPOSPURVTVVU?$AA@ 1006ea1c     cxcore210:cxtables.obj
 0002:0001aa34       ??_C@_0BP@MNFBPHKO@MWOMOV?5OMSMUNUPSQ?5OQSQURUUSVOV?$AA@ 1006ea34     cxcore210:cxtables.obj
 0002:0001aa54       ??_C@_0BB@NDPBLBDP@MWRMNV?5RMVV?5PSTS?$AA@ 1006ea54     cxcore210:cxtables.obj
 0002:0001aa68       ?g_8x32fTab@cv@@3QBMB      1006ea68     cxcore210:cxtables.obj
 0002:0001b068       ?g_8x16uSqrTab@cv@@3QBGB   1006f068     cxcore210:cxtables.obj
 0002:0001b468       ?g_Saturate8u@cv@@3QBEB    1006f468     cxcore210:cxtables.obj
 0002:0001b76c       ??_C@_0DN@FJEMLGIK@img?9?$DOdataOrder?5?$DN?$DN?5IPL_DATA_ORDER@ 1006f76c     cxcore210:cxmatrix.obj
 0002:0001b7ac       ??_C@_0CH@LLFOBEFJ@img?9?$DOdataOrder?5?$DN?$DN?5IPL_DATA_ORDER@ 1006f7ac     cxcore210:cxmatrix.obj
 0002:0001b7d4       ??_C@_0P@OCLHCPCI@?4?2cxmatrix?4cpp?$AA@ 1006f7d4     cxcore210:cxmatrix.obj
 0002:0001b7e4       ??_C@_0BA@HAEKNLAP@?4?2cxconvert?4cpp?$AA@ 1006f7e4     cxcore210:cxconvert.obj
 0002:0001b7f8       ??_C@_0EJ@FHGIEBGD@i1?5?$DO?$DN?50?5?$CG?$CG?5j?5?$DM?5ndsts?5?$CG?$CG?5dst?$FLj?$FN?4s@ 1006f7f8     cxcore210:cxconvert.obj
 0002:0001b844       ??_C@_0DO@CGCICIHJ@j?5?$DM?5nsrcs?5?$CG?$CG?5src?$FLj?$FN?4size?$CI?$CJ?5?$DN?$DN?5si@ 1006f844     cxcore210:cxconvert.obj
 0002:0001b884       ??_C@_0DN@HOJMKEHK@src?5?$CG?$CG?5nsrcs?5?$DO?50?5?$CG?$CG?5dst?5?$CG?$CG?5ndsts@ 1006f884     cxcore210:cxconvert.obj
 0002:0001b8c4       ??_C@_0P@EKLILDDJ@?4?2cxarithm?4cpp?$AA@ 1006f8c4     cxcore210:cxarithm.obj
 0002:0001b8d4       ??_C@_0BK@BABIIEJN@Unknown?5comparison?5method?$AA@ 1006f8d4     cxcore210:cxarithm.obj
 0002:0001b8f0       ??_C@_0BF@JLNIOAHH@src1?4channels?$CI?$CJ?5?$DN?$DN?51?$AA@ 1006f8f0     cxcore210:cxarithm.obj
 0002:0001b908       ??_C@_0EG@CLKOBOAG@src1?4size?$CI?$CJ?5?$DN?$DN?5src2?4size?$CI?$CJ?5?$CG?$CG?5sr@ 1006f908     cxcore210:cxarithm.obj
 0002:0001cb98       __real@c107700000000000    10070b98     cxcore210:cxmathfuncs.obj
 0002:0001cbd8       __real@3fc999999999999a    10070bd8     IAFindShape.obj
 0002:0001cbe0       __real@3fc0000000000000    10070be0     cxcore210:cxmathfuncs.obj
 0002:0001cc00       __real@3fc00000            10070c00     cxcore210:cxmathfuncs.obj
 0002:0001cc04       ??_C@_0BC@EHCNKBMP@?4?2cxmathfuncs?4cpp?$AA@ 10070c04     cxcore210:cxmathfuncs.obj
 0002:0001cc18       ??_C@_0CD@LNMJJOMG@depth?5?$DN?$DN?5CV_32F?5?$HM?$HM?5depth?5?$DN?$DN?5CV_6@ 10070c18     cxcore210:cxmathfuncs.obj
 0002:0001cc40       __real@47efffffe0000000    10070c40     cxcore210:cxmathfuncs.obj
 0002:0001cc48       __real@3fefffeb074a771d    10070c48     cv210:cvshapedescr.obj
 0002:0001cc50       __real@bee4f8b588e368f1    10070c50     cv210:cvshapedescr.obj
 0002:0001cc58       __real@3ee4f8b588e368f1    10070c58     cv210:cvshapedescr.obj
 0002:0001cc60       ??_C@_0BK@KBIHAKMH@Unsupported?5sequence?5type?$AA@ 10070c60     cv210:cvshapedescr.obj
 0002:0001cc7c       ??_C@_0BD@PBGHJIIG@?4?2cvshapedescr?4cpp?$AA@ 10070c7c     cv210:cvshapedescr.obj
 0002:0001cc90       ??_C@_0CL@LFBKFHAM@The?5passed?5sequence?5is?5not?5a?5val@ 10070c90     cv210:cvshapedescr.obj
 0002:0001ccbc       ??_C@_0DC@OFBMKHID@?$CIicvContourSecArea?$CI?5contour?0?5sli@ 10070cbc     cv210:cvshapedescr.obj
 0002:0001ccf0       ??_C@_0EM@JNNCAGPF@Only?5curves?5with?5integer?5coordin@ 10070cf0     cv210:cvshapedescr.obj
 0002:0001cd3c       ??_C@_0CI@BPEOAJAC@?$CIicvContourArea?$CI?5contour?0?5?$CGarea?5@ 10070d3c     cv210:cvshapedescr.obj
 0002:0001cd64       ??_C@_0DJ@IKBIAKNJ@The?5image?1matrix?5format?5is?5not?5s@ 10070d64     cv210:cvshapedescr.obj
 0002:0001cda0       ??_C@_0BB@HLIPIIDF@?4?2cvconvhull?4cpp?$AA@ 10070da0     cv210:cvconvhull.obj
 0002:0001cdb4       ??_C@_0DI@KCBOBDIG@Point?5sequence?5can?5not?5be?5empty?5@ 10070db4     cv210:cvconvhull.obj
 0002:0001cdf0       ??_C@_0EF@EFLKAMNK@The?5hull?5matrix?5must?5have?5the?5sa@ 10070df0     cv210:cvconvhull.obj
 0002:0001ce38       ??_C@_0DJ@CGFFBPMK@The?5hull?5matrix?5size?5might?5be?5no@ 10070e38     cv210:cvconvhull.obj
 0002:0001ce78       ??_C@_0EO@IEOLKGGG@The?5hull?5matrix?5should?5be?5contin@ 10070e78     cv210:cvconvhull.obj
 0002:0001cec8       ??_C@_0DD@GDDOOCJJ@Destination?5must?5be?5valid?5memory@ 10070ec8     cv210:cvconvhull.obj
 0002:0001cf00       ??_C@_0HN@JFLGIDJN@0?5?$DM?$DN?5roi?4x?5?$CG?$CG?50?5?$DM?$DN?5roi?4width?5?$CG?$CG?5@ 10070f00     cv210:cvmoments.obj
 0002:0001cf80       ??_C@_0BA@DOFINIMC@?4?2cvmoments?4cpp?$AA@ 10070f80     cv210:cvmoments.obj
 0002:0001cf90       __real@3f70101010101010    10070f90     cv210:cvmoments.obj
 0002:0001cf98       ??_C@_0BD@PJECCMGI@Invalid?5image?5type?$AA@ 10070f98     cv210:cvmoments.obj
 0002:0001cfac       ??_C@_0P@PHMMOABB@?4?2cvapprox?4cpp?$AA@ 10070fac     cv210:cvapprox.obj
 0002:0001cfc0       __real@3ff199999999999a    10070fc0     cv210:cvapprox.obj
 0002:0001d004       ??_C@_0CG@FFPBCJEO@header_size?5?$DO?$DN?5?$CIint?$CJsizeof?$CICvCon@ 10071004     cv210:cvapprox.obj
 0002:0001d02c       ??_C@_0CB@GADDPOMD@CV_IS_SEQ_CHAIN_CONTOUR?$CI?5chain?5?$CJ@ 1007102c     cv210:cvapprox.obj
 0002:0001d050       ??_C@_0BB@BGNODMGP@?4?2cvgeometry?4cpp?$AA@ 10071050     cv210:cvgeometry.obj
 0002:0001d068       __real@c059000000000000    10071068     cv210:cvgeometry.obj
 0002:0001d070       ??_C@_0DH@NFNGGCHN@Input?5contour?5is?5neither?5a?5valid@ 10071070     cv210:cvgeometry.obj
 0002:0001d0a8       ??_C@_0FK@HNDAHGIH@Chains?5are?5not?5supported?4?5Conver@ 100710a8     cv210:cvgeometry.obj
 0002:0001d108       ??_C@_0EM@LGLBJPID@The?5matrix?5converted?5to?5point?5se@ 10071108     cv210:cvutils.obj
 0002:0001d158       ??_C@_0FI@JJOGCIDE@The?5matrix?5can?5not?5be?5converted?5@ 10071158     cv210:cvutils.obj
 0002:0001d1b0       ??_C@_0CC@MLCCNPCI@Input?5array?5is?5not?5a?5valid?5matri@ 100711b0     cv210:cvutils.obj
 0002:0001d1d4       ??_C@_0CO@KFLHKBPG@arr?5?$CB?$DN?50?5?$CG?$CG?5contour_header?5?$CB?$DN?50?5@ 100711d4     cv210:cvutils.obj
 0002:0001d204       ??_C@_0O@GNFHOFOH@?4?2cvutils?4cpp?$AA@ 10071204     cv210:cvutils.obj
 0002:0001d258       ??_C@_0BB@NOHKGCBM@?4?2cvcontours?4cpp?$AA@ 10071258     cv210:cvcontours.obj
 0002:0001d278       ?icv8x32fTab_cv@@3QBMB     10071278     cv210:cvtables.obj
 0002:0001de78       ?icv8x32fSqrTab@@3QBMB     10071e78     cv210:cvtables.obj
 0002:0001e478       ?icvSaturate8u_cv@@3QBEB   10072478     cv210:cvtables.obj
 0002:0001e77c       ??_C@_01PLPBNMEI@M?$AA@    1007277c     opencv_lapack:dgelsd.obj
 0002:0001e780       ??_C@_01CPLAODJH@S?$AA@    10072780     opencv_lapack:dgelsd.obj
 0002:0001e784       ??_C@_01CKDDGHAB@D?$AA@    10072784     opencv_lapack:dlalsd.obj
 0002:0001e788       ??_C@_01HMGJMAIH@B?$AA@    10072788     opencv_lapack:dlascl.obj
 0002:0001e78c       __pRawDllMain              1007278c     mfcs90:rawdllmainproxy.obj
 0002:0001e790       ??_C@_06JBKGCNBB@Delete?$AA@ 10072790     mfcs90:nolib.obj
 0002:0001e798       ??_C@_08KAAPDIAN@NoRemove?$AA@ 10072798     mfcs90:nolib.obj
 0002:0001e7a4       ??_C@_0M@DBGDLGLL@ForceRemove?$AA@ 100727a4     mfcs90:nolib.obj
 0002:0001e7b0       ??_C@_03LAIAPFCB@Val?$AA@  100727b0     mfcs90:nolib.obj
 0002:000203c4       ??_C@_03EPNNLCDK@con?$AA@  100743c4     enlog2static:enLog2.obj
 0002:000203c8       ??_C@_02CPIDLAI@at?$AA@    100743c8     enlog2static:enLog2.obj
 0002:000203cc       ??_C@_0CM@JNJJMBB@?$CL?$CL?$CL?$CL?$CL?$CL?$CL?$CL?$CL?$CL?$CL?$CL?$CL?$CL?$CL?$CL?$CL?$CL?$CL?$CL?$CL?$CL?$CL?$CL?$CL?$CL?$CL?$CL?$CL?$CL?$CL?$CL@ 100743cc     enlog2static:enLog2.obj
 0002:000203f8       ??_C@_0BA@NLPJLDOB@enlog2_init?$CI?$CFs?$CJ?$AA@ 100743f8     enlog2static:enLog2.obj
 0002:00020408       ??_C@_0BA@DCDOOFIJ@enlog2_finish?$CI?$CJ?$AA@ 10074408     enlog2static:enLog2.obj
 0002:00020418       ??_C@_0CM@JHDGHFGP@?9?9?9?9?9?9?9?9?9?9?9?9?9?9?9?9?9?9?9?9?9?9?9?9?9?9?9?9?9?9?9?9@ 10074418     enlog2static:enLog2.obj
 0002:00020444       ??_C@_04BEADLPGM@INFO?$AA@ 10074444     enlog2static:enLog2.obj
 0002:0002044c       ??_C@_05KOLFGEDA@DEBUG?$AA@ 1007444c     enlog2static:enLog2.obj
 0002:00020454       ??_C@_07KCOHIFOP@WARNING?$AA@ 10074454     enlog2static:enLog2.obj
 0002:0002045c       ??_C@_05MBDEGLCK@ERROR?$AA@ 1007445c     enlog2static:enLog2.obj
 0002:00020464       ??_C@_05JLFELJNP@FATAL?$AA@ 10074464     enlog2static:enLog2.obj
 0002:0002046c       ??_C@_07NFANNNEC@UNKNOWN?$AA@ 1007446c     enlog2static:enLog2.obj
 0002:00020474       ??_C@_0CJ@DLOJADOP@?$CF04d?9?$CF02d?9?$CF02d?5?$CF02d?3?$CF02d?3?$CF02d?5?$CF0@ 10074474     enlog2static:enLog2.obj
 0002:000204a0       ??_C@_02PCIJFNDE@?$AN?6?$AA@ 100744a0     enlog2static:enLog2.obj
 0002:000204f4       ??_R4bad_alloc@std@@6B@    100744f4     DataStat.obj
 0002:00020508       ??_R3bad_alloc@std@@8      10074508     DataStat.obj
 0002:00020518       ??_R2bad_alloc@std@@8      10074518     DataStat.obj
 0002:00020524       ??_R1A@?0A@EA@bad_alloc@std@@8 10074524     DataStat.obj
 0002:00020540       ??_R1A@?0A@EA@exception@std@@8 10074540     DataStat.obj
 0002:0002055c       ??_R3exception@std@@8      1007455c     DataStat.obj
 0002:0002056c       ??_R2exception@std@@8      1007456c     DataStat.obj
 0002:00020574       ??_R4logic_error@std@@6B@  10074574     DataStat.obj
 0002:00020588       ??_R3logic_error@std@@8    10074588     DataStat.obj
 0002:00020598       ??_R2logic_error@std@@8    10074598     DataStat.obj
 0002:000205a4       ??_R1A@?0A@EA@logic_error@std@@8 100745a4     DataStat.obj
 0002:000205c0       ??_R4length_error@std@@6B@ 100745c0     DataStat.obj
 0002:000205d4       ??_R3length_error@std@@8   100745d4     DataStat.obj
 0002:000205e4       ??_R2length_error@std@@8   100745e4     DataStat.obj
 0002:000205f4       ??_R1A@?0A@EA@length_error@std@@8 100745f4     DataStat.obj
 0002:00020610       ??_R4?$RegisterDisposeBase@PAUStraightEdgeReport_struct@@@@6B@ 10074610     IACalcAngle.obj
 0002:00020624       ??_R3?$RegisterDisposeBase@PAUStraightEdgeReport_struct@@@@8 10074624     IACalcAngle.obj
 0002:00020634       ??_R2?$RegisterDisposeBase@PAUStraightEdgeReport_struct@@@@8 10074634     IACalcAngle.obj
 0002:0002063c       ??_R1A@?0A@EA@?$RegisterDisposeBase@PAUStraightEdgeReport_struct@@@@8 1007463c     IACalcAngle.obj
 0002:00020658       ??_R4RegisterDisposeSER@@6B@ 10074658     IACalcAngle.obj
 0002:0002066c       ??_R3RegisterDisposeSER@@8 1007466c     IACalcAngle.obj
 0002:0002067c       ??_R2RegisterDisposeSER@@8 1007467c     IACalcAngle.obj
 0002:00020688       ??_R1A@?0A@EA@RegisterDisposeSER@@8 10074688     IACalcAngle.obj
 0002:000206a4       ??_R4?$RegisterDisposeBase@PAX@@6B@ 100746a4     IACalcArea.obj
 0002:000206b8       ??_R3?$RegisterDisposeBase@PAX@@8 100746b8     IACalcArea.obj
 0002:000206c8       ??_R2?$RegisterDisposeBase@PAX@@8 100746c8     IACalcArea.obj
 0002:000206d0       ??_R1A@?0A@EA@?$RegisterDisposeBase@PAX@@8 100746d0     IACalcArea.obj
 0002:000206ec       ??_R4RegisterDispose@@6B@  100746ec     IACalcArea.obj
 0002:00020700       ??_R3RegisterDispose@@8    10074700     IACalcArea.obj
 0002:00020710       ??_R2RegisterDispose@@8    10074710     IACalcArea.obj
 0002:0002071c       ??_R1A@?0A@EA@RegisterDispose@@8 1007471c     IACalcArea.obj
 0002:00020738       ??_R4?$auto_array@M@@6B@   10074738     IACalcCrack.obj
 0002:0002074c       ??_R3?$auto_array@M@@8     1007474c     IACalcCrack.obj
 0002:0002075c       ??_R2?$auto_array@M@@8     1007475c     IACalcCrack.obj
 0002:00020764       ??_R1A@?0A@EA@?$auto_array@M@@8 10074764     IACalcCrack.obj
 0002:00020780       ??_R4?$RegisterDisposeBase@PAUCircularEdgeReport_struct@@@@6B@ 10074780     IACalcHexagon.obj
 0002:00020794       ??_R3?$RegisterDisposeBase@PAUCircularEdgeReport_struct@@@@8 10074794     IACalcHexagon.obj
 0002:000207a4       ??_R2?$RegisterDisposeBase@PAUCircularEdgeReport_struct@@@@8 100747a4     IACalcHexagon.obj
 0002:000207ac       ??_R1A@?0A@EA@?$RegisterDisposeBase@PAUCircularEdgeReport_struct@@@@8 100747ac     IACalcHexagon.obj
 0002:000207c8       ??_R4RegisterDisposeCER@@6B@ 100747c8     IACalcHexagon.obj
 0002:000207dc       ??_R3RegisterDisposeCER@@8 100747dc     IACalcHexagon.obj
 0002:000207ec       ??_R2RegisterDisposeCER@@8 100747ec     IACalcHexagon.obj
 0002:000207f8       ??_R1A@?0A@EA@RegisterDisposeCER@@8 100747f8     IACalcHexagon.obj
 0002:00020814       ??_R4?$auto_array@UPointFloat_struct@@@@6B@ 10074814     IACalcHexagon.obj
 0002:00020828       ??_R3?$auto_array@UPointFloat_struct@@@@8 10074828     IACalcHexagon.obj
 0002:00020838       ??_R2?$auto_array@UPointFloat_struct@@@@8 10074838     IACalcHexagon.obj
 0002:00020840       ??_R1A@?0A@EA@?$auto_array@UPointFloat_struct@@@@8 10074840     IACalcHexagon.obj
 0002:0002085c       ??_R4?$auto_array@PAUBestLine_struct@@@@6B@ 1007485c     IACalcHexagon.obj
 0002:00020870       ??_R3?$auto_array@PAUBestLine_struct@@@@8 10074870     IACalcHexagon.obj
 0002:00020880       ??_R2?$auto_array@PAUBestLine_struct@@@@8 10074880     IACalcHexagon.obj
 0002:00020888       ??_R1A@?0A@EA@?$auto_array@PAUBestLine_struct@@@@8 10074888     IACalcHexagon.obj
 0002:000208a4       ??_R4?$auto_array@Upoint@@@@6B@ 100748a4     IACalcThreadDamage.obj
 0002:000208b8       ??_R3?$auto_array@Upoint@@@@8 100748b8     IACalcThreadDamage.obj
 0002:000208c8       ??_R2?$auto_array@Upoint@@@@8 100748c8     IACalcThreadDamage.obj
 0002:000208d0       ??_R1A@?0A@EA@?$auto_array@Upoint@@@@8 100748d0     IACalcThreadDamage.obj
 0002:000208ec       ??_R4sub_image@@6B@        100748ec     sub_image.obj
 0002:00020900       ??_R3sub_image@@8          10074900     sub_image.obj
 0002:00020910       ??_R2sub_image@@8          10074910     sub_image.obj
 0002:00020918       ??_R1A@?0A@EA@sub_image@@8 10074918     sub_image.obj
 0002:00020934       ??_R4type_info@@6B@        10074934     MSVCRT:ti_inst.obj
 0002:00020948       ??_R3type_info@@8          10074948     MSVCRT:ti_inst.obj
 0002:00020958       ??_R2type_info@@8          10074958     MSVCRT:ti_inst.obj
 0002:00020960       ??_R1A@?0A@EA@type_info@@8 10074960     MSVCRT:ti_inst.obj
 0002:0002097c       ??_R4CBlobResult@@6B@      1007497c     cvblobslib:BlobResult.obj
 0002:00020990       ??_R3CBlobResult@@8        10074990     cvblobslib:BlobResult.obj
 0002:000209a0       ??_R2CBlobResult@@8        100749a0     cvblobslib:BlobResult.obj
 0002:000209a8       ??_R1A@?0A@EA@CBlobResult@@8 100749a8     cvblobslib:BlobResult.obj
 0002:000209c4       ??_R4CBlobGetExterior@@6B@ 100749c4     cvblobslib:BlobResult.obj
 0002:000209d8       ??_R3CBlobGetExterior@@8   100749d8     cvblobslib:BlobResult.obj
 0002:000209e8       ??_R2CBlobGetExterior@@8   100749e8     cvblobslib:BlobResult.obj
 0002:000209f4       ??_R1A@?0A@EA@CBlobGetExterior@@8 100749f4     cvblobslib:BlobResult.obj
 0002:00020a10       ??_R1A@?0A@EA@COperadorBlob@@8 10074a10     cvblobslib:BlobResult.obj
 0002:00020a2c       ??_R3COperadorBlob@@8      10074a2c     cvblobslib:BlobResult.obj
 0002:00020a3c       ??_R2COperadorBlob@@8      10074a3c     cvblobslib:BlobResult.obj
 0002:00020a44       ??_R4COperadorBlob@@6B@    10074a44     cvblobslib:BlobResult.obj
 0002:00020a58       ??_R4CBlobGetExternPerimeter@@6B@ 10074a58     cvblobslib:BlobResult.obj
 0002:00020a6c       ??_R3CBlobGetExternPerimeter@@8 10074a6c     cvblobslib:BlobResult.obj
 0002:00020a7c       ??_R2CBlobGetExternPerimeter@@8 10074a7c     cvblobslib:BlobResult.obj
 0002:00020a88       ??_R1A@?0A@EA@CBlobGetExternPerimeter@@8 10074a88     cvblobslib:BlobResult.obj
 0002:00020aa4       ??_R4CBlobGetHullPerimeter@@6B@ 10074aa4     cvblobslib:BlobResult.obj
 0002:00020ab8       ??_R3CBlobGetHullPerimeter@@8 10074ab8     cvblobslib:BlobResult.obj
 0002:00020ac8       ??_R2CBlobGetHullPerimeter@@8 10074ac8     cvblobslib:BlobResult.obj
 0002:00020ad4       ??_R1A@?0A@EA@CBlobGetHullPerimeter@@8 10074ad4     cvblobslib:BlobResult.obj
 0002:00020af0       ??_R4CBlobGetArea@@6B@     10074af0     cvblobslib:BlobResult.obj
 0002:00020b04       ??_R3CBlobGetArea@@8       10074b04     cvblobslib:BlobResult.obj
 0002:00020b14       ??_R2CBlobGetArea@@8       10074b14     cvblobslib:BlobResult.obj
 0002:00020b20       ??_R1A@?0A@EA@CBlobGetArea@@8 10074b20     cvblobslib:BlobResult.obj
 0002:00020b3c       ??_R4CBlobGetPerimeter@@6B@ 10074b3c     cvblobslib:BlobResult.obj
 0002:00020b50       ??_R3CBlobGetPerimeter@@8  10074b50     cvblobslib:BlobResult.obj
 0002:00020b60       ??_R2CBlobGetPerimeter@@8  10074b60     cvblobslib:BlobResult.obj
 0002:00020b6c       ??_R1A@?0A@EA@CBlobGetPerimeter@@8 10074b6c     cvblobslib:BlobResult.obj
 0002:00020b88       ??_R4CBlobGetCompactness@@6B@ 10074b88     cvblobslib:BlobResult.obj
 0002:00020b9c       ??_R3CBlobGetCompactness@@8 10074b9c     cvblobslib:BlobResult.obj
 0002:00020bac       ??_R2CBlobGetCompactness@@8 10074bac     cvblobslib:BlobResult.obj
 0002:00020bb8       ??_R1A@?0A@EA@CBlobGetCompactness@@8 10074bb8     cvblobslib:BlobResult.obj
 0002:00020bd4       ??_R4CBlobGetLength@@6B@   10074bd4     cvblobslib:BlobResult.obj
 0002:00020be8       ??_R3CBlobGetLength@@8     10074be8     cvblobslib:BlobResult.obj
 0002:00020bf8       ??_R2CBlobGetLength@@8     10074bf8     cvblobslib:BlobResult.obj
 0002:00020c04       ??_R1A@?0A@EA@CBlobGetLength@@8 10074c04     cvblobslib:BlobResult.obj
 0002:00020c20       ??_R4CBlobGetXCenter@@6B@  10074c20     cvblobslib:BlobOperators.obj
 0002:00020c34       ??_R3CBlobGetXCenter@@8    10074c34     cvblobslib:BlobOperators.obj
 0002:00020c44       ??_R2CBlobGetXCenter@@8    10074c44     cvblobslib:BlobOperators.obj
 0002:00020c50       ??_R1A@?0A@EA@CBlobGetXCenter@@8 10074c50     cvblobslib:BlobOperators.obj
 0002:00020c6c       ??_R4CBlobGetYCenter@@6B@  10074c6c     cvblobslib:BlobOperators.obj
 0002:00020c80       ??_R3CBlobGetYCenter@@8    10074c80     cvblobslib:BlobOperators.obj
 0002:00020c90       ??_R2CBlobGetYCenter@@8    10074c90     cvblobslib:BlobOperators.obj
 0002:00020c9c       ??_R1A@?0A@EA@CBlobGetYCenter@@8 10074c9c     cvblobslib:BlobOperators.obj
 0002:00020cb8       ??_R4Exception@cv@@6B@     10074cb8     cxcore210:cxarray.obj
 0002:00020ccc       ??_R3Exception@cv@@8       10074ccc     cxcore210:cxarray.obj
 0002:00020cdc       ??_R2Exception@cv@@8       10074cdc     cxcore210:cxarray.obj
 0002:00020ce8       ??_R1A@?0A@EA@Exception@cv@@8 10074ce8     cxcore210:cxarray.obj
 0002:00020d04       ___rtc_iaa                 10074d04     MSVCRT:_initsect_.obj
 0002:00020d08       ___rtc_izz                 10074d08     MSVCRT:_initsect_.obj
 0002:00020d0c       ___rtc_taa                 10074d0c     MSVCRT:_initsect_.obj
 0002:00020d10       ___rtc_tzz                 10074d10     MSVCRT:_initsect_.obj
 0002:00020dfc       __TI3?AVlength_error@std@@ 10074dfc     DataStat.obj
 0002:00020e0c       __CTA3?AVlength_error@std@@ 10074e0c     DataStat.obj
 0002:00020e1c       __CT??_R0?AVlength_error@std@@@8??0length_error@std@@QAE@ABV01@@Z40 10074e1c     DataStat.obj
 0002:00020e38       __CT??_R0?AVlogic_error@std@@@8??0logic_error@std@@QAE@ABV01@@Z40 10074e38     DataStat.obj
 0002:00020e54       __CT??_R0?AVexception@std@@@8??0exception@std@@QAE@ABV01@@Z12 10074e54     DataStat.obj
 0002:00020ed0       __TI2?AVbad_alloc@std@@    10074ed0     DataStat.obj
 0002:00020ee0       __CTA2?AVbad_alloc@std@@   10074ee0     DataStat.obj
 0002:00020eec       __CT??_R0?AVbad_alloc@std@@@8??0bad_alloc@std@@QAE@ABV01@@Z12 10074eec     DataStat.obj
 0002:00023088       __TI1H                     10077088     cvblobslib:BlobResult.obj
 0002:00023098       __CTA1H                    10077098     cvblobslib:BlobResult.obj
 0002:000230a0       __CT??_R0H@84              100770a0     cvblobslib:BlobResult.obj
 0002:000241b8       __TI2?AVException@cv@@     100781b8     cxcore210:cxsystem.obj
 0002:000241c8       __CTA2?AVException@cv@@    100781c8     cxcore210:cxsystem.obj
 0002:000241d4       __CT??_R0?AVException@cv@@@8??0Exception@cv@@QAE@ABV01@@Z132 100781d4     cxcore210:cxsystem.obj
 0002:00024af4       __IMPORT_DESCRIPTOR_KERNEL32 10078af4     kernel32:KERNEL32.dll
 0002:00024b08       __IMPORT_DESCRIPTOR_USER32 10078b08     user32:USER32.dll
 0002:00024b1c       __IMPORT_DESCRIPTOR_MSVCP90 10078b1c     msvcprt:MSVCP90.dll
 0002:00024b30       __IMPORT_DESCRIPTOR_nivision 10078b30     nivision:nivision.dll
 0002:00024b44       __IMPORT_DESCRIPTOR_MSVCR90 10078b44     MSVCRT:MSVCR90.dll
 0002:00024b58       __IMPORT_DESCRIPTOR_mfc90  10078b58     mfc90:mfc90.dll
 0002:00024b6c       __NULL_IMPORT_DESCRIPTOR   10078b6c     kernel32:KERNEL32.dll
 0003:00000000       ??_R0?AVbad_alloc@std@@@8  1007b000     DataStat.obj
 0003:0000001c       ??_R0?AVexception@std@@@8  1007b01c     DataStat.obj
 0003:00000038       ??_R0?AVlogic_error@std@@@8 1007b038     DataStat.obj
 0003:00000058       ??_R0?AVlength_error@std@@@8 1007b058     DataStat.obj
 0003:000002f0       ??_R0?AV?$RegisterDisposeBase@PAUStraightEdgeReport_struct@@@@@8 1007b2f0     IACalcAngle.obj
 0003:00000334       ??_R0?AVRegisterDisposeSER@@@8 1007b334     IACalcAngle.obj
 0003:0000059c       ??_R0?AV?$RegisterDisposeBase@PAX@@@8 1007b59c     IACalcArea.obj
 0003:000005c4       ??_R0?AVRegisterDispose@@@8 1007b5c4     IACalcArea.obj
 0003:0000081c       ??_R0?AV?$auto_array@M@@@8 1007b81c     IACalcCrack.obj
 0003:000015b0       ??_R0?AV?$RegisterDisposeBase@PAUCircularEdgeReport_struct@@@@@8 1007c5b0     IACalcHexagon.obj
 0003:000015f4       ??_R0?AVRegisterDisposeCER@@@8 1007c5f4     IACalcHexagon.obj
 0003:00001618       ??_R0?AV?$auto_array@UPointFloat_struct@@@@@8 1007c618     IACalcHexagon.obj
 0003:00001648       ??_R0?AV?$auto_array@PAUBestLine_struct@@@@@8 1007c648     IACalcHexagon.obj
 0003:00002854       ??_R0?AV?$auto_array@Upoint@@@@@8 1007d854     IACalcThreadDamage.obj
 0003:00003cb0       ??_R0?AVsub_image@@@8      1007ecb0     sub_image.obj
 0003:00004140       ___security_cookie         1007f140     MSVCRT:gs_cookie.obj
 0003:00004144       ___security_cookie_complement 1007f144     MSVCRT:gs_cookie.obj
 0003:00004148       ??_R0?AVtype_info@@@8      1007f148     MSVCRT:ti_inst.obj
 0003:00004160       ___native_dllmain_reason   1007f160     MSVCRT:natstart.obj
 0003:00004164       ___native_vcclrit_reason   1007f164     MSVCRT:natstart.obj
 0003:00004170       ??_R0?AVCBlobResult@@@8    1007f170     cvblobslib:BlobResult.obj
 0003:0000418c       ??_R0H@8                   1007f18c     cvblobslib:BlobResult.obj
 0003:00004198       ??_R0?AVCBlobGetExterior@@@8 1007f198     cvblobslib:BlobResult.obj
 0003:000041b8       ??_R0?AVCOperadorBlob@@@8  1007f1b8     cvblobslib:BlobResult.obj
 0003:000041d4       ??_R0?AVCBlobGetExternPerimeter@@@8 1007f1d4     cvblobslib:BlobResult.obj
 0003:000041fc       ??_R0?AVCBlobGetHullPerimeter@@@8 1007f1fc     cvblobslib:BlobResult.obj
 0003:00004220       ??_R0?AVCBlobGetArea@@@8   1007f220     cvblobslib:BlobResult.obj
 0003:0000423c       ??_R0?AVCBlobGetPerimeter@@@8 1007f23c     cvblobslib:BlobResult.obj
 0003:0000425c       ??_R0?AVCBlobGetCompactness@@@8 1007f25c     cvblobslib:BlobResult.obj
 0003:00004280       ??_R0?AVCBlobGetLength@@@8 1007f280     cvblobslib:BlobResult.obj
 0003:000042ac       ??_R0?AVCBlobGetXCenter@@@8 1007f2ac     cvblobslib:BlobOperators.obj
 0003:000042cc       ??_R0?AVCBlobGetYCenter@@@8 1007f2cc     cvblobslib:BlobOperators.obj
 0003:0000430c       ??_R0?AVException@cv@@@8   1007f30c     cxcore210:cxarray.obj
 0003:00004428       ?g_copyMaskFuncTab@cv@@3PAP6AXABVMat@1@AAV21@0@ZA 1007f428     cxcore210:cxcopy.obj
 0003:00004548       ?g_HersheyGlyphs@cv@@3PAPBDA 1007f548     cxcore210:cxtables.obj
 0003:00009208       ?translate@@3PADA          10084208     IAMain.obj
 0003:00009310       ?MYERROR@@3PA_WA           10084310     IAMain.obj
 0003:000096f8       ?ErrMsg@@3PA_WA            100846f8     IAMain.obj
 0003:00009ae0       ?niImage@@3PAY01PAUImage_struct@@A 10084ae0     IAMain.obj
 0003:00009b20       ?initialized@@3_NA         10084b20     IAMain.obj
 0003:00009b24       ?ExternalCallback@@3P6GXW4WindowEventType_enum@@HW4Tool_enum@@URect_struct@@@ZA 10084b24     IAMain.obj
 0003:00009b28       ?fitLine@PointWithIndex@@2PAUBestLine_struct@@A 10084b28     PolygonNIFloat.obj
 0003:00009b2c       ?ptOrig00@sub_image@@0UPoint_struct@@B 10084b2c     sub_image.obj
 0003:00009b34       _nivision_startup_shutdown 10084b34     nivision:StartupShutdown.obj
 0003:00009e64       ?__type_info_root_node@@3U__type_info_node@@A 10084e64     MSVCRT:tncleanup.obj
 0003:00009e80       ?useOptimizedFlag@cv@@3_NC 10084e80     cxcore210:cxsystem.obj
 0003:00009e94       ?first@CvModule@@2PAUCvModuleInfo@@A 10084e94     cxcore210:cxsystem.obj
 0003:00009e98       ?last@CvModule@@2PAUCvModuleInfo@@A 10084e98     cxcore210:cxsystem.obj
 0003:00009e9c       ?cxcore_module@@3UCvModule@@A 10084e9c     cxcore210:cxsystem.obj
 0003:0000a37c       __afxForceEXCLUDE          1008537c     mfcs90:nolib.obj
 0003:0000a380       __afxForceSTDAFX           10085380     mfcs90:stdafx.obj
 0003:0000a384       _fp                        10085384     enlog2static:enLog2.obj
 0003:0000a388       _level                     10085388     enlog2static:enLog2.obj
 0003:0000a38c       _is_stdout                 1008538c     enlog2static:enLog2.obj
 0003:0000a390       __adjust_fdiv              10085390     <common>
 0003:0000a394       ___native_startup_state    10085394     <common>
 0003:0000a398       ___native_startup_lock     10085398     <common>
 0003:0000a39c       ___sse2_available          1008539c     <common>
 0003:0000a3a0       ___onexitend               100853a0     <common>
 0003:0000a3a4       ___onexitbegin             100853a4     <common>
 0003:0000a3a8       ___dyn_tls_init_callback   100853a8     <common>
 0003:0000a3ac       __pActualRawDllMain        100853ac     <common>
 0003:0000a3c0       _prefix                    100853c0     <common>
 0003:0000abc0       _cs                        10085bc0     <common>

 entry point at        0001:0001b97d

 Static symbols

 0001:00000a74       __catch$?_Insert_n@?$vector@HV?$allocator@H@std@@@std@@IAEXV?$_Vector_const_iterator@HV?$allocator@H@std@@@2@IABH@Z$0 10001a74 f i DataStat.obj
 0001:00000a80       __catch$?_Insert_n@?$vector@HV?$allocator@H@std@@@std@@IAEXV?$_Vector_const_iterator@HV?$allocator@H@std@@@2@IABH@Z$2 10001a80 f i DataStat.obj
 0001:00000cb0       ?md5_transform@@YAXQAKQAE@Z 10001cb0 f   encrypt.obj
 0001:00004087       __catch$??$_Uninit_copy@PAU?$pair@Upoint@@U1@@std@@PAU12@V?$allocator@U?$pair@Upoint@@U1@@std@@@2@@std@@YAPAU?$pair@Upoint@@U1@@0@PAU10@00AAV?$allocator@U?$pair@Upoint@@U1@@std@@@0@U_Nonscalar_ptr_iterator_tag@0@U_Range_checked_iterator_tag@0@@Z$0 10005087 f i IACalcDiameter.obj
 0001:00004145       __catch$??$_Uninit_fill_n@PAU?$pair@Upoint@@U1@@std@@IU12@V?$allocator@U?$pair@Upoint@@U1@@std@@@2@@std@@YAXPAU?$pair@Upoint@@U1@@0@IABU10@AAV?$allocator@U?$pair@Upoint@@U1@@std@@@0@U_Nonscalar_ptr_iterator_tag@0@U_Range_checked_iterator_tag@0@@Z$0 10005145 f i IACalcDiameter.obj
 0001:00004378       __catch$?_Insert_n@?$vector@U?$pair@Upoint@@U1@@std@@V?$allocator@U?$pair@Upoint@@U1@@std@@@2@@std@@IAEXV?$_Vector_const_iterator@U?$pair@Upoint@@U1@@std@@V?$allocator@U?$pair@Upoint@@U1@@std@@@2@@2@IABU?$pair@Upoint@@U1@@2@@Z$0 10005378 f i IACalcDiameter.obj
 0001:00004384       __catch$?_Insert_n@?$vector@U?$pair@Upoint@@U1@@std@@V?$allocator@U?$pair@Upoint@@U1@@std@@@2@@std@@IAEXV?$_Vector_const_iterator@U?$pair@Upoint@@U1@@std@@V?$allocator@U?$pair@Upoint@@U1@@std@@@2@@2@IABU?$pair@Upoint@@U1@@2@@Z$2 10005384 f i IACalcDiameter.obj
 0001:0000a527       __catch$??$_Uninit_copy@PAUPointFloat_struct@@PAU1@V?$allocator@UPointFloat_struct@@@std@@@std@@YAPAUPointFloat_struct@@PAU1@00AAV?$allocator@UPointFloat_struct@@@0@U_Nonscalar_ptr_iterator_tag@0@U_Range_checked_iterator_tag@0@@Z$0 1000b527 f i IACalcTeeth.obj
 0001:0000a635       __catch$??$_Uninit_fill_n@PAUPointFloat_struct@@IU1@V?$allocator@UPointFloat_struct@@@std@@@std@@YAXPAUPointFloat_struct@@IABU1@AAV?$allocator@UPointFloat_struct@@@0@U_Nonscalar_ptr_iterator_tag@0@U_Range_checked_iterator_tag@0@@Z$0 1000b635 f i IACalcTeeth.obj
 0001:0000aa14       __catch$?_Insert_n@?$vector@UPointFloat_struct@@V?$allocator@UPointFloat_struct@@@std@@@std@@IAEXV?$_Vector_const_iterator@UPointFloat_struct@@V?$allocator@UPointFloat_struct@@@std@@@2@IABUPointFloat_struct@@@Z$0 1000ba14 f i IACalcTeeth.obj
 0001:0000aa20       __catch$?_Insert_n@?$vector@UPointFloat_struct@@V?$allocator@UPointFloat_struct@@@std@@@std@@IAEXV?$_Vector_const_iterator@UPointFloat_struct@@V?$allocator@UPointFloat_struct@@@std@@@2@IABUPointFloat_struct@@@Z$2 1000ba20 f i IACalcTeeth.obj
 0001:0000d807       __catch$??$_Uninit_copy@PAUpoint@@PAU1@V?$allocator@Upoint@@@std@@@std@@YAPAUpoint@@PAU1@00AAV?$allocator@Upoint@@@0@U_Nonscalar_ptr_iterator_tag@0@U_Range_checked_iterator_tag@0@@Z$0 1000e807 f i IACalcThreadDamage.obj
 0001:0000d807       __catch$??$_Uninit_copy@PBUpoint@@PAU1@V?$allocator@Upoint@@@std@@@std@@YAPAUpoint@@PBU1@0PAU1@AAV?$allocator@Upoint@@@0@U_Nonscalar_ptr_iterator_tag@0@U_Range_checked_iterator_tag@0@@Z$0 1000e807 f i IACalcThreadDamage.obj
 0001:0000d935       __catch$??$_Uninit_fill_n@PAUpoint@@IU1@V?$allocator@Upoint@@@std@@@std@@YAXPAUpoint@@IABU1@AAV?$allocator@Upoint@@@0@U_Nonscalar_ptr_iterator_tag@0@U_Range_checked_iterator_tag@0@@Z$0 1000e935 f i IACalcThreadDamage.obj
 0001:0000dec8       __catch$??0?$vector@HV?$allocator@H@std@@@std@@QAE@ABV01@@Z$0 1000eec8 f i IACalcThreadDamage.obj
 0001:0000e108       __catch$??0?$vector@Upoint@@V?$allocator@Upoint@@@std@@@std@@QAE@ABV01@@Z$0 1000f108 f i IACalcThreadDamage.obj
 0001:0000e4c4       __catch$?_Insert_n@?$vector@Upoint@@V?$allocator@Upoint@@@std@@@std@@IAEXV?$_Vector_const_iterator@Upoint@@V?$allocator@Upoint@@@std@@@2@IABUpoint@@@Z$0 1000f4c4 f i IACalcThreadDamage.obj
 0001:0000e4d0       __catch$?_Insert_n@?$vector@Upoint@@V?$allocator@Upoint@@@std@@@std@@IAEXV?$_Vector_const_iterator@Upoint@@V?$allocator@Upoint@@@std@@@2@IABUpoint@@@Z$2 1000f4d0 f i IACalcThreadDamage.obj
 0001:0000e7da       __catch$??$_Uninit_move@PAV?$vector@Upoint@@V?$allocator@Upoint@@@std@@@std@@PAV12@V?$allocator@V?$vector@Upoint@@V?$allocator@Upoint@@@std@@@std@@@2@@std@@YAPAV?$vector@Upoint@@V?$allocator@Upoint@@@std@@@0@PAV10@00AAV?$allocator@V?$vector@Upoint@@V?$allocator@Upoint@@@std@@@std@@@0@U_Swap_move_tag@0@U_Range_checked_iterator_tag@0@@Z$0 1000f7da f i IACalcThreadDamage.obj
 0001:0000edc5       __catch$??$_Uninit_fill_n@PAV?$vector@Upoint@@V?$allocator@Upoint@@@std@@@std@@IV12@V?$allocator@V?$vector@Upoint@@V?$allocator@Upoint@@@std@@@std@@@2@@std@@YAXPAV?$vector@Upoint@@V?$allocator@Upoint@@@std@@@0@IABV10@AAV?$allocator@V?$vector@Upoint@@V?$allocator@Upoint@@@std@@@std@@@0@U_Nonscalar_ptr_iterator_tag@0@U_Range_checked_iterator_tag@0@@Z$0 1000fdc5 f i IACalcThreadDamage.obj
 0001:0000f11c       __catch$?_Insert_n@?$vector@V?$vector@Upoint@@V?$allocator@Upoint@@@std@@@std@@V?$allocator@V?$vector@Upoint@@V?$allocator@Upoint@@@std@@@std@@@2@@std@@IAEXV?$_Vector_const_iterator@V?$vector@Upoint@@V?$allocator@Upoint@@@std@@@std@@V?$allocator@V?$vector@Upoint@@V?$allocator@Upoint@@@std@@@std@@@2@@2@IABV?$vector@Upoint@@V?$allocator@Upoint@@@std@@@2@@Z$0 1001011c f i IACalcThreadDamage.obj
 0001:0000f1d7       __catch$?_Insert_n@?$vector@V?$vector@Upoint@@V?$allocator@Upoint@@@std@@@std@@V?$allocator@V?$vector@Upoint@@V?$allocator@Upoint@@@std@@@std@@@2@@std@@IAEXV?$_Vector_const_iterator@V?$vector@Upoint@@V?$allocator@Upoint@@@std@@@std@@V?$allocator@V?$vector@Upoint@@V?$allocator@Upoint@@@std@@@std@@@2@@2@IABV?$vector@Upoint@@V?$allocator@Upoint@@@std@@@2@@Z$2 100101d7 f i IACalcThreadDamage.obj
 0001:0000ffb5       __catch$?_Construct_n@?$vector@HV?$allocator@H@std@@@std@@QAEXIABH@Z$0 10010fb5 f i IACalcThreads.obj
 0001:000115b6       __catch$?_Insert_n@?$vector@MV?$allocator@M@std@@@std@@IAEXV?$_Vector_const_iterator@MV?$allocator@M@std@@@2@IABM@Z$0 100125b6 f i IAFindShape.obj
 0001:000115c2       __catch$?_Insert_n@?$vector@MV?$allocator@M@std@@@std@@IAEXV?$_Vector_const_iterator@MV?$allocator@M@std@@@2@IABM@Z$2 100125c2 f i IAFindShape.obj
 0001:000149f0       ??$GetTool@URotatedRect_struct@@@@YAHHHPAURotatedRect_struct@@W4ContourType_enum@@@Z 100159f0 f   IAROI.obj
 0001:00014c40       ??$GetTool@UAnnulus_struct@@@@YAHHHPAUAnnulus_struct@@W4ContourType_enum@@@Z 10015c40 f   IAROI.obj
 0001:00014e20       ??$GetTool@URect_struct@@@@YAHHHPAURect_struct@@W4ContourType_enum@@@Z 10015e20 f   IAROI.obj
 0001:00018822       __catch$??$_Uninit_copy@PBUPointFloat_struct@@PAUpoint@@V?$allocator@Upoint@@@std@@@std@@YAPAUpoint@@PBUPointFloat_struct@@0PAU1@AAV?$allocator@Upoint@@@0@U_Nonscalar_ptr_iterator_tag@0@U_Range_checked_iterator_tag@0@@Z$0 10019822 f i point.obj
 0001:00018979       __catch$??$_Insert@PBUPointFloat_struct@@@?$vector@Upoint@@V?$allocator@Upoint@@@std@@@std@@QAEXV?$_Vector_const_iterator@Upoint@@V?$allocator@Upoint@@@std@@@1@PBUPointFloat_struct@@1Uforward_iterator_tag@1@@Z$0 10019979 f i point.obj
 0001:00018ad0       ?complete_moments@@YAXPAUmoments@@@Z 10019ad0 f   polygon_moments.obj
 0001:0001b300       _$E2                       1001c300 f   nivision:StartupShutdown.obj
 0001:0001b310       _$E1                       1001c310 f   nivision:StartupShutdown.obj
 0001:0001b320       ?nivision_startup@@YAHXZ   1001c320 f   nivision:StartupShutdown.obj
 0001:0001b340       ?nivision_shutdown@@YAXXZ  1001c340 f   nivision:StartupShutdown.obj
 0001:0001b5f2       _pre_c_init                1001c5f2 f   MSVCRT:crtdll.obj
 0001:0001b867       ___DllMainCRTStartup       1001c867 f   MSVCRT:crtdll.obj
 0001:0001bb62       _has_osfxsr_set            1001cb62 f   MSVCRT:cpu_disp.obj
 0001:0001e07d       __catch$?_Construct_n@?$list@VCBlobContour@@V?$allocator@VCBlobContour@@@std@@@std@@QAEXIABVCBlobContour@@@Z$0 1001f07d f i cvblobslib:blob.obj
 0001:0001e1dc       __catch$?_Buynode@?$list@VCBlobContour@@V?$allocator@VCBlobContour@@@std@@@std@@IAEPAU_Node@?$_List_nod@VCBlobContour@@V?$allocator@VCBlobContour@@@std@@@2@XZ$0 1001f1dc f i cvblobslib:blob.obj
 0001:0001e557       __catch$?_Buynode@?$list@VCBlobContour@@V?$allocator@VCBlobContour@@@std@@@std@@IAEPAU_Node@?$_List_nod@VCBlobContour@@V?$allocator@VCBlobContour@@@std@@@2@PAU342@0ABVCBlobContour@@@Z$0 1001f557 f i cvblobslib:blob.obj
 0001:0001e645       __catch$?_Insert_n@?$list@VCBlobContour@@V?$allocator@VCBlobContour@@@std@@@std@@IAEXV?$_Const_iterator@$00@12@IABVCBlobContour@@@Z$0 1001f645 f i cvblobslib:blob.obj
 0001:0001ecb6       __catch$??$_Insert@V?$_Const_iterator@$00@?$list@VCBlobContour@@V?$allocator@VCBlobContour@@@std@@@std@@@?$list@VCBlobContour@@V?$allocator@VCBlobContour@@@std@@@std@@QAEXV?$_Const_iterator@$00@01@00Uforward_iterator_tag@1@@Z$0 1001fcb6 f i cvblobslib:blob.obj
 0001:0001ee35       __catch$??0CBlobResult@@QAE@PAU_IplImage@@0E@Z$0 1001fe35 f   cvblobslib:BlobResult.obj
 0001:0002154b       __catch$??0?$vector@NV?$allocator@N@std@@@std@@QAE@ABV01@@Z$0 1002254b f i cvblobslib:BlobResult.obj
 0001:000218ce       __catch$?_Construct_n@?$vector@PAVCBlob@@V?$allocator@PAVCBlob@@@std@@@std@@QAEXIABQAVCBlob@@@Z$0 100228ce f i cvblobslib:BlobResult.obj
 0001:00021e1e       __catch$?_Construct_n@?$vector@NV?$allocator@N@std@@@std@@QAEXIABN@Z$0 10022e1e f i cvblobslib:BlobResult.obj
 0001:0002217d       __catch$?_Insert_n@?$vector@PAVCBlob@@V?$allocator@PAVCBlob@@@std@@@std@@IAEXV?$_Vector_const_iterator@PAVCBlob@@V?$allocator@PAVCBlob@@@std@@@2@IABQAVCBlob@@@Z$0 1002317d f i cvblobslib:BlobResult.obj
 0001:000222a0       __catch$?_Insert_n@?$vector@PAVCBlob@@V?$allocator@PAVCBlob@@@std@@@std@@IAEXV?$_Vector_const_iterator@PAVCBlob@@V?$allocator@PAVCBlob@@@std@@@2@IABQAVCBlob@@@Z$2 100232a0 f i cvblobslib:BlobResult.obj
 0001:00027b90       ?icvFreeSeqBlock@@YAXPAUCvSeq@@H@Z 10028b90 f   cxcore210:cxdatastructs.obj
 0001:00027ef0       ?icvInitMemStorage@@YAXPAUCvMemStorage@@H@Z 10028ef0 f   cxcore210:cxdatastructs.obj
 0001:00028080       ?icvDestroyMemStorage@@YAXPAUCvMemStorage@@@Z 10029080 f   cxcore210:cxdatastructs.obj
 0001:0002a5b0       ?icvGoNextMemBlock@@YAXPAUCvMemStorage@@@Z 1002b5b0 f   cxcore210:cxdatastructs.obj
 0001:0002b1a0       ?icvGrowSeq@@YAXPAUCvSeq@@H@Z 1002c1a0 f   cxcore210:cxdatastructs.obj
 0001:0002c570       ??$meanStdDev_@U?$SqrC1@EN@cv@@@cv@@YAXABVMat@0@AAV?$Scalar_@N@0@1@Z 1002d570 f   cxcore210:cxstat.obj
 0001:0002c670       ??$meanStdDev_@U?$SqrC1@GN@cv@@@cv@@YAXABVMat@0@AAV?$Scalar_@N@0@1@Z 1002d670 f   cxcore210:cxstat.obj
 0001:0002c770       ??$meanStdDev_@U?$SqrC1@FN@cv@@@cv@@YAXABVMat@0@AAV?$Scalar_@N@0@1@Z 1002d770 f   cxcore210:cxstat.obj
 0001:0002c870       ??$meanStdDev_@U?$SqrC1@HN@cv@@@cv@@YAXABVMat@0@AAV?$Scalar_@N@0@1@Z 1002d870 f   cxcore210:cxstat.obj
 0001:0002c970       ??$meanStdDev_@U?$SqrC1@MN@cv@@@cv@@YAXABVMat@0@AAV?$Scalar_@N@0@1@Z 1002d970 f   cxcore210:cxstat.obj
 0001:0002ca60       ??$meanStdDev_@U?$SqrC1@NN@cv@@@cv@@YAXABVMat@0@AAV?$Scalar_@N@0@1@Z 1002da60 f   cxcore210:cxstat.obj
 0001:0002cb50       ??$meanStdDev_@U?$SqrC2@EN@cv@@@cv@@YAXABVMat@0@AAV?$Scalar_@N@0@1@Z 1002db50 f   cxcore210:cxstat.obj
 0001:0002ccf0       ??$meanStdDev_@U?$SqrC2@GN@cv@@@cv@@YAXABVMat@0@AAV?$Scalar_@N@0@1@Z 1002dcf0 f   cxcore210:cxstat.obj
 0001:0002ce80       ??$meanStdDev_@U?$SqrC2@FN@cv@@@cv@@YAXABVMat@0@AAV?$Scalar_@N@0@1@Z 1002de80 f   cxcore210:cxstat.obj
 0001:0002d010       ??$meanStdDev_@U?$SqrC2@HN@cv@@@cv@@YAXABVMat@0@AAV?$Scalar_@N@0@1@Z 1002e010 f   cxcore210:cxstat.obj
 0001:0002d190       ??$meanStdDev_@U?$SqrC2@MN@cv@@@cv@@YAXABVMat@0@AAV?$Scalar_@N@0@1@Z 1002e190 f   cxcore210:cxstat.obj
 0001:0002d310       ??$meanStdDev_@U?$SqrC2@NN@cv@@@cv@@YAXABVMat@0@AAV?$Scalar_@N@0@1@Z 1002e310 f   cxcore210:cxstat.obj
 0001:0002d470       ??$meanStdDev_@U?$SqrC3@EN@cv@@@cv@@YAXABVMat@0@AAV?$Scalar_@N@0@1@Z 1002e470 f   cxcore210:cxstat.obj
 0001:0002d680       ??$meanStdDev_@U?$SqrC3@GN@cv@@@cv@@YAXABVMat@0@AAV?$Scalar_@N@0@1@Z 1002e680 f   cxcore210:cxstat.obj
 0001:0002d880       ??$meanStdDev_@U?$SqrC3@FN@cv@@@cv@@YAXABVMat@0@AAV?$Scalar_@N@0@1@Z 1002e880 f   cxcore210:cxstat.obj
 0001:0002da80       ??$meanStdDev_@U?$SqrC3@HN@cv@@@cv@@YAXABVMat@0@AAV?$Scalar_@N@0@1@Z 1002ea80 f   cxcore210:cxstat.obj
 0001:0002dc40       ??$meanStdDev_@U?$SqrC3@MN@cv@@@cv@@YAXABVMat@0@AAV?$Scalar_@N@0@1@Z 1002ec40 f   cxcore210:cxstat.obj
 0001:0002de10       ??$meanStdDev_@U?$SqrC3@NN@cv@@@cv@@YAXABVMat@0@AAV?$Scalar_@N@0@1@Z 1002ee10 f   cxcore210:cxstat.obj
 0001:0002dfc0       ??$meanStdDev_@U?$SqrC4@EN@cv@@@cv@@YAXABVMat@0@AAV?$Scalar_@N@0@1@Z 1002efc0 f   cxcore210:cxstat.obj
 0001:0002e240       ??$meanStdDev_@U?$SqrC4@GN@cv@@@cv@@YAXABVMat@0@AAV?$Scalar_@N@0@1@Z 1002f240 f   cxcore210:cxstat.obj
 0001:0002e480       ??$meanStdDev_@U?$SqrC4@FN@cv@@@cv@@YAXABVMat@0@AAV?$Scalar_@N@0@1@Z 1002f480 f   cxcore210:cxstat.obj
 0001:0002e6c0       ??$meanStdDev_@U?$SqrC4@HN@cv@@@cv@@YAXABVMat@0@AAV?$Scalar_@N@0@1@Z 1002f6c0 f   cxcore210:cxstat.obj
 0001:0002e8b0       ??$meanStdDev_@U?$SqrC4@MN@cv@@@cv@@YAXABVMat@0@AAV?$Scalar_@N@0@1@Z 1002f8b0 f   cxcore210:cxstat.obj
 0001:0002eae0       ??$meanStdDev_@U?$SqrC4@NN@cv@@@cv@@YAXABVMat@0@AAV?$Scalar_@N@0@1@Z 1002fae0 f   cxcore210:cxstat.obj
 0001:0002ecb0       ??$meanStdDevMask_@U?$SqrC1@EN@cv@@@cv@@YAXABVMat@0@0AAV?$Scalar_@N@0@1@Z 1002fcb0 f   cxcore210:cxstat.obj
 0001:0002ede0       ??$meanStdDevMask_@U?$SqrC1@GN@cv@@@cv@@YAXABVMat@0@0AAV?$Scalar_@N@0@1@Z 1002fde0 f   cxcore210:cxstat.obj
 0001:0002ef00       ??$meanStdDevMask_@U?$SqrC1@FN@cv@@@cv@@YAXABVMat@0@0AAV?$Scalar_@N@0@1@Z 1002ff00 f   cxcore210:cxstat.obj
 0001:0002f020       ??$meanStdDevMask_@U?$SqrC1@HN@cv@@@cv@@YAXABVMat@0@0AAV?$Scalar_@N@0@1@Z 10030020 f   cxcore210:cxstat.obj
 0001:0002f140       ??$meanStdDevMask_@U?$SqrC1@MN@cv@@@cv@@YAXABVMat@0@0AAV?$Scalar_@N@0@1@Z 10030140 f   cxcore210:cxstat.obj
 0001:0002f250       ??$meanStdDevMask_@U?$SqrC1@NN@cv@@@cv@@YAXABVMat@0@0AAV?$Scalar_@N@0@1@Z 10030250 f   cxcore210:cxstat.obj
 0001:0002f360       ??$meanStdDevMask_@U?$SqrC2@EN@cv@@@cv@@YAXABVMat@0@0AAV?$Scalar_@N@0@1@Z 10030360 f   cxcore210:cxstat.obj
 0001:0002f520       ??$meanStdDevMask_@U?$SqrC2@GN@cv@@@cv@@YAXABVMat@0@0AAV?$Scalar_@N@0@1@Z 10030520 f   cxcore210:cxstat.obj
 0001:0002f6e0       ??$meanStdDevMask_@U?$SqrC2@FN@cv@@@cv@@YAXABVMat@0@0AAV?$Scalar_@N@0@1@Z 100306e0 f   cxcore210:cxstat.obj
 0001:0002f8a0       ??$meanStdDevMask_@U?$SqrC2@HN@cv@@@cv@@YAXABVMat@0@0AAV?$Scalar_@N@0@1@Z 100308a0 f   cxcore210:cxstat.obj
 0001:0002fa40       ??$meanStdDevMask_@U?$SqrC2@MN@cv@@@cv@@YAXABVMat@0@0AAV?$Scalar_@N@0@1@Z 10030a40 f   cxcore210:cxstat.obj
 0001:0002fbe0       ??$meanStdDevMask_@U?$SqrC2@NN@cv@@@cv@@YAXABVMat@0@0AAV?$Scalar_@N@0@1@Z 10030be0 f   cxcore210:cxstat.obj
 0001:0002fd70       ??$meanStdDevMask_@U?$SqrC3@EN@cv@@@cv@@YAXABVMat@0@0AAV?$Scalar_@N@0@1@Z 10030d70 f   cxcore210:cxstat.obj
 0001:0002ffa0       ??$meanStdDevMask_@U?$SqrC3@GN@cv@@@cv@@YAXABVMat@0@0AAV?$Scalar_@N@0@1@Z 10030fa0 f   cxcore210:cxstat.obj
 0001:000301c0       ??$meanStdDevMask_@U?$SqrC3@FN@cv@@@cv@@YAXABVMat@0@0AAV?$Scalar_@N@0@1@Z 100311c0 f   cxcore210:cxstat.obj
 0001:000303e0       ??$meanStdDevMask_@U?$SqrC3@HN@cv@@@cv@@YAXABVMat@0@0AAV?$Scalar_@N@0@1@Z 100313e0 f   cxcore210:cxstat.obj
 0001:000305b0       ??$meanStdDevMask_@U?$SqrC3@MN@cv@@@cv@@YAXABVMat@0@0AAV?$Scalar_@N@0@1@Z 100315b0 f   cxcore210:cxstat.obj
 0001:00030790       ??$meanStdDevMask_@U?$SqrC3@NN@cv@@@cv@@YAXABVMat@0@0AAV?$Scalar_@N@0@1@Z 10031790 f   cxcore210:cxstat.obj
 0001:00030960       ??$meanStdDevMask_@U?$SqrC4@EN@cv@@@cv@@YAXABVMat@0@0AAV?$Scalar_@N@0@1@Z 10031960 f   cxcore210:cxstat.obj
 0001:00030c00       ??$meanStdDevMask_@U?$SqrC4@GN@cv@@@cv@@YAXABVMat@0@0AAV?$Scalar_@N@0@1@Z 10031c00 f   cxcore210:cxstat.obj
 0001:00030e60       ??$meanStdDevMask_@U?$SqrC4@FN@cv@@@cv@@YAXABVMat@0@0AAV?$Scalar_@N@0@1@Z 10031e60 f   cxcore210:cxstat.obj
 0001:000310c0       ??$meanStdDevMask_@U?$SqrC4@HN@cv@@@cv@@YAXABVMat@0@0AAV?$Scalar_@N@0@1@Z 100320c0 f   cxcore210:cxstat.obj
 0001:000312d0       ??$meanStdDevMask_@U?$SqrC4@MN@cv@@@cv@@YAXABVMat@0@0AAV?$Scalar_@N@0@1@Z 100322d0 f   cxcore210:cxstat.obj
 0001:00031510       ??$meanStdDevMask_@U?$SqrC4@NN@cv@@@cv@@YAXABVMat@0@0AAV?$Scalar_@N@0@1@Z 10032510 f   cxcore210:cxstat.obj
 0001:000337b0       ?Line@cv@@YAXAAVMat@1@V?$Point_@H@1@1PBXH@Z 100347b0 f   cxcore210:cxdrawing.obj
 0001:000338c0       ?LineAA@cv@@YAXAAVMat@1@V?$Point_@H@1@1PBX@Z 100348c0 f   cxcore210:cxdrawing.obj
 0001:00034660       ?Line2@cv@@YAXAAVMat@1@V?$Point_@H@1@1PBX@Z 10035660 f   cxcore210:cxdrawing.obj
 0001:00034ae0       ?FillConvexPoly@cv@@YAXAAVMat@1@PBV?$Point_@H@1@HPBXHH@Z 10035ae0 f   cxcore210:cxdrawing.obj
 0001:00034fe0       ?Circle@cv@@YAXAAVMat@1@V?$Point_@H@1@HPBXH@Z 10035fe0 f   cxcore210:cxdrawing.obj
 0001:00035ae0       ?cvarrToMat@cv@@YA?AVMat@1@PBX_N1H@Z 10036ae0 f   cxcore210:cxdrawing.obj
 0001:00035ae0       ?cvarrToMat@cv@@YA?AVMat@1@PBX_N1H@Z 10036ae0 f   cxcore210:cxdrawing.obj
 0001:00035ae0       ?cvarrToMat@cv@@YA?AVMat@1@PBX_N1H@Z 10036ae0 f   cxcore210:cxdrawing.obj
 0001:00035ae0       ?cvarrToMat@cv@@YA?AVMat@1@PBX_N1H@Z 10036ae0 f   cxcore210:cxdrawing.obj
 0001:000367b6       __catch$?reserve@?$vector@UPolyEdge@cv@@V?$allocator@UPolyEdge@cv@@@std@@@std@@QAEXI@Z$0 100377b6 f i cxcore210:cxdrawing.obj
 0001:0003690c       __catch$?_Insert_n@?$vector@V?$Point_@H@cv@@V?$allocator@V?$Point_@H@cv@@@std@@@std@@IAEXV?$_Vector_const_iterator@V?$Point_@H@cv@@V?$allocator@V?$Point_@H@cv@@@std@@@2@IABV?$Point_@H@cv@@@Z$0 1003790c f i cxcore210:cxdrawing.obj
 0001:00036918       __catch$?_Insert_n@?$vector@V?$Point_@H@cv@@V?$allocator@V?$Point_@H@cv@@@std@@@std@@IAEXV?$_Vector_const_iterator@V?$Point_@H@cv@@V?$allocator@V?$Point_@H@cv@@@std@@@2@IABV?$Point_@H@cv@@@Z$2 10037918 f i cxcore210:cxdrawing.obj
 0001:00036b80       __catch$?_Insert_n@?$vector@UPolyEdge@cv@@V?$allocator@UPolyEdge@cv@@@std@@@std@@IAEXV?$_Vector_const_iterator@UPolyEdge@cv@@V?$allocator@UPolyEdge@cv@@@std@@@2@IABUPolyEdge@cv@@@Z$0 10037b80 f i cxcore210:cxdrawing.obj
 0001:00036b8c       __catch$?_Insert_n@?$vector@UPolyEdge@cv@@V?$allocator@UPolyEdge@cv@@@std@@@std@@IAEXV?$_Vector_const_iterator@UPolyEdge@cv@@V?$allocator@UPolyEdge@cv@@@std@@@2@IABUPolyEdge@cv@@@Z$2 10037b8c f i cxcore210:cxdrawing.obj
 0001:000373e0       ?CollectPolyEdges@cv@@YAXAAVMat@1@PBV?$Point_@H@1@HAAV?$vector@UPolyEdge@cv@@V?$allocator@UPolyEdge@cv@@@std@@@std@@PBXHHV31@@Z 100383e0 f   cxcore210:cxdrawing.obj
 0001:00037570       ?FillEdgeCollection@cv@@YAXAAVMat@1@AAV?$vector@UPolyEdge@cv@@V?$allocator@UPolyEdge@cv@@@std@@@std@@PBX@Z 10038570 f   cxcore210:cxdrawing.obj
 0001:00037980       ?EllipseEx@cv@@YAXAAVMat@1@V?$Point_@H@1@V?$Size_@H@1@HHHPBXHH@Z 10038980 f   cxcore210:cxdrawing.obj
 0001:00037d10       ?ThickLine@cv@@YAXAAVMat@1@V?$Point_@H@1@1PBXHHHH@Z 10038d10 f   cxcore210:cxdrawing.obj
 0001:00038030       ?PolyLine@cv@@YAXAAVMat@1@PBV?$Point_@H@1@H_NPBXHHH@Z 10039030 f   cxcore210:cxdrawing.obj
 0001:00038c60       ??$copyMask_@E@cv@@YAXABVMat@0@AAV10@0@Z 10039c60 f   cxcore210:cxcopy.obj
 0001:00038da0       ??$copyMask_@G@cv@@YAXABVMat@0@AAV10@0@Z 10039da0 f   cxcore210:cxcopy.obj
 0001:00038ed0       ??$copyMask_@V?$Vec@E$02@cv@@@cv@@YAXABVMat@0@AAV10@0@Z 10039ed0 f   cxcore210:cxcopy.obj
 0001:00039030       ??$copyMask_@H@cv@@YAXABVMat@0@AAV10@0@Z 1003a030 f   cxcore210:cxcopy.obj
 0001:00039160       ??$copyMask_@V?$Vec@G$02@cv@@@cv@@YAXABVMat@0@AAV10@0@Z 1003a160 f   cxcore210:cxcopy.obj
 0001:000392c0       ??$copyMask_@_J@cv@@YAXABVMat@0@AAV10@0@Z 1003a2c0 f   cxcore210:cxcopy.obj
 0001:00039410       ??$copyMask_@V?$Vec@H$02@cv@@@cv@@YAXABVMat@0@AAV10@0@Z 1003a410 f   cxcore210:cxcopy.obj
 0001:00039590       ??$copyMask_@V?$Vec@_J$01@cv@@@cv@@YAXABVMat@0@AAV10@0@Z 1003a590 f   cxcore210:cxcopy.obj
 0001:00039730       ??$copyMask_@V?$Vec@_J$02@cv@@@cv@@YAXABVMat@0@AAV10@0@Z 1003a730 f   cxcore210:cxcopy.obj
 0001:00039920       ??$copyMask_@V?$Vec@_J$03@cv@@@cv@@YAXABVMat@0@AAV10@0@Z 1003a920 f   cxcore210:cxcopy.obj
 0001:00039aa0       ??$setMask_@E@cv@@YAXPBXAAVMat@0@ABV10@@Z 1003aaa0 f   cxcore210:cxcopy.obj
 0001:00039ba0       ??$setMask_@G@cv@@YAXPBXAAVMat@0@ABV10@@Z 1003aba0 f   cxcore210:cxcopy.obj
 0001:00039c80       ??$setMask_@V?$Vec@E$02@cv@@@cv@@YAXPBXAAVMat@0@ABV10@@Z 1003ac80 f   cxcore210:cxcopy.obj
 0001:00039d90       ??$setMask_@H@cv@@YAXPBXAAVMat@0@ABV10@@Z 1003ad90 f   cxcore210:cxcopy.obj
 0001:00039e70       ??$setMask_@V?$Vec@G$02@cv@@@cv@@YAXPBXAAVMat@0@ABV10@@Z 1003ae70 f   cxcore210:cxcopy.obj
 0001:00039fa0       ??$setMask_@_J@cv@@YAXPBXAAVMat@0@ABV10@@Z 1003afa0 f   cxcore210:cxcopy.obj
 0001:0003a0b0       ??$setMask_@V?$Vec@H$02@cv@@@cv@@YAXPBXAAVMat@0@ABV10@@Z 1003b0b0 f   cxcore210:cxcopy.obj
 0001:0003a1e0       ??$setMask_@V?$Vec@_J$01@cv@@@cv@@YAXPBXAAVMat@0@ABV10@@Z 1003b1e0 f   cxcore210:cxcopy.obj
 0001:0003a340       ??$setMask_@V?$Vec@_J$02@cv@@@cv@@YAXPBXAAVMat@0@ABV10@@Z 1003b340 f   cxcore210:cxcopy.obj
 0001:0003a510       ??$setMask_@V?$Vec@_J$03@cv@@@cv@@YAXPBXAAVMat@0@ABV10@@Z 1003b510 f   cxcore210:cxcopy.obj
 0001:0003a680       ?scalarToRawData@cv@@YAXABV?$Scalar_@N@1@PAXHH@Z 1003b680 f   cxcore210:cxcopy.obj
 0001:0003a680       ?scalarToRawData@cv@@YAXABV?$Scalar_@N@1@PAXHH@Z 1003b680 f   cxcore210:cxcopy.obj
 0001:0003ab60       ?OutOfMemoryError@cv@@YAPAXI@Z 1003bb60 f   cxcore210:cxalloc.obj
 0001:0003b830       ??$mixChannels_@E@cv@@YAXPAPBXPBH1PAPAX11HV?$Size_@H@0@@Z 1003c830 f   cxcore210:cxconvert.obj
 0001:0003b9e0       ??$mixChannels_@G@cv@@YAXPAPBXPBH1PAPAX11HV?$Size_@H@0@@Z 1003c9e0 f   cxcore210:cxconvert.obj
 0001:0003bbc0       ??$mixChannels_@H@cv@@YAXPAPBXPBH1PAPAX11HV?$Size_@H@0@@Z 1003cbc0 f   cxcore210:cxconvert.obj
 0001:0003bda0       ??$mixChannels_@_J@cv@@YAXPAPBXPBH1PAPAX11HV?$Size_@H@0@@Z 1003cda0 f   cxcore210:cxconvert.obj
 0001:0003d070       ??$binarySOpC1_@U?$CmpEQ@EH@cv@@@cv@@YAXABVMat@0@AAV10@N@Z 1003e070 f   cxcore210:cxarithm.obj
 0001:0003d1a0       ??$binarySOpC1_@U?$CmpEQ@GH@cv@@@cv@@YAXABVMat@0@AAV10@N@Z 1003e1a0 f   cxcore210:cxarithm.obj
 0001:0003d2c0       ??$binarySOpC1_@U?$CmpEQ@FH@cv@@@cv@@YAXABVMat@0@AAV10@N@Z 1003e2c0 f   cxcore210:cxarithm.obj
 0001:0003d3e0       ??$binarySOpC1_@U?$CmpEQ@HH@cv@@@cv@@YAXABVMat@0@AAV10@N@Z 1003e3e0 f   cxcore210:cxarithm.obj
 0001:0003d4f0       ??$binarySOpC1_@U?$CmpEQ@MM@cv@@@cv@@YAXABVMat@0@AAV10@N@Z 1003e4f0 f   cxcore210:cxarithm.obj
 0001:0003d6f0       ??$binarySOpC1_@U?$CmpEQ@NN@cv@@@cv@@YAXABVMat@0@AAV10@N@Z 1003e6f0 f   cxcore210:cxarithm.obj
 0001:0003d8b0       ??$binarySOpC1_@U?$CmpGT@EH@cv@@@cv@@YAXABVMat@0@AAV10@N@Z 1003e8b0 f   cxcore210:cxarithm.obj
 0001:0003d9e0       ??$binarySOpC1_@U?$CmpGT@GH@cv@@@cv@@YAXABVMat@0@AAV10@N@Z 1003e9e0 f   cxcore210:cxarithm.obj
 0001:0003db00       ??$binarySOpC1_@U?$CmpGT@FH@cv@@@cv@@YAXABVMat@0@AAV10@N@Z 1003eb00 f   cxcore210:cxarithm.obj
 0001:0003dc20       ??$binarySOpC1_@U?$CmpGT@HH@cv@@@cv@@YAXABVMat@0@AAV10@N@Z 1003ec20 f   cxcore210:cxarithm.obj
 0001:0003dd30       ??$binarySOpC1_@U?$CmpGT@MM@cv@@@cv@@YAXABVMat@0@AAV10@N@Z 1003ed30 f   cxcore210:cxarithm.obj
 0001:0003df10       ??$binarySOpC1_@U?$CmpGT@NN@cv@@@cv@@YAXABVMat@0@AAV10@N@Z 1003ef10 f   cxcore210:cxarithm.obj
 0001:0003e0d0       ??$binarySOpC1_@U?$CmpGE@EH@cv@@@cv@@YAXABVMat@0@AAV10@N@Z 1003f0d0 f   cxcore210:cxarithm.obj
 0001:0003e200       ??$binarySOpC1_@U?$CmpGE@GH@cv@@@cv@@YAXABVMat@0@AAV10@N@Z 1003f200 f   cxcore210:cxarithm.obj
 0001:0003e320       ??$binarySOpC1_@U?$CmpGE@FH@cv@@@cv@@YAXABVMat@0@AAV10@N@Z 1003f320 f   cxcore210:cxarithm.obj
 0001:0003e440       ??$binarySOpC1_@U?$CmpGE@HH@cv@@@cv@@YAXABVMat@0@AAV10@N@Z 1003f440 f   cxcore210:cxarithm.obj
 0001:0003e550       ??$binarySOpC1_@U?$CmpGE@MM@cv@@@cv@@YAXABVMat@0@AAV10@N@Z 1003f550 f   cxcore210:cxarithm.obj
 0001:0003e730       ??$binarySOpC1_@U?$CmpGE@NN@cv@@@cv@@YAXABVMat@0@AAV10@N@Z 1003f730 f   cxcore210:cxarithm.obj
 0001:0003ee80       ??$binaryOpC1_@U?$OpAdd@EEE@cv@@U?$VBinOp8@U_VAdd8u@cv@@@2@@cv@@YAXABVMat@0@0AAV10@@Z 1003fe80 f   cxcore210:cxarithm.obj
 0001:0003f050       ??$binaryOpC1_@U?$OpAdd@GGG@cv@@U?$VBinOp16@GU_VAdd16u@cv@@@2@@cv@@YAXABVMat@0@0AAV10@@Z 10040050 f   cxcore210:cxarithm.obj
 0001:0003f2d0       ??$binaryOpC1_@U?$OpAdd@FFF@cv@@U?$VBinOp16@FU_VAdd16s@cv@@@2@@cv@@YAXABVMat@0@0AAV10@@Z 100402d0 f   cxcore210:cxarithm.obj
 0001:0003f5b0       ??$binaryOpC1_@U?$OpAdd@HHH@cv@@UNoVec@2@@cv@@YAXABVMat@0@0AAV10@@Z 100405b0 f   cxcore210:cxarithm.obj
 0001:0003f770       ??$binaryOpC1_@U?$OpAdd@MMM@cv@@U?$VBinOp32f@U_VAdd32f@cv@@@2@@cv@@YAXABVMat@0@0AAV10@@Z 10040770 f   cxcore210:cxarithm.obj
 0001:0003f930       ??$binaryOpC1_@U?$OpAdd@NNN@cv@@UNoVec@2@@cv@@YAXABVMat@0@0AAV10@@Z 10040930 f   cxcore210:cxarithm.obj
 0001:0003fb00       ??$binaryOpC1_@U?$OpSub@EEE@cv@@U?$VBinOp8@U_VSub8u@cv@@@2@@cv@@YAXABVMat@0@0AAV10@@Z 10040b00 f   cxcore210:cxarithm.obj
 0001:0003fce0       ??$binaryOpC1_@U?$OpSub@GGG@cv@@U?$VBinOp16@GU_VSub16u@cv@@@2@@cv@@YAXABVMat@0@0AAV10@@Z 10040ce0 f   cxcore210:cxarithm.obj
 0001:0003ff60       ??$binaryOpC1_@U?$OpSub@FFF@cv@@U?$VBinOp16@FU_VSub16s@cv@@@2@@cv@@YAXABVMat@0@0AAV10@@Z 10040f60 f   cxcore210:cxarithm.obj
 0001:00040240       ??$binaryOpC1_@U?$OpSub@HHH@cv@@UNoVec@2@@cv@@YAXABVMat@0@0AAV10@@Z 10041240 f   cxcore210:cxarithm.obj
 0001:00040400       ??$binaryOpC1_@U?$OpSub@MMM@cv@@U?$VBinOp32f@U_VSub32f@cv@@@2@@cv@@YAXABVMat@0@0AAV10@@Z 10041400 f   cxcore210:cxarithm.obj
 0001:000405c0       ??$binaryOpC1_@U?$OpSub@NNN@cv@@UNoVec@2@@cv@@YAXABVMat@0@0AAV10@@Z 100415c0 f   cxcore210:cxarithm.obj
 0001:00040790       ??$mul_@EM@cv@@YAXABVMat@0@0AAV10@N@Z 10041790 f   cxcore210:cxarithm.obj
 0001:00040bd0       ??$mul_@GM@cv@@YAXABVMat@0@0AAV10@N@Z 10041bd0 f   cxcore210:cxarithm.obj
 0001:000410e0       ??$mul_@FM@cv@@YAXABVMat@0@0AAV10@N@Z 100420e0 f   cxcore210:cxarithm.obj
 0001:00041660       ??$mul_@HN@cv@@YAXABVMat@0@0AAV10@N@Z 10042660 f   cxcore210:cxarithm.obj
 0001:00041990       ??$mul_@MM@cv@@YAXABVMat@0@0AAV10@N@Z 10042990 f   cxcore210:cxarithm.obj
 0001:00041c40       ??$mul_@NN@cv@@YAXABVMat@0@0AAV10@N@Z 10042c40 f   cxcore210:cxarithm.obj
 0001:00041f00       ??$recip_@E@cv@@YAXNABVMat@0@AAV10@@Z 10042f00 f   cxcore210:cxarithm.obj
 0001:00042240       ??$recip_@G@cv@@YAXNABVMat@0@AAV10@@Z 10043240 f   cxcore210:cxarithm.obj
 0001:00042670       ??$recip_@F@cv@@YAXNABVMat@0@AAV10@@Z 10043670 f   cxcore210:cxarithm.obj
 0001:00042b00       ??$recip_@H@cv@@YAXNABVMat@0@AAV10@@Z 10043b00 f   cxcore210:cxarithm.obj
 0001:00042da0       ??$recip_@M@cv@@YAXNABVMat@0@AAV10@@Z 10043da0 f   cxcore210:cxarithm.obj
 0001:00042fa0       ??$recip_@N@cv@@YAXNABVMat@0@AAV10@@Z 10043fa0 f   cxcore210:cxarithm.obj
 0001:000434c0       ?InvSqrt_64f@cv@@YG?AW4CvStatus@@PBNPANH@Z 100444c0 f   cxcore210:cxmathfuncs.obj
 0001:00043500       ?Sqrt_64f@cv@@YG?AW4CvStatus@@PBNPANH@Z 10044500 f   cxcore210:cxmathfuncs.obj
 0001:00043600       ?Exp_32f@cv@@YG?AW4CvStatus@@PBMPAMH@Z 10044600 f   cxcore210:cxmathfuncs.obj
 0001:00043a60       ?Exp_64f@cv@@YG?AW4CvStatus@@PBNPANH@Z 10044a60 f   cxcore210:cxmathfuncs.obj
 0001:00043f30       ?Log_32f@cv@@YG?AW4CvStatus@@PBMPAMH@Z 10044f30 f   cxcore210:cxmathfuncs.obj
 0001:00044430       ?Log_64f@cv@@YG?AW4CvStatus@@PBNPANH@Z 10045430 f   cxcore210:cxmathfuncs.obj
 0001:00044b80       ?InvSqrt_32f@cv@@YG?AW4CvStatus@@PBMPAMH@Z 10045b80 f   cxcore210:cxmathfuncs.obj
 0001:00044ce0       ?Sqrt_32f@cv@@YG?AW4CvStatus@@PBMPAMH@Z 10045ce0 f   cxcore210:cxmathfuncs.obj
 0001:00044dc0       ??$IPow@EH@cv@@YG?AW4CvStatus@@PBXPAXHH@Z 10045dc0 f   cxcore210:cxmathfuncs.obj
 0001:00044e40       ??$IPow@GH@cv@@YG?AW4CvStatus@@PBXPAXHH@Z 10045e40 f   cxcore210:cxmathfuncs.obj
 0001:00044ec0       ??$IPow@FH@cv@@YG?AW4CvStatus@@PBXPAXHH@Z 10045ec0 f   cxcore210:cxmathfuncs.obj
 0001:00044f50       ??$IPow@HH@cv@@YG?AW4CvStatus@@PBXPAXHH@Z 10045f50 f   cxcore210:cxmathfuncs.obj
 0001:00044fb0       ??$IPow@MM@cv@@YG?AW4CvStatus@@PBXPAXHH@Z 10045fb0 f   cxcore210:cxmathfuncs.obj
 0001:00045020       ??$IPow@NN@cv@@YG?AW4CvStatus@@PBXPAXHH@Z 10046020 f   cxcore210:cxmathfuncs.obj
 0001:00045950       ?icvContourArea@@YA?AW4CvStatus@@PBUCvSeq@@PAN@Z 10046950 f   cv210:cvshapedescr.obj
 0001:00045a70       ?icvMemCopy@@YA?AW4CvStatus@@PAPAN00PAH@Z 10046a70 f   cv210:cvshapedescr.obj
 0001:00045b30       ?icvContourSecArea@@YA?AW4CvStatus@@PAUCvSeq@@UCvSlice@@PAN@Z 10046b30 f   cv210:cvshapedescr.obj
 0001:000471f0       ?icvSklansky_32s@@YAHPAPAUCvPoint@@HHPAHHH@Z 100481f0 f   cv210:cvconvhull.obj
 0001:000473a0       ?icvSklansky_32f@@YAHPAPAUCvPoint2D32f@@HHPAHHH@Z 100483a0 f   cv210:cvconvhull.obj
 0001:000475c0       ?icvSortPointsByPointers_32s@@YAXPAPAUCvPoint@@IH@Z 100485c0 f   cv210:cvconvhull.obj
 0001:00047b40       ?icvSortPointsByPointers_32f@@YAXPAPAUCvPoint2D32f@@IH@Z 10048b40 f   cv210:cvconvhull.obj
 0001:00048640       ?icvCalcAndWritePtIndices@@YAXPAPAUCvPoint@@PAHHHPAUCvSeq@@PAUCvSeqWriter@@@Z 10049640 f   cv210:cvconvhull.obj
 0001:00049a50       ?icvCompleteMomentState@@YAXPAUCvMoments@@@Z 1004aa50 f   cv210:cvmoments.obj
 0001:00049b30       ?icvContourMoments@@YAXPAUCvSeq@@PAUCvMoments@@@Z 1004ab30 f   cv210:cvmoments.obj
 0001:0004a820       ??$momentsInTile@GH_J@@YAXABVMat@cv@@PAN@Z 1004b820 f   cv210:cvmoments.obj
 0001:0004ab90       ??$momentsInTile@FH_J@@YAXABVMat@cv@@PAN@Z 1004bb90 f   cv210:cvmoments.obj
 0001:0004af00       ??$momentsInTile@MNN@@YAXABVMat@cv@@PAN@Z 1004bf00 f   cv210:cvmoments.obj
 0001:0004b170       ??$momentsInTile@NNN@@YAXABVMat@cv@@PAN@Z 1004c170 f   cv210:cvmoments.obj
 0001:0004e092       __FindPESection            1004f092 f   mfcs90:rawdllmainproxy.obj
 0001:0004e0d0       __IsNonwritableInCurrentImage 1004f0d0 f   mfcs90:rawdllmainproxy.obj
 0001:0004e3d0       __unwindfunclet$??_Gbad_alloc@std@@UAEPAXI@Z$0 1004f3d0 f   DataStat.obj
 0001:0004e3d0       __unwindfunclet$??0bad_alloc@std@@QAE@ABV01@@Z$0 1004f3d0 f   DataStat.obj
 0001:0004e3d0       __unwindfunclet$??0bad_alloc@std@@QAE@PBD@Z$0 1004f3d0 f   DataStat.obj
 0001:0004e3d9       __ehhandler$??0bad_alloc@std@@QAE@ABV01@@Z 1004f3d9 f   DataStat.obj
 0001:0004e3d9       __ehhandler$??_Gbad_alloc@std@@UAEPAXI@Z 1004f3d9 f   DataStat.obj
 0001:0004e3d9       __ehhandler$??0bad_alloc@std@@QAE@PBD@Z 1004f3d9 f   DataStat.obj
 0001:0004e400       __unwindfunclet$??1bad_alloc@std@@UAE@XZ$0 1004f400 f   DataStat.obj
 0001:0004e409       __ehhandler$??1bad_alloc@std@@UAE@XZ 1004f409 f   DataStat.obj
 0001:0004e430       __unwindfunclet$??1logic_error@std@@UAE@XZ$0 1004f430 f   DataStat.obj
 0001:0004e430       __unwindfunclet$??0logic_error@std@@QAE@ABV?$basic_string@DU?$char_traits@D@std@@V?$allocator@D@2@@1@@Z$0 1004f430 f   DataStat.obj
 0001:0004e439       __unwindfunclet$??0logic_error@std@@QAE@ABV?$basic_string@DU?$char_traits@D@std@@V?$allocator@D@2@@1@@Z$1 1004f439 f   DataStat.obj
 0001:0004e439       __unwindfunclet$??1logic_error@std@@UAE@XZ$1 1004f439 f   DataStat.obj
 0001:0004e445       __ehhandler$??0logic_error@std@@QAE@ABV?$basic_string@DU?$char_traits@D@std@@V?$allocator@D@2@@1@@Z 1004f445 f   DataStat.obj
 0001:0004e445       __ehhandler$??1logic_error@std@@UAE@XZ 1004f445 f   DataStat.obj
 0001:0004e460       __unwindfunclet$??0length_error@std@@QAE@ABV?$basic_string@DU?$char_traits@D@std@@V?$allocator@D@2@@1@@Z$0 1004f460 f   DataStat.obj
 0001:0004e460       __unwindfunclet$??_Glength_error@std@@UAEPAXI@Z$0 1004f460 f   DataStat.obj
 0001:0004e460       __unwindfunclet$??0length_error@std@@QAE@ABV01@@Z$0 1004f460 f   DataStat.obj
 0001:0004e468       __ehhandler$??0length_error@std@@QAE@ABV01@@Z 1004f468 f   DataStat.obj
 0001:0004e468       __ehhandler$??0length_error@std@@QAE@ABV?$basic_string@DU?$char_traits@D@std@@V?$allocator@D@2@@1@@Z 1004f468 f   DataStat.obj
 0001:0004e468       __ehhandler$??_Glength_error@std@@UAEPAXI@Z 1004f468 f   DataStat.obj
 0001:0004e490       __unwindfunclet$??1length_error@std@@UAE@XZ$0 1004f490 f   DataStat.obj
 0001:0004e498       __ehhandler$??1length_error@std@@UAE@XZ 1004f498 f   DataStat.obj
 0001:0004e4c0       __unwindfunclet$?_Xlen@?$vector@MV?$allocator@M@std@@@std@@KAXXZ$0 1004f4c0 f   DataStat.obj
 0001:0004e4c0       __unwindfunclet$?_Xlen@?$vector@U?$pair@Upoint@@U1@@std@@V?$allocator@U?$pair@Upoint@@U1@@std@@@2@@std@@KAXXZ$0 1004f4c0 f   DataStat.obj
 0001:0004e4c0       __unwindfunclet$?_Xlen@?$vector@V?$vector@Upoint@@V?$allocator@Upoint@@@std@@@std@@V?$allocator@V?$vector@Upoint@@V?$allocator@Upoint@@@std@@@std@@@2@@std@@KAXXZ$0 1004f4c0 f   DataStat.obj
 0001:0004e4c0       __unwindfunclet$?_Xlen@?$vector@NV?$allocator@N@std@@@std@@KAXXZ$0 1004f4c0 f   DataStat.obj
 0001:0004e4c0       __unwindfunclet$?_Xlen@?$vector@HV?$allocator@H@std@@@std@@KAXXZ$0 1004f4c0 f   DataStat.obj
 0001:0004e4c0       __unwindfunclet$?_Xlen@?$vector@Upoint@@V?$allocator@Upoint@@@std@@@std@@KAXXZ$0 1004f4c0 f   DataStat.obj
 0001:0004e4c0       __unwindfunclet$?_Xlen@?$vector@UPointFloat_struct@@V?$allocator@UPointFloat_struct@@@std@@@std@@KAXXZ$0 1004f4c0 f   DataStat.obj
 0001:0004e4c9       __ehhandler$?_Xlen@?$vector@UPointFloat_struct@@V?$allocator@UPointFloat_struct@@@std@@@std@@KAXXZ 1004f4c9 f   DataStat.obj
 0001:0004e4c9       __ehhandler$?_Xlen@?$vector@U?$pair@Upoint@@U1@@std@@V?$allocator@U?$pair@Upoint@@U1@@std@@@2@@std@@KAXXZ 1004f4c9 f   DataStat.obj
 0001:0004e4c9       __ehhandler$?_Xlen@?$vector@Upoint@@V?$allocator@Upoint@@@std@@@std@@KAXXZ 1004f4c9 f   DataStat.obj
 0001:0004e4c9       __ehhandler$?_Xlen@?$vector@NV?$allocator@N@std@@@std@@KAXXZ 1004f4c9 f   DataStat.obj
 0001:0004e4c9       __ehhandler$?_Xlen@?$vector@V?$vector@Upoint@@V?$allocator@Upoint@@@std@@@std@@V?$allocator@V?$vector@Upoint@@V?$allocator@Upoint@@@std@@@std@@@2@@std@@KAXXZ 1004f4c9 f   DataStat.obj
 0001:0004e4c9       __ehhandler$?_Xlen@?$vector@MV?$allocator@M@std@@@std@@KAXXZ 1004f4c9 f   DataStat.obj
 0001:0004e4c9       __ehhandler$?_Xlen@?$vector@HV?$allocator@H@std@@@std@@KAXXZ 1004f4c9 f   DataStat.obj
 0001:0004e4f0       __unwindfunclet$??0logic_error@std@@QAE@ABV01@@Z$0 1004f4f0 f   DataStat.obj
 0001:0004e4f9       __unwindfunclet$??0logic_error@std@@QAE@ABV01@@Z$1 1004f4f9 f   DataStat.obj
 0001:0004e505       __ehhandler$??0logic_error@std@@QAE@ABV01@@Z 1004f505 f   DataStat.obj
 0001:0004e520       __ehhandler$?_Insert_n@?$vector@HV?$allocator@H@std@@@std@@IAEXV?$_Vector_const_iterator@HV?$allocator@H@std@@@2@IABH@Z 1004f520 f   DataStat.obj
 0001:0004e540       __unwindfunclet$?find_edge_annulus@@YAPAUStraightEdgeReport_struct@@PAUImage_struct@@UAnnulus_struct@@_NW4RakeDirection_enum@@@Z$0 1004f540 f   IACalcAngle.obj
 0001:0004e548       __ehhandler$?find_edge_annulus@@YAPAUStraightEdgeReport_struct@@PAUImage_struct@@UAnnulus_struct@@_NW4RakeDirection_enum@@@Z 1004f548 f   IACalcAngle.obj
 0001:0004e570       __unwindfunclet$??0RegisterDisposeSER@@QAE@PAUStraightEdgeReport_struct@@@Z$0 1004f570 f   IACalcAngle.obj
 0001:0004e578       __ehhandler$??0RegisterDisposeSER@@QAE@PAUStraightEdgeReport_struct@@@Z 1004f578 f   IACalcAngle.obj
 0001:0004e5a0       __unwindfunclet$??1RegisterDisposeSER@@UAE@XZ$0 1004f5a0 f   IACalcAngle.obj
 0001:0004e5a8       __ehhandler$??1RegisterDisposeSER@@UAE@XZ 1004f5a8 f   IACalcAngle.obj
 0001:0004e5d0       __unwindfunclet$?get_angle@@YAHPAUImage_struct@@UAnnulus_struct@@PAM@Z$0 1004f5d0 f   IACalcAngle.obj
 0001:0004e5d8       __unwindfunclet$?get_angle@@YAHPAUImage_struct@@UAnnulus_struct@@PAM@Z$1 1004f5d8 f   IACalcAngle.obj
 0001:0004e5e0       __unwindfunclet$?get_angle@@YAHPAUImage_struct@@UAnnulus_struct@@PAM@Z$2 1004f5e0 f   IACalcAngle.obj
 0001:0004e5e8       __ehhandler$?get_angle@@YAHPAUImage_struct@@UAnnulus_struct@@PAM@Z 1004f5e8 f   IACalcAngle.obj
 0001:0004e610       __unwindfunclet$_IA_Calc_FindAngle$0 1004f610 f   IACalcAngle.obj
 0001:0004e618       __unwindfunclet$_IA_Calc_FindAngle$1 1004f618 f   IACalcAngle.obj
 0001:0004e620       __ehhandler$_IA_Calc_FindAngle 1004f620 f   IACalcAngle.obj
 0001:0004e640       __unwindfunclet$??0RegisterDispose@@QAE@XZ$0 1004f640 f   IACalcArea.obj
 0001:0004e640       __unwindfunclet$??0RegisterDispose@@QAE@PAX@Z$0 1004f640 f   IACalcArea.obj
 0001:0004e648       __ehhandler$??0RegisterDispose@@QAE@PAX@Z 1004f648 f   IACalcArea.obj
 0001:0004e648       __ehhandler$??0RegisterDispose@@QAE@XZ 1004f648 f   IACalcArea.obj
 0001:0004e670       __unwindfunclet$??1RegisterDispose@@UAE@XZ$0 1004f670 f   IACalcArea.obj
 0001:0004e678       __ehhandler$??1RegisterDispose@@UAE@XZ 1004f678 f   IACalcArea.obj
 0001:0004e6a0       __unwindfunclet$_IA_Calc_Area$0 1004f6a0 f   IACalcArea.obj
 0001:0004e6a8       __unwindfunclet$_IA_Calc_Area$1 1004f6a8 f   IACalcArea.obj
 0001:0004e6b0       __unwindfunclet$_IA_Calc_Area$2 1004f6b0 f   IACalcArea.obj
 0001:0004e6b8       __ehhandler$_IA_Calc_Area  1004f6b8 f   IACalcArea.obj
 0001:0004e6e0       __unwindfunclet$?SpeckBits@@YAXPAEMHH@Z$0 1004f6e0 f   IACalcCrack.obj
 0001:0004e6e0       __unwindfunclet$?restore_image@@YAHHHPAUImage_struct@@@Z$0 1004f6e0 f   IACalcCrack.obj
 0001:0004e6e0       __unwindfunclet$_IA_OverlayDrawLine$0 1004f6e0 f   IACalcCrack.obj
 0001:0004e6e0       __unwindfunclet$_IA_SetZoom$0 1004f6e0 f   IACalcCrack.obj
 0001:0004e6e0       __unwindfunclet$_IA_OverlayClear$0 1004f6e0 f   IACalcCrack.obj
 0001:0004e6e8       __ehhandler$_IA_SetZoom    1004f6e8 f   IACalcCrack.obj
 0001:0004e6e8       __ehhandler$_IA_OverlayClear 1004f6e8 f   IACalcCrack.obj
 0001:0004e6e8       __ehhandler$?SpeckBits@@YAXPAEMHH@Z 1004f6e8 f   IACalcCrack.obj
 0001:0004e6e8       __ehhandler$_IA_OverlayDrawLine 1004f6e8 f   IACalcCrack.obj
 0001:0004e6e8       __ehhandler$?restore_image@@YAHHHPAUImage_struct@@@Z 1004f6e8 f   IACalcCrack.obj
 0001:0004e710       __unwindfunclet$?Shadow@@YAPAMPAEEHHH@Z$0 1004f710 f   IACalcCrack.obj
 0001:0004e710       __unwindfunclet$?normalize_rect@@YAHPAUImage_struct@@PBURect_struct@@PAU2@@Z$0 1004f710 f   IACalcCrack.obj
 0001:0004e718       __ehhandler$?normalize_rect@@YAHPAUImage_struct@@PBURect_struct@@PAU2@@Z 1004f718 f   IACalcCrack.obj
 0001:0004e718       __ehhandler$?Shadow@@YAPAMPAEEHHH@Z 1004f718 f   IACalcCrack.obj
 0001:0004e740       __unwindfunclet$?Kernel@@YAPAMEPAMH@Z$0 1004f740 f   IACalcCrack.obj
 0001:0004e748       __ehhandler$?Kernel@@YAPAMEPAMH@Z 1004f748 f   IACalcCrack.obj
 0001:0004e770       __unwindfunclet$?copy_overlay_from@@YAHPAUImage_struct@@HH@Z$0 1004f770 f   IACalcCrack.obj
 0001:0004e770       __unwindfunclet$?Diff@@YAPAMPAMH@Z$0 1004f770 f   IACalcCrack.obj
 0001:0004e778       __ehhandler$?copy_overlay_from@@YAHPAUImage_struct@@HH@Z 1004f778 f   IACalcCrack.obj
 0001:0004e778       __ehhandler$?Diff@@YAPAMPAMH@Z 1004f778 f   IACalcCrack.obj
 0001:0004e7a0       __unwindfunclet$?Judge@@YAMPAUImage_struct@@PAMHHUAnnulus_struct@@_NM@Z$0 1004f7a0 f   IACalcCrack.obj
 0001:0004e7a8       __ehhandler$?Judge@@YAMPAUImage_struct@@PAMHHUAnnulus_struct@@_NM@Z 1004f7a8 f   IACalcCrack.obj
 0001:0004e7d0       __unwindfunclet$_IA_Calc_FindCrack$0 1004f7d0 f   IACalcCrack.obj
 0001:0004e7d8       __unwindfunclet$_IA_Calc_FindCrack$1 1004f7d8 f   IACalcCrack.obj
 0001:0004e7e0       __unwindfunclet$_IA_Calc_FindCrack$2 1004f7e0 f   IACalcCrack.obj
 0001:0004e7e8       __unwindfunclet$_IA_Calc_FindCrack$3 1004f7e8 f   IACalcCrack.obj
 0001:0004e7f0       __unwindfunclet$_IA_Calc_FindCrack$4 1004f7f0 f   IACalcCrack.obj
 0001:0004e7f8       __unwindfunclet$_IA_Calc_FindCrack$5 1004f7f8 f   IACalcCrack.obj
 0001:0004e800       __ehhandler$_IA_Calc_FindCrack 1004f800 f   IACalcCrack.obj
 0001:0004e830       __unwindfunclet$_IA_Calc_Cushion$0 1004f830 f   IACalcCushion.obj
 0001:0004e838       __unwindfunclet$_IA_Calc_Cushion$1 1004f838 f   IACalcCushion.obj
 0001:0004e843       __unwindfunclet$_IA_Calc_Cushion$2 1004f843 f   IACalcCushion.obj
 0001:0004e84b       __ehhandler$_IA_Calc_Cushion 1004f84b f   IACalcCushion.obj
 0001:0004e870       __unwindfunclet$_IA_Calc_FindDiameter$0 1004f870 f   IACalcDiameter.obj
 0001:0004e878       __unwindfunclet$_IA_Calc_FindDiameter$1 1004f878 f   IACalcDiameter.obj
 0001:0004e883       __ehhandler$_IA_Calc_FindDiameter 1004f883 f   IACalcDiameter.obj
 0001:0004e8b0       __ehhandler$??$_Uninit_copy@PAU?$pair@Upoint@@U1@@std@@PAU12@V?$allocator@U?$pair@Upoint@@U1@@std@@@2@@std@@YAPAU?$pair@Upoint@@U1@@0@PAU10@00AAV?$allocator@U?$pair@Upoint@@U1@@std@@@0@U_Nonscalar_ptr_iterator_tag@0@U_Range_checked_iterator_tag@0@@Z 1004f8b0 f   IACalcDiameter.obj
 0001:0004e8d0       __ehhandler$??$_Uninit_fill_n@PAU?$pair@Upoint@@U1@@std@@IU12@V?$allocator@U?$pair@Upoint@@U1@@std@@@2@@std@@YAXPAU?$pair@Upoint@@U1@@0@IABU10@AAV?$allocator@U?$pair@Upoint@@U1@@std@@@0@U_Nonscalar_ptr_iterator_tag@0@U_Range_checked_iterator_tag@0@@Z 1004f8d0 f   IACalcDiameter.obj
 0001:0004e8f0       __ehhandler$?_Insert_n@?$vector@U?$pair@Upoint@@U1@@std@@V?$allocator@U?$pair@Upoint@@U1@@std@@@2@@std@@IAEXV?$_Vector_const_iterator@U?$pair@Upoint@@U1@@std@@V?$allocator@U?$pair@Upoint@@U1@@std@@@2@@2@IABU?$pair@Upoint@@U1@@2@@Z 1004f8f0 f   IACalcDiameter.obj
 0001:0004e910       __unwindfunclet$?find_angle@@YA_NPAUImage_struct@@PBURect_struct@@PAURotatedRect_struct@@W4RakeDirection_enum@@H@Z$0 1004f910 f   IACalcDistance.obj
 0001:0004e918       __unwindfunclet$?find_angle@@YA_NPAUImage_struct@@PBURect_struct@@PAURotatedRect_struct@@W4RakeDirection_enum@@H@Z$1 1004f918 f   IACalcDistance.obj
 0001:0004e920       __unwindfunclet$?find_angle@@YA_NPAUImage_struct@@PBURect_struct@@PAURotatedRect_struct@@W4RakeDirection_enum@@H@Z$3 1004f920 f   IACalcDistance.obj
 0001:0004e928       __ehhandler$?find_angle@@YA_NPAUImage_struct@@PBURect_struct@@PAURotatedRect_struct@@W4RakeDirection_enum@@H@Z 1004f928 f   IACalcDistance.obj
 0001:0004e950       __unwindfunclet$_IA_Calc_FindDistance$0 1004f950 f   IACalcDistance.obj
 0001:0004e95b       __unwindfunclet$_IA_Calc_FindDistance$1 1004f95b f   IACalcDistance.obj
 0001:0004e963       __unwindfunclet$_IA_Calc_FindDistance$2 1004f963 f   IACalcDistance.obj
 0001:0004e96b       __unwindfunclet$_IA_Calc_FindDistance$3 1004f96b f   IACalcDistance.obj
 0001:0004e976       __ehhandler$_IA_Calc_FindDistance 1004f976 f   IACalcDistance.obj
 0001:0004e9a0       __unwindfunclet$_IA_Calc_FillArea$0 1004f9a0 f   IACalcFillArea.obj
 0001:0004e9a8       __unwindfunclet$_IA_Calc_FillArea$1 1004f9a8 f   IACalcFillArea.obj
 0001:0004e9b0       __unwindfunclet$_IA_Calc_FillArea$2 1004f9b0 f   IACalcFillArea.obj
 0001:0004e9b8       __ehhandler$_IA_Calc_FillArea 1004f9b8 f   IACalcFillArea.obj
 0001:0004e9e0       __unwindfunclet$_IA_Calc_FindHead$0 1004f9e0 f   IACalcHead.obj
 0001:0004e9e8       __unwindfunclet$_IA_Calc_FindHead$1 1004f9e8 f   IACalcHead.obj
 0001:0004e9f0       __ehhandler$_IA_Calc_FindHead 1004f9f0 f   IACalcHead.obj
 0001:0004ea10       __unwindfunclet$??0RegisterDisposeCER@@QAE@PAUCircularEdgeReport_struct@@@Z$0 1004fa10 f   IACalcHexagon.obj
 0001:0004ea18       __ehhandler$??0RegisterDisposeCER@@QAE@PAUCircularEdgeReport_struct@@@Z 1004fa18 f   IACalcHexagon.obj
 0001:0004ea40       __unwindfunclet$??1RegisterDisposeCER@@UAE@XZ$0 1004fa40 f   IACalcHexagon.obj
 0001:0004ea48       __ehhandler$??1RegisterDisposeCER@@UAE@XZ 1004fa48 f   IACalcHexagon.obj
 0001:0004ea70       __unwindfunclet$_IA_Calc_FindHexagon$0 1004fa70 f   IACalcHexagon.obj
 0001:0004ea78       __unwindfunclet$_IA_Calc_FindHexagon$1 1004fa78 f   IACalcHexagon.obj
 0001:0004ea83       __unwindfunclet$_IA_Calc_FindHexagon$2 1004fa83 f   IACalcHexagon.obj
 0001:0004ea8e       __unwindfunclet$_IA_Calc_FindHexagon$3 1004fa8e f   IACalcHexagon.obj
 0001:0004ea99       __unwindfunclet$_IA_Calc_FindHexagon$4 1004fa99 f   IACalcHexagon.obj
 0001:0004eaa4       __unwindfunclet$_IA_Calc_FindHexagon$5 1004faa4 f   IACalcHexagon.obj
 0001:0004eaaf       __unwindfunclet$_IA_Calc_FindHexagon$6 1004faaf f   IACalcHexagon.obj
 0001:0004eaba       __unwindfunclet$_IA_Calc_FindHexagon$7 1004faba f   IACalcHexagon.obj
 0001:0004eacd       __unwindfunclet$_IA_Calc_FindHexagon$8 1004facd f   IACalcHexagon.obj
 0001:0004ead8       __unwindfunclet$_IA_Calc_FindHexagon$14 1004fad8 f   IACalcHexagon.obj
 0001:0004eae3       __unwindfunclet$_IA_Calc_FindHexagon$15 1004fae3 f   IACalcHexagon.obj
 0001:0004eaee       __unwindfunclet$_IA_Calc_FindHexagon$10 1004faee f   IACalcHexagon.obj
 0001:0004eaf9       __unwindfunclet$_IA_Calc_FindHexagon$11 1004faf9 f   IACalcHexagon.obj
 0001:0004eb04       __unwindfunclet$_IA_Calc_FindHexagon$12 1004fb04 f   IACalcHexagon.obj
 0001:0004eb0f       __unwindfunclet$_IA_Calc_FindHexagon$13 1004fb0f f   IACalcHexagon.obj
 0001:0004eb1a       __unwindfunclet$_IA_Calc_FindHexagon$9 1004fb1a f   IACalcHexagon.obj
 0001:0004eb25       __unwindfunclet$_IA_Calc_FindHexagon$16 1004fb25 f   IACalcHexagon.obj
 0001:0004eb30       __unwindfunclet$_IA_Calc_FindHexagon$17 1004fb30 f   IACalcHexagon.obj
 0001:0004eb3b       __unwindfunclet$_IA_Calc_FindHexagon$18 1004fb3b f   IACalcHexagon.obj
 0001:0004eb46       __unwindfunclet$_IA_Calc_FindHexagon$19 1004fb46 f   IACalcHexagon.obj
 0001:0004eb51       __ehhandler$_IA_Calc_FindHexagon 1004fb51 f   IACalcHexagon.obj
 0001:0004eb80       __unwindfunclet$_IA_Calc_FindMarking$0 1004fb80 f   IACalcMarking.obj
 0001:0004eb88       __unwindfunclet$_IA_Calc_FindMarking$1 1004fb88 f   IACalcMarking.obj
 0001:0004eb93       __unwindfunclet$_IA_Calc_FindMarking$2 1004fb93 f   IACalcMarking.obj
 0001:0004eb9e       __ehhandler$_IA_Calc_FindMarking 1004fb9e f   IACalcMarking.obj
 0001:0004ebc0       __unwindfunclet$_IA_Calc_Matching$0 1004fbc0 f   IACalcMatching.obj
 0001:0004ebc8       __unwindfunclet$_IA_Calc_Matching$1 1004fbc8 f   IACalcMatching.obj
 0001:0004ebd0       __ehhandler$_IA_Calc_Matching 1004fbd0 f   IACalcMatching.obj
 0001:0004ebf0       __unwindfunclet$_IA_Calc_FindNode$0 1004fbf0 f   IACAlcNode.obj
 0001:0004ebf8       __unwindfunclet$_IA_Calc_FindNode$1 1004fbf8 f   IACAlcNode.obj
 0001:0004ec00       __unwindfunclet$_IA_Calc_FindNode$2 1004fc00 f   IACAlcNode.obj
 0001:0004ec08       __ehhandler$_IA_Calc_FindNode 1004fc08 f   IACAlcNode.obj
 0001:0004ec30       __unwindfunclet$_IA_Calc_RingCrack$0 1004fc30 f   IACalcRingCrack.obj
 0001:0004ec38       __ehhandler$_IA_Calc_RingCrack 1004fc38 f   IACalcRingCrack.obj
 0001:0004ec60       __unwindfunclet$_IA_Calc_FindSquare$0 1004fc60 f   IACalcSquare.obj
 0001:0004ec68       __unwindfunclet$_IA_Calc_FindSquare$1 1004fc68 f   IACalcSquare.obj
 0001:0004ec73       __unwindfunclet$_IA_Calc_FindSquare$2 1004fc73 f   IACalcSquare.obj
 0001:0004ec7e       __unwindfunclet$_IA_Calc_FindSquare$3 1004fc7e f   IACalcSquare.obj
 0001:0004ec89       __unwindfunclet$_IA_Calc_FindSquare$4 1004fc89 f   IACalcSquare.obj
 0001:0004ec94       __ehhandler$_IA_Calc_FindSquare 1004fc94 f   IACalcSquare.obj
 0001:0004ecc0       __unwindfunclet$_IA_Calc_FindStarving$0 1004fcc0 f   IACalcStarving.obj
 0001:0004ecc8       __unwindfunclet$_IA_Calc_FindStarving$1 1004fcc8 f   IACalcStarving.obj
 0001:0004ecd0       __ehhandler$_IA_Calc_FindStarving 1004fcd0 f   IACalcStarving.obj
 0001:0004ecf0       __ehhandler$??$_Uninit_copy@PAUPointFloat_struct@@PAU1@V?$allocator@UPointFloat_struct@@@std@@@std@@YAPAUPointFloat_struct@@PAU1@00AAV?$allocator@UPointFloat_struct@@@0@U_Nonscalar_ptr_iterator_tag@0@U_Range_checked_iterator_tag@0@@Z 1004fcf0 f   IACalcTeeth.obj
 0001:0004ed10       __unwindfunclet$??1?$_Vector_val@U?$pair@Upoint@@U1@@std@@V?$allocator@U?$pair@Upoint@@U1@@std@@@2@@std@@QAE@XZ$0 1004fd10 f   IACalcTeeth.obj
 0001:0004ed10       __unwindfunclet$??1?$_Vector_val@Upoint@@V?$allocator@Upoint@@@std@@@std@@QAE@XZ$0 1004fd10 f   IACalcTeeth.obj
 0001:0004ed10       __unwindfunclet$??1?$_Vector_val@HV?$allocator@H@std@@@std@@QAE@XZ$0 1004fd10 f   IACalcTeeth.obj
 0001:0004ed10       __unwindfunclet$??1?$_Vector_val@NV?$allocator@N@std@@@std@@QAE@XZ$0 1004fd10 f   IACalcTeeth.obj
 0001:0004ed10       __unwindfunclet$??1?$_Vector_val@V?$vector@Upoint@@V?$allocator@Upoint@@@std@@@std@@V?$allocator@V?$vector@Upoint@@V?$allocator@Upoint@@@std@@@std@@@2@@std@@QAE@XZ$0 1004fd10 f   IACalcTeeth.obj
 0001:0004ed10       __unwindfunclet$??1?$_Vector_val@MV?$allocator@M@std@@@std@@QAE@XZ$0 1004fd10 f   IACalcTeeth.obj
 0001:0004ed10       __unwindfunclet$??1?$_Vector_val@UPointFloat_struct@@V?$allocator@UPointFloat_struct@@@std@@@std@@QAE@XZ$0 1004fd10 f   IACalcTeeth.obj
 0001:0004ed18       __ehhandler$??1?$_Vector_val@UPointFloat_struct@@V?$allocator@UPointFloat_struct@@@std@@@std@@QAE@XZ 1004fd18 f   IACalcTeeth.obj
 0001:0004ed18       __ehhandler$??1?$_Vector_val@V?$vector@Upoint@@V?$allocator@Upoint@@@std@@@std@@V?$allocator@V?$vector@Upoint@@V?$allocator@Upoint@@@std@@@std@@@2@@std@@QAE@XZ 1004fd18 f   IACalcTeeth.obj
 0001:0004ed18       __ehhandler$??1?$_Vector_val@Upoint@@V?$allocator@Upoint@@@std@@@std@@QAE@XZ 1004fd18 f   IACalcTeeth.obj
 0001:0004ed18       __ehhandler$??1?$_Vector_val@MV?$allocator@M@std@@@std@@QAE@XZ 1004fd18 f   IACalcTeeth.obj
 0001:0004ed18       __ehhandler$??1?$_Vector_val@HV?$allocator@H@std@@@std@@QAE@XZ 1004fd18 f   IACalcTeeth.obj
 0001:0004ed18       __ehhandler$??1?$_Vector_val@NV?$allocator@N@std@@@std@@QAE@XZ 1004fd18 f   IACalcTeeth.obj
 0001:0004ed18       __ehhandler$??1?$_Vector_val@U?$pair@Upoint@@U1@@std@@V?$allocator@U?$pair@Upoint@@U1@@std@@@2@@std@@QAE@XZ 1004fd18 f   IACalcTeeth.obj
 0001:0004ed40       __ehhandler$??$_Uninit_fill_n@PAUPointFloat_struct@@IU1@V?$allocator@UPointFloat_struct@@@std@@@std@@YAXPAUPointFloat_struct@@IABU1@AAV?$allocator@UPointFloat_struct@@@0@U_Nonscalar_ptr_iterator_tag@0@U_Range_checked_iterator_tag@0@@Z 1004fd40 f   IACalcTeeth.obj
 0001:0004ed60       __ehhandler$?_Insert_n@?$vector@UPointFloat_struct@@V?$allocator@UPointFloat_struct@@@std@@@std@@IAEXV?$_Vector_const_iterator@UPointFloat_struct@@V?$allocator@UPointFloat_struct@@@std@@@2@IABUPointFloat_struct@@@Z 1004fd60 f   IACalcTeeth.obj
 0001:0004ed80       __unwindfunclet$?get_points_interested@@YAXPBUCurve_struct@@PBUinterested_options@@AAUinterested_report@@AAV?$vector@UPointFloat_struct@@V?$allocator@UPointFloat_struct@@@std@@@std@@33@Z$0 1004fd80 f   IACalcTeeth.obj
 0001:0004ed88       __ehhandler$?get_points_interested@@YAXPBUCurve_struct@@PBUinterested_options@@AAUinterested_report@@AAV?$vector@UPointFloat_struct@@V?$allocator@UPointFloat_struct@@@std@@@std@@33@Z 1004fd88 f   IACalcTeeth.obj
 0001:0004edb0       __unwindfunclet$?find_top_points@@YAXABV?$vector@UPointFloat_struct@@V?$allocator@UPointFloat_struct@@@std@@@std@@ABUPointFloat_struct@@1HAAV12@@Z$0 1004fdb0 f   IACalcTeeth.obj
 0001:0004edb8       __ehhandler$?find_top_points@@YAXABV?$vector@UPointFloat_struct@@V?$allocator@UPointFloat_struct@@@std@@@std@@ABUPointFloat_struct@@1HAAV12@@Z 1004fdb8 f   IACalcTeeth.obj
 0001:0004ede0       __unwindfunclet$_IA_Calc_FindTeeth$0 1004fde0 f   IACalcTeeth.obj
 0001:0004edeb       __unwindfunclet$_IA_Calc_FindTeeth$1 1004fdeb f   IACalcTeeth.obj
 0001:0004edf6       __unwindfunclet$_IA_Calc_FindTeeth$2 1004fdf6 f   IACalcTeeth.obj
 0001:0004ee01       __unwindfunclet$_IA_Calc_FindTeeth$3 1004fe01 f   IACalcTeeth.obj
 0001:0004ee0c       __unwindfunclet$_IA_Calc_FindTeeth$4 1004fe0c f   IACalcTeeth.obj
 0001:0004ee17       __unwindfunclet$_IA_Calc_FindTeeth$5 1004fe17 f   IACalcTeeth.obj
 0001:0004ee22       __unwindfunclet$_IA_Calc_FindTeeth$6 1004fe22 f   IACalcTeeth.obj
 0001:0004ee2d       __unwindfunclet$_IA_Calc_FindTeeth$7 1004fe2d f   IACalcTeeth.obj
 0001:0004ee38       __unwindfunclet$_IA_Calc_FindTeeth$8 1004fe38 f   IACalcTeeth.obj
 0001:0004ee43       __unwindfunclet$_IA_Calc_FindTeeth$9 1004fe43 f   IACalcTeeth.obj
 0001:0004ee4e       __unwindfunclet$_IA_Calc_FindTeeth$10 1004fe4e f   IACalcTeeth.obj
 0001:0004ee59       __unwindfunclet$_IA_Calc_FindTeeth$11 1004fe59 f   IACalcTeeth.obj
 0001:0004ee64       __unwindfunclet$_IA_Calc_FindTeeth$12 1004fe64 f   IACalcTeeth.obj
 0001:0004ee6f       __unwindfunclet$_IA_Calc_FindTeeth$13 1004fe6f f   IACalcTeeth.obj
 0001:0004ee7a       __unwindfunclet$_IA_Calc_FindTeeth$14 1004fe7a f   IACalcTeeth.obj
 0001:0004ee85       __unwindfunclet$_IA_Calc_FindTeeth$15 1004fe85 f   IACalcTeeth.obj
 0001:0004ee90       __ehhandler$_IA_Calc_FindTeeth 1004fe90 f   IACalcTeeth.obj
 0001:0004eec0       __unwindfunclet$?judge_crack@@YAHVCBlobResult@@URect_struct@@AAUPointFloat_struct@@@Z$0 1004fec0 f   IACalcThreadDamage.obj
 0001:0004eec8       __ehhandler$?judge_crack@@YAHVCBlobResult@@URect_struct@@AAUPointFloat_struct@@@Z 1004fec8 f   IACalcThreadDamage.obj
 0001:0004eef0       __unwindfunclet$?Alloc@?$auto_array@Upoint@@@@QAEHH@Z$0 1004fef0 f   IACalcThreadDamage.obj
 0001:0004eefb       __ehhandler$?Alloc@?$auto_array@Upoint@@@@QAEHH@Z 1004fefb f   IACalcThreadDamage.obj
 0001:0004ef20       __unwindfunclet$??$_Construct@V?$vector@Upoint@@V?$allocator@Upoint@@@std@@@std@@V12@@std@@YAXPAV?$vector@Upoint@@V?$allocator@Upoint@@@std@@@0@ABV10@@Z$0 1004ff20 f   IACalcThreadDamage.obj
 0001:0004ef20       __unwindfunclet$??$_Construct@U?$pair@Upoint@@U1@@std@@U12@@std@@YAXPAU?$pair@Upoint@@U1@@0@ABU10@@Z$0 1004ff20 f   IACalcThreadDamage.obj
 0001:0004ef20       __unwindfunclet$??$_Construct@Upoint@@U1@@std@@YAXPAUpoint@@ABU1@@Z$0 1004ff20 f   IACalcThreadDamage.obj
 0001:0004ef31       __ehhandler$??$_Construct@U?$pair@Upoint@@U1@@std@@U12@@std@@YAXPAU?$pair@Upoint@@U1@@0@ABU10@@Z 1004ff31 f   IACalcThreadDamage.obj
 0001:0004ef31       __ehhandler$??$_Construct@V?$vector@Upoint@@V?$allocator@Upoint@@@std@@@std@@V12@@std@@YAXPAV?$vector@Upoint@@V?$allocator@Upoint@@@std@@@0@ABV10@@Z 1004ff31 f   IACalcThreadDamage.obj
 0001:0004ef31       __ehhandler$??$_Construct@Upoint@@U1@@std@@YAXPAUpoint@@ABU1@@Z 1004ff31 f   IACalcThreadDamage.obj
 0001:0004ef50       __unwindfunclet$?get_ipl@@YAPAU_IplImage@@PAUImage_struct@@@Z$0 1004ff50 f   IACalcThreadDamage.obj
 0001:0004ef58       __ehhandler$?get_ipl@@YAPAU_IplImage@@PAUImage_struct@@@Z 1004ff58 f   IACalcThreadDamage.obj
 0001:0004ef80       __unwindfunclet$?locate@@YAHPAUImage_struct@@URect_struct@@@Z$0 1004ff80 f   IACalcThreadDamage.obj
 0001:0004ef88       __ehhandler$?locate@@YAHPAUImage_struct@@URect_struct@@@Z 1004ff88 f   IACalcThreadDamage.obj
 0001:0004efb0       __ehhandler$??$_Uninit_copy@PBUpoint@@PAU1@V?$allocator@Upoint@@@std@@@std@@YAPAUpoint@@PBU1@0PAU1@AAV?$allocator@Upoint@@@0@U_Nonscalar_ptr_iterator_tag@0@U_Range_checked_iterator_tag@0@@Z 1004ffb0 f   IACalcThreadDamage.obj
 0001:0004efb0       __ehhandler$??$_Uninit_copy@PAUpoint@@PAU1@V?$allocator@Upoint@@@std@@@std@@YAPAUpoint@@PAU1@00AAV?$allocator@Upoint@@@0@U_Nonscalar_ptr_iterator_tag@0@U_Range_checked_iterator_tag@0@@Z 1004ffb0 f   IACalcThreadDamage.obj
 0001:0004efd0       __ehhandler$??$_Uninit_fill_n@PAUpoint@@IU1@V?$allocator@Upoint@@@std@@@std@@YAXPAUpoint@@IABU1@AAV?$allocator@Upoint@@@0@U_Nonscalar_ptr_iterator_tag@0@U_Range_checked_iterator_tag@0@@Z 1004ffd0 f   IACalcThreadDamage.obj
 0001:0004eff0       __unwindfunclet$?get_damage@@YAHPAUImage_struct@@HV?$vector@HV?$allocator@H@std@@@std@@Upoint@@URect_struct@@M1AAUPointFloat_struct@@@Z$0 1004fff0 f   IACalcThreadDamage.obj
 0001:0004eff8       __unwindfunclet$?get_damage@@YAHPAUImage_struct@@HV?$vector@HV?$allocator@H@std@@@std@@Upoint@@URect_struct@@M1AAUPointFloat_struct@@@Z$1 1004fff8 f   IACalcThreadDamage.obj
 0001:0004f000       __ehhandler$?get_damage@@YAHPAUImage_struct@@HV?$vector@HV?$allocator@H@std@@@std@@Upoint@@URect_struct@@M1AAUPointFloat_struct@@@Z 10050000 f   IACalcThreadDamage.obj
 0001:0004f020       __unwindfunclet$??0?$vector@HV?$allocator@H@std@@@std@@QAE@ABV01@@Z$2 10050020 f   IACalcThreadDamage.obj
 0001:0004f028       __ehhandler$??0?$vector@HV?$allocator@H@std@@@std@@QAE@ABV01@@Z 10050028 f   IACalcThreadDamage.obj
 0001:0004f050       __unwindfunclet$??0?$vector@Upoint@@V?$allocator@Upoint@@@std@@@std@@QAE@ABV01@@Z$2 10050050 f   IACalcThreadDamage.obj
 0001:0004f058       __ehhandler$??0?$vector@Upoint@@V?$allocator@Upoint@@@std@@@std@@QAE@ABV01@@Z 10050058 f   IACalcThreadDamage.obj
 0001:0004f080       __ehhandler$?_Insert_n@?$vector@Upoint@@V?$allocator@Upoint@@@std@@@std@@IAEXV?$_Vector_const_iterator@Upoint@@V?$allocator@Upoint@@@std@@@2@IABUpoint@@@Z 10050080 f   IACalcThreadDamage.obj
 0001:0004f0a0       __unwindfunclet$??$_Uninit_move@PAV?$vector@Upoint@@V?$allocator@Upoint@@@std@@@std@@PAV12@V?$allocator@V?$vector@Upoint@@V?$allocator@Upoint@@@std@@@std@@@2@@std@@YAPAV?$vector@Upoint@@V?$allocator@Upoint@@@std@@@0@PAV10@00AAV?$allocator@V?$vector@Upoint@@V?$allocator@Upoint@@@std@@@std@@@0@U_Swap_move_tag@0@U_Range_checked_iterator_tag@0@@Z$2 100500a0 f   IACalcThreadDamage.obj
 0001:0004f0a8       __unwindfunclet$??$_Uninit_move@PAV?$vector@Upoint@@V?$allocator@Upoint@@@std@@@std@@PAV12@V?$allocator@V?$vector@Upoint@@V?$allocator@Upoint@@@std@@@std@@@2@@std@@YAPAV?$vector@Upoint@@V?$allocator@Upoint@@@std@@@0@PAV10@00AAV?$allocator@V?$vector@Upoint@@V?$allocator@Upoint@@@std@@@std@@@0@U_Swap_move_tag@0@U_Range_checked_iterator_tag@0@@Z$3 100500a8 f   IACalcThreadDamage.obj
 0001:0004f0b9       __ehhandler$??$_Uninit_move@PAV?$vector@Upoint@@V?$allocator@Upoint@@@std@@@std@@PAV12@V?$allocator@V?$vector@Upoint@@V?$allocator@Upoint@@@std@@@std@@@2@@std@@YAPAV?$vector@Upoint@@V?$allocator@Upoint@@@std@@@0@PAV10@00AAV?$allocator@V?$vector@Upoint@@V?$allocator@Upoint@@@std@@@std@@@0@U_Swap_move_tag@0@U_Range_checked_iterator_tag@0@@Z 100500b9 f   IACalcThreadDamage.obj
 0001:0004f0e0       __unwindfunclet$?get_sum_kernel@@YA_NV?$vector@Upoint@@V?$allocator@Upoint@@@std@@@std@@HAAV?$vector@HV?$allocator@H@std@@@2@AAUpoint@@21@Z$0 100500e0 f   IACalcThreadDamage.obj
 0001:0004f0e8       __unwindfunclet$?get_sum_kernel@@YA_NV?$vector@Upoint@@V?$allocator@Upoint@@@std@@@std@@HAAV?$vector@HV?$allocator@H@std@@@2@AAUpoint@@21@Z$1 100500e8 f   IACalcThreadDamage.obj
 0001:0004f0f0       __unwindfunclet$?get_sum_kernel@@YA_NV?$vector@Upoint@@V?$allocator@Upoint@@@std@@@std@@HAAV?$vector@HV?$allocator@H@std@@@2@AAUpoint@@21@Z$2 100500f0 f   IACalcThreadDamage.obj
 0001:0004f0f8       __unwindfunclet$?get_sum_kernel@@YA_NV?$vector@Upoint@@V?$allocator@Upoint@@@std@@@std@@HAAV?$vector@HV?$allocator@H@std@@@2@AAUpoint@@21@Z$3 100500f8 f   IACalcThreadDamage.obj
 0001:0004f100       __unwindfunclet$?get_sum_kernel@@YA_NV?$vector@Upoint@@V?$allocator@Upoint@@@std@@@std@@HAAV?$vector@HV?$allocator@H@std@@@2@AAUpoint@@21@Z$4 10050100 f   IACalcThreadDamage.obj
 0001:0004f108       __ehhandler$?get_sum_kernel@@YA_NV?$vector@Upoint@@V?$allocator@Upoint@@@std@@@std@@HAAV?$vector@HV?$allocator@H@std@@@2@AAUpoint@@21@Z 10050108 f   IACalcThreadDamage.obj
 0001:0004f130       __ehhandler$??$_Uninit_fill_n@PAV?$vector@Upoint@@V?$allocator@Upoint@@@std@@@std@@IV12@V?$allocator@V?$vector@Upoint@@V?$allocator@Upoint@@@std@@@std@@@2@@std@@YAXPAV?$vector@Upoint@@V?$allocator@Upoint@@@std@@@0@IABV10@AAV?$allocator@V?$vector@Upoint@@V?$allocator@Upoint@@@std@@@std@@@0@U_Nonscalar_ptr_iterator_tag@0@U_Range_checked_iterator_tag@0@@Z 10050130 f   IACalcThreadDamage.obj
 0001:0004f150       __unwindfunclet$?_Insert_n@?$vector@V?$vector@Upoint@@V?$allocator@Upoint@@@std@@@std@@V?$allocator@V?$vector@Upoint@@V?$allocator@Upoint@@@std@@@std@@@2@@std@@IAEXV?$_Vector_const_iterator@V?$vector@Upoint@@V?$allocator@Upoint@@@std@@@std@@V?$allocator@V?$vector@Upoint@@V?$allocator@Upoint@@@std@@@std@@@2@@2@IABV?$vector@Upoint@@V?$allocator@Upoint@@@std@@@2@@Z$4 10050150 f   IACalcThreadDamage.obj
 0001:0004f158       __unwindfunclet$?_Insert_n@?$vector@V?$vector@Upoint@@V?$allocator@Upoint@@@std@@@std@@V?$allocator@V?$vector@Upoint@@V?$allocator@Upoint@@@std@@@std@@@2@@std@@IAEXV?$_Vector_const_iterator@V?$vector@Upoint@@V?$allocator@Upoint@@@std@@@std@@V?$allocator@V?$vector@Upoint@@V?$allocator@Upoint@@@std@@@std@@@2@@2@IABV?$vector@Upoint@@V?$allocator@Upoint@@@std@@@2@@Z$5 10050158 f   IACalcThreadDamage.obj
 0001:0004f160       __ehhandler$?_Insert_n@?$vector@V?$vector@Upoint@@V?$allocator@Upoint@@@std@@@std@@V?$allocator@V?$vector@Upoint@@V?$allocator@Upoint@@@std@@@std@@@2@@std@@IAEXV?$_Vector_const_iterator@V?$vector@Upoint@@V?$allocator@Upoint@@@std@@@std@@V?$allocator@V?$vector@Upoint@@V?$allocator@Upoint@@@std@@@std@@@2@@2@IABV?$vector@Upoint@@V?$allocator@Upoint@@@std@@@2@@Z 10050160 f   IACalcThreadDamage.obj
 0001:0004f180       __unwindfunclet$??1?$vector@V?$vector@Upoint@@V?$allocator@Upoint@@@std@@@std@@V?$allocator@V?$vector@Upoint@@V?$allocator@Upoint@@@std@@@std@@@2@@std@@QAE@XZ$0 10050180 f   IACalcThreadDamage.obj
 0001:0004f188       __unwindfunclet$??1?$vector@V?$vector@Upoint@@V?$allocator@Upoint@@@std@@@std@@V?$allocator@V?$vector@Upoint@@V?$allocator@Upoint@@@std@@@std@@@2@@std@@QAE@XZ$1 10050188 f   IACalcThreadDamage.obj
 0001:0004f190       __ehhandler$??1?$vector@V?$vector@Upoint@@V?$allocator@Upoint@@@std@@@std@@V?$allocator@V?$vector@Upoint@@V?$allocator@Upoint@@@std@@@std@@@2@@std@@QAE@XZ 10050190 f   IACalcThreadDamage.obj
 0001:0004f1b0       __unwindfunclet$_IA_Calc_ThreadDamage$0 100501b0 f   IACalcThreadDamage.obj
 0001:0004f1b8       __unwindfunclet$_IA_Calc_ThreadDamage$1 100501b8 f   IACalcThreadDamage.obj
 0001:0004f1c3       __unwindfunclet$_IA_Calc_ThreadDamage$2 100501c3 f   IACalcThreadDamage.obj
 0001:0004f1cb       __unwindfunclet$_IA_Calc_ThreadDamage$3 100501cb f   IACalcThreadDamage.obj
 0001:0004f1d3       __unwindfunclet$_IA_Calc_ThreadDamage$4 100501d3 f   IACalcThreadDamage.obj
 0001:0004f1db       __unwindfunclet$_IA_Calc_ThreadDamage$5 100501db f   IACalcThreadDamage.obj
 0001:0004f1e6       __unwindfunclet$_IA_Calc_ThreadDamage$6 100501e6 f   IACalcThreadDamage.obj
 0001:0004f1f1       __unwindfunclet$_IA_Calc_ThreadDamage$7 100501f1 f   IACalcThreadDamage.obj
 0001:0004f1f9       __unwindfunclet$_IA_Calc_ThreadDamage$8 100501f9 f   IACalcThreadDamage.obj
 0001:0004f201       __unwindfunclet$_IA_Calc_ThreadDamage$9 10050201 f   IACalcThreadDamage.obj
 0001:0004f209       __unwindfunclet$_IA_Calc_ThreadDamage$10 10050209 f   IACalcThreadDamage.obj
 0001:0004f214       __unwindfunclet$_IA_Calc_ThreadDamage$11 10050214 f   IACalcThreadDamage.obj
 0001:0004f21f       __unwindfunclet$_IA_Calc_ThreadDamage$12 1005021f f   IACalcThreadDamage.obj
 0001:0004f22a       __ehhandler$_IA_Calc_ThreadDamage 1005022a f   IACalcThreadDamage.obj
 0001:0004f250       __unwindfunclet$_IA_Calc_FindThreadLocating$0 10050250 f   IACalcThreadLocating.obj
 0001:0004f258       __unwindfunclet$_IA_Calc_FindThreadLocating$1 10050258 f   IACalcThreadLocating.obj
 0001:0004f260       __unwindfunclet$_IA_Calc_FindThreadLocating$2 10050260 f   IACalcThreadLocating.obj
 0001:0004f268       __ehhandler$_IA_Calc_FindThreadLocating 10050268 f   IACalcThreadLocating.obj
 0001:0004f290       __ehhandler$?_Construct_n@?$vector@HV?$allocator@H@std@@@std@@QAEXIABH@Z 10050290 f   IACalcThreads.obj
 0001:0004f2b0       __unwindfunclet$??0?$vector@HV?$allocator@H@std@@@std@@QAE@I@Z$0 100502b0 f   IACalcThreads.obj
 0001:0004f2b8       __ehhandler$??0?$vector@HV?$allocator@H@std@@@std@@QAE@I@Z 100502b8 f   IACalcThreads.obj
 0001:0004f2e0       __unwindfunclet$?most_y_row@@YAXPAUImage_struct@@HAAV?$vector@HV?$allocator@H@std@@@std@@@Z$0 100502e0 f   IACalcThreads.obj
 0001:0004f2e8       __unwindfunclet$?most_y_row@@YAXPAUImage_struct@@HAAV?$vector@HV?$allocator@H@std@@@std@@@Z$1 100502e8 f   IACalcThreads.obj
 0001:0004f2f0       __unwindfunclet$?most_y_row@@YAXPAUImage_struct@@HAAV?$vector@HV?$allocator@H@std@@@std@@@Z$2 100502f0 f   IACalcThreads.obj
 0001:0004f2f8       __unwindfunclet$?most_y_row@@YAXPAUImage_struct@@HAAV?$vector@HV?$allocator@H@std@@@std@@@Z$3 100502f8 f   IACalcThreads.obj
 0001:0004f300       __unwindfunclet$?most_y_row@@YAXPAUImage_struct@@HAAV?$vector@HV?$allocator@H@std@@@std@@@Z$4 10050300 f   IACalcThreads.obj
 0001:0004f308       __ehhandler$?most_y_row@@YAXPAUImage_struct@@HAAV?$vector@HV?$allocator@H@std@@@std@@@Z 10050308 f   IACalcThreads.obj
 0001:0004f330       __unwindfunclet$_IA_Calc_Threads$0 10050330 f   IACalcThreads.obj
 0001:0004f33b       __unwindfunclet$_IA_Calc_Threads$1 1005033b f   IACalcThreads.obj
 0001:0004f346       __unwindfunclet$_IA_Calc_Threads$2 10050346 f   IACalcThreads.obj
 0001:0004f351       __unwindfunclet$_IA_Calc_Threads$3 10050351 f   IACalcThreads.obj
 0001:0004f35c       __unwindfunclet$_IA_Calc_Threads$4 1005035c f   IACalcThreads.obj
 0001:0004f367       __ehhandler$_IA_Calc_Threads 10050367 f   IACalcThreads.obj
 0001:0004f3a0       __unwindfunclet$?find_fine_circle@@YA?AV?$basic_string@_WU?$char_traits@_W@std@@V?$allocator@_W@2@@std@@PAUImage_struct@@AAUpoint@@AAM@Z$0 100503a0 f   IAFindShape.obj
 0001:0004f3ac       __unwindfunclet$?find_fine_circle@@YA?AV?$basic_string@_WU?$char_traits@_W@std@@V?$allocator@_W@2@@std@@PAUImage_struct@@AAUpoint@@AAM@Z$1 100503ac f   IAFindShape.obj
 0001:0004f3b7       __unwindfunclet$?find_fine_circle@@YA?AV?$basic_string@_WU?$char_traits@_W@std@@V?$allocator@_W@2@@std@@PAUImage_struct@@AAUpoint@@AAM@Z$3 100503b7 f   IAFindShape.obj
 0001:0004f3c2       __unwindfunclet$?find_fine_circle@@YA?AV?$basic_string@_WU?$char_traits@_W@std@@V?$allocator@_W@2@@std@@PAUImage_struct@@AAUpoint@@AAM@Z$2 100503c2 f   IAFindShape.obj
 0001:0004f3e2       __ehhandler$?find_fine_circle@@YA?AV?$basic_string@_WU?$char_traits@_W@std@@V?$allocator@_W@2@@std@@PAUImage_struct@@AAUpoint@@AAM@Z 100503e2 f   IAFindShape.obj
 0001:0004f410       __unwindfunclet$?mask_down@@YA?AV?$basic_string@_WU?$char_traits@_W@std@@V?$allocator@_W@2@@std@@PAUImage_struct@@ABUPointFloat_struct@@M_N@Z$0 10050410 f   IAFindShape.obj
 0001:0004f41c       __unwindfunclet$?mask_down@@YA?AV?$basic_string@_WU?$char_traits@_W@std@@V?$allocator@_W@2@@std@@PAUImage_struct@@ABUPointFloat_struct@@M_N@Z$1 1005041c f   IAFindShape.obj
 0001:0004f43c       __unwindfunclet$?mask_down@@YA?AV?$basic_string@_WU?$char_traits@_W@std@@V?$allocator@_W@2@@std@@PAUImage_struct@@ABUPointFloat_struct@@M_N@Z$2 1005043c f   IAFindShape.obj
 0001:0004f447       __ehhandler$?mask_down@@YA?AV?$basic_string@_WU?$char_traits@_W@std@@V?$allocator@_W@2@@std@@PAUImage_struct@@ABUPointFloat_struct@@M_N@Z 10050447 f   IAFindShape.obj
 0001:0004f470       __unwindfunclet$?find_and_remove_border@@YAHPAUImage_struct@@@Z$0 10050470 f   IAFindShape.obj
 0001:0004f47b       __unwindfunclet$?find_and_remove_border@@YAHPAUImage_struct@@@Z$1 1005047b f   IAFindShape.obj
 0001:0004f486       __unwindfunclet$?find_and_remove_border@@YAHPAUImage_struct@@@Z$2 10050486 f   IAFindShape.obj
 0001:0004f48e       __ehhandler$?find_and_remove_border@@YAHPAUImage_struct@@@Z 1005048e f   IAFindShape.obj
 0001:0004f4b0       __unwindfunclet$??0?$vector@MV?$allocator@M@std@@@std@@QAE@XZ$0 100504b0 f   IAFindShape.obj
 0001:0004f4b0       __unwindfunclet$??0?$vector@Upoint@@V?$allocator@Upoint@@@std@@@std@@QAE@XZ$0 100504b0 f   IAFindShape.obj
 0001:0004f4b0       __unwindfunclet$??0?$vector@V?$vector@Upoint@@V?$allocator@Upoint@@@std@@@std@@V?$allocator@V?$vector@Upoint@@V?$allocator@Upoint@@@std@@@std@@@2@@std@@QAE@XZ$0 100504b0 f   IAFindShape.obj
 0001:0004f4b0       __unwindfunclet$??0?$vector@UPointFloat_struct@@V?$allocator@UPointFloat_struct@@@std@@@std@@QAE@XZ$0 100504b0 f   IAFindShape.obj
 0001:0004f4b0       __unwindfunclet$??0?$vector@HV?$allocator@H@std@@@std@@QAE@XZ$0 100504b0 f   IAFindShape.obj
 0001:0004f4b0       __unwindfunclet$??0?$vector@NV?$allocator@N@std@@@std@@QAE@XZ$0 100504b0 f   IAFindShape.obj
 0001:0004f4b0       __unwindfunclet$??0?$vector@U?$pair@Upoint@@U1@@std@@V?$allocator@U?$pair@Upoint@@U1@@std@@@2@@std@@QAE@XZ$0 100504b0 f   IAFindShape.obj
 0001:0004f4b8       __ehhandler$??0?$vector@NV?$allocator@N@std@@@std@@QAE@XZ 100504b8 f   IAFindShape.obj
 0001:0004f4b8       __ehhandler$??0?$vector@HV?$allocator@H@std@@@std@@QAE@XZ 100504b8 f   IAFindShape.obj
 0001:0004f4b8       __ehhandler$??0?$vector@V?$vector@Upoint@@V?$allocator@Upoint@@@std@@@std@@V?$allocator@V?$vector@Upoint@@V?$allocator@Upoint@@@std@@@std@@@2@@std@@QAE@XZ 100504b8 f   IAFindShape.obj
 0001:0004f4b8       __ehhandler$??0?$vector@UPointFloat_struct@@V?$allocator@UPointFloat_struct@@@std@@@std@@QAE@XZ 100504b8 f   IAFindShape.obj
 0001:0004f4b8       __ehhandler$??0?$vector@Upoint@@V?$allocator@Upoint@@@std@@@std@@QAE@XZ 100504b8 f   IAFindShape.obj
 0001:0004f4b8       __ehhandler$??0?$vector@U?$pair@Upoint@@U1@@std@@V?$allocator@U?$pair@Upoint@@U1@@std@@@2@@std@@QAE@XZ 100504b8 f   IAFindShape.obj
 0001:0004f4b8       __ehhandler$??0?$vector@MV?$allocator@M@std@@@std@@QAE@XZ 100504b8 f   IAFindShape.obj
 0001:0004f4e0       __unwindfunclet$??1?$vector@MV?$allocator@M@std@@@std@@QAE@XZ$0 100504e0 f   IAFindShape.obj
 0001:0004f4e0       __unwindfunclet$??1?$vector@NV?$allocator@N@std@@@std@@QAE@XZ$0 100504e0 f   IAFindShape.obj
 0001:0004f4e0       __unwindfunclet$??1?$vector@UPointFloat_struct@@V?$allocator@UPointFloat_struct@@@std@@@std@@QAE@XZ$0 100504e0 f   IAFindShape.obj
 0001:0004f4e0       __unwindfunclet$??1?$vector@U?$pair@Upoint@@U1@@std@@V?$allocator@U?$pair@Upoint@@U1@@std@@@2@@std@@QAE@XZ$0 100504e0 f   IAFindShape.obj
 0001:0004f4e0       __unwindfunclet$??1?$vector@HV?$allocator@H@std@@@std@@QAE@XZ$0 100504e0 f   IAFindShape.obj
 0001:0004f4e0       __unwindfunclet$??1?$vector@Upoint@@V?$allocator@Upoint@@@std@@@std@@QAE@XZ$0 100504e0 f   IAFindShape.obj
 0001:0004f4e8       __unwindfunclet$??1?$vector@HV?$allocator@H@std@@@std@@QAE@XZ$1 100504e8 f   IAFindShape.obj
 0001:0004f4e8       __unwindfunclet$??1?$vector@UPointFloat_struct@@V?$allocator@UPointFloat_struct@@@std@@@std@@QAE@XZ$1 100504e8 f   IAFindShape.obj
 0001:0004f4e8       __unwindfunclet$??1?$vector@NV?$allocator@N@std@@@std@@QAE@XZ$1 100504e8 f   IAFindShape.obj
 0001:0004f4e8       __unwindfunclet$??1?$vector@U?$pair@Upoint@@U1@@std@@V?$allocator@U?$pair@Upoint@@U1@@std@@@2@@std@@QAE@XZ$1 100504e8 f   IAFindShape.obj
 0001:0004f4e8       __unwindfunclet$??1?$vector@Upoint@@V?$allocator@Upoint@@@std@@@std@@QAE@XZ$1 100504e8 f   IAFindShape.obj
 0001:0004f4e8       __unwindfunclet$??1?$vector@MV?$allocator@M@std@@@std@@QAE@XZ$1 100504e8 f   IAFindShape.obj
 0001:0004f4f0       __ehhandler$??1?$vector@HV?$allocator@H@std@@@std@@QAE@XZ 100504f0 f   IAFindShape.obj
 0001:0004f4f0       __ehhandler$??1?$vector@MV?$allocator@M@std@@@std@@QAE@XZ 100504f0 f   IAFindShape.obj
 0001:0004f4f0       __ehhandler$??1?$vector@U?$pair@Upoint@@U1@@std@@V?$allocator@U?$pair@Upoint@@U1@@std@@@2@@std@@QAE@XZ 100504f0 f   IAFindShape.obj
 0001:0004f4f0       __ehhandler$??1?$vector@Upoint@@V?$allocator@Upoint@@@std@@@std@@QAE@XZ 100504f0 f   IAFindShape.obj
 0001:0004f4f0       __ehhandler$??1?$vector@NV?$allocator@N@std@@@std@@QAE@XZ 100504f0 f   IAFindShape.obj
 0001:0004f4f0       __ehhandler$??1?$vector@UPointFloat_struct@@V?$allocator@UPointFloat_struct@@@std@@@std@@QAE@XZ 100504f0 f   IAFindShape.obj
 0001:0004f510       __ehhandler$?_Insert_n@?$vector@MV?$allocator@M@std@@@std@@IAEXV?$_Vector_const_iterator@MV?$allocator@M@std@@@2@IABM@Z 10050510 f   IAFindShape.obj
 0001:0004f530       __unwindfunclet$?SideCrack@@YAMPAUImage_struct@@UAnnulus_struct@@H@Z$0 10050530 f   IAFindShape.obj
 0001:0004f53b       __unwindfunclet$?SideCrack@@YAMPAUImage_struct@@UAnnulus_struct@@H@Z$1 1005053b f   IAFindShape.obj
 0001:0004f546       __unwindfunclet$?SideCrack@@YAMPAUImage_struct@@UAnnulus_struct@@H@Z$2 10050546 f   IAFindShape.obj
 0001:0004f551       __unwindfunclet$?SideCrack@@YAMPAUImage_struct@@UAnnulus_struct@@H@Z$3 10050551 f   IAFindShape.obj
 0001:0004f55c       __ehhandler$?SideCrack@@YAMPAUImage_struct@@UAnnulus_struct@@H@Z 1005055c f   IAFindShape.obj
 0001:0004f580       __unwindfunclet$?find_shape@@YAHPAUImage_struct@@PBUFindShapeOptions@@PAUFindShapeReport@@@Z$0 10050580 f   IAFindShape.obj
 0001:0004f58b       __ehhandler$?find_shape@@YAHPAUImage_struct@@PBUFindShapeOptions@@PAUFindShapeReport@@@Z 1005058b f   IAFindShape.obj
 0001:0004f5b0       __unwindfunclet$?find_and_remove_trench@@YA?AV?$basic_string@_WU?$char_traits@_W@std@@V?$allocator@_W@2@@std@@PAUImage_struct@@AAUPointFloat_struct@@AAM@Z$0 100505b0 f   IAFindShape.obj
 0001:0004f5bc       __unwindfunclet$?find_and_remove_trench@@YA?AV?$basic_string@_WU?$char_traits@_W@std@@V?$allocator@_W@2@@std@@PAUImage_struct@@AAUPointFloat_struct@@AAM@Z$1 100505bc f   IAFindShape.obj
 0001:0004f5c7       __unwindfunclet$?find_and_remove_trench@@YA?AV?$basic_string@_WU?$char_traits@_W@std@@V?$allocator@_W@2@@std@@PAUImage_struct@@AAUPointFloat_struct@@AAM@Z$2 100505c7 f   IAFindShape.obj
 0001:0004f5d3       __unwindfunclet$?find_and_remove_trench@@YA?AV?$basic_string@_WU?$char_traits@_W@std@@V?$allocator@_W@2@@std@@PAUImage_struct@@AAUPointFloat_struct@@AAM@Z$3 100505d3 f   IAFindShape.obj
 0001:0004f5de       __unwindfunclet$?find_and_remove_trench@@YA?AV?$basic_string@_WU?$char_traits@_W@std@@V?$allocator@_W@2@@std@@PAUImage_struct@@AAUPointFloat_struct@@AAM@Z$4 100505de f   IAFindShape.obj
 0001:0004f5e9       __unwindfunclet$?find_and_remove_trench@@YA?AV?$basic_string@_WU?$char_traits@_W@std@@V?$allocator@_W@2@@std@@PAUImage_struct@@AAUPointFloat_struct@@AAM@Z$5 100505e9 f   IAFindShape.obj
 0001:0004f609       __unwindfunclet$?find_and_remove_trench@@YA?AV?$basic_string@_WU?$char_traits@_W@std@@V?$allocator@_W@2@@std@@PAUImage_struct@@AAUPointFloat_struct@@AAM@Z$6 10050609 f   IAFindShape.obj
 0001:0004f614       __ehhandler$?find_and_remove_trench@@YA?AV?$basic_string@_WU?$char_traits@_W@std@@V?$allocator@_W@2@@std@@PAUImage_struct@@AAUPointFloat_struct@@AAM@Z 10050614 f   IAFindShape.obj
 0001:0004f640       __unwindfunclet$_IA_Calc_FindShape$0 10050640 f   IAFindShape.obj
 0001:0004f64b       __unwindfunclet$_IA_Calc_FindShape$1 1005064b f   IAFindShape.obj
 0001:0004f656       __unwindfunclet$_IA_Calc_FindShape$2 10050656 f   IAFindShape.obj
 0001:0004f662       __unwindfunclet$_IA_Calc_FindShape$3 10050662 f   IAFindShape.obj
 0001:0004f66e       __unwindfunclet$_IA_Calc_FindShape$4 1005066e f   IAFindShape.obj
 0001:0004f67a       __ehhandler$_IA_Calc_FindShape 1005067a f   IAFindShape.obj
 0001:0004f6a0       __unwindfunclet$_IA_Initialize$0 100506a0 f   IAMain.obj
 0001:0004f6a0       __unwindfunclet$_IA_Free$0 100506a0 f   IAMain.obj
 0001:0004f6a8       __ehhandler$_IA_Free       100506a8 f   IAMain.obj
 0001:0004f6a8       __ehhandler$_IA_Initialize 100506a8 f   IAMain.obj
 0001:0004f6d0       __unwindfunclet$_IA_ReadImage$0 100506d0 f   IAMain.obj
 0001:0004f6d8       __ehhandler$_IA_ReadImage  100506d8 f   IAMain.obj
 0001:0004f700       __unwindfunclet$?save_image@@YAPAUImage_struct@@HH@Z$0 10050700 f   IAMain.obj
 0001:0004f700       __unwindfunclet$_IA_OverlayDrawText2$0 10050700 f   IAMain.obj
 0001:0004f700       __unwindfunclet$_IA_GetZoom$0 10050700 f   IAMain.obj
 0001:0004f708       __ehhandler$?save_image@@YAPAUImage_struct@@HH@Z 10050708 f   IAMain.obj
 0001:0004f708       __ehhandler$_IA_OverlayDrawText2 10050708 f   IAMain.obj
 0001:0004f708       __ehhandler$_IA_GetZoom    10050708 f   IAMain.obj
 0001:0004f730       __unwindfunclet$_IA_ShowWindow$0 10050730 f   IAMain.obj
 0001:0004f730       __unwindfunclet$_IA_Refresh$0 10050730 f   IAMain.obj
 0001:0004f730       __unwindfunclet$?GetColor@@YA?AURGBValue_struct@@H@Z$0 10050730 f   IAMain.obj
 0001:0004f730       __unwindfunclet$_IA_CopyImage$0 10050730 f   IAMain.obj
 0001:0004f738       __ehhandler$?GetColor@@YA?AURGBValue_struct@@H@Z 10050738 f   IAMain.obj
 0001:0004f738       __ehhandler$_IA_ShowWindow 10050738 f   IAMain.obj
 0001:0004f738       __ehhandler$_IA_Refresh    10050738 f   IAMain.obj
 0001:0004f738       __ehhandler$_IA_CopyImage  10050738 f   IAMain.obj
 0001:0004f760       __unwindfunclet$_IA_OverlayDrawText$0 10050760 f   IAMain.obj
 0001:0004f768       __ehhandler$_IA_OverlayDrawText 10050768 f   IAMain.obj
 0001:0004f790       __unwindfunclet$_IA_GetLastError$0 10050790 f   IAMain.obj
 0001:0004f798       __unwindfunclet$_IA_GetLastError$1 10050798 f   IAMain.obj
 0001:0004f7a0       __ehhandler$_IA_GetLastError 100507a0 f   IAMain.obj
 0001:0004f7c0       __unwindfunclet$_IA_Screenshot$0 100507c0 f   IAMain.obj
 0001:0004f7c0       __unwindfunclet$_IA_Screenshot_Display$0 100507c0 f   IAMain.obj
 0001:0004f7c8       __unwindfunclet$_IA_Screenshot_Display$1 100507c8 f   IAMain.obj
 0001:0004f7c8       __unwindfunclet$_IA_Screenshot$1 100507c8 f   IAMain.obj
 0001:0004f7d0       __ehhandler$_IA_Screenshot 100507d0 f   IAMain.obj
 0001:0004f7d0       __ehhandler$_IA_Screenshot_Display 100507d0 f   IAMain.obj
 0001:0004f7f0       __unwindfunclet$_IA_Process_BinarizeManual$0 100507f0 f   IAProcess.obj
 0001:0004f7f8       __ehhandler$_IA_Process_BinarizeManual 100507f8 f   IAProcess.obj
 0001:0004f820       __unwindfunclet$_IA_Process_RemoveNoise$0 10050820 f   IAProcess.obj
 0001:0004f828       __ehhandler$_IA_Process_RemoveNoise 10050828 f   IAProcess.obj
 0001:0004f850       __unwindfunclet$_IA_Process_BinarizeAuto$0 10050850 f   IAProcess.obj
 0001:0004f858       __unwindfunclet$_IA_Process_BinarizeAuto$1 10050858 f   IAProcess.obj
 0001:0004f860       __ehhandler$_IA_Process_BinarizeAuto 10050860 f   IAProcess.obj
 0001:0004f880       __unwindfunclet$_IA_ROI_Remove$0 10050880 f   IAROI.obj
 0001:0004f880       __unwindfunclet$_IA_ROI_SetColor$0 10050880 f   IAROI.obj
 0001:0004f888       __ehhandler$_IA_ROI_Remove 10050888 f   IAROI.obj
 0001:0004f888       __ehhandler$_IA_ROI_SetColor 10050888 f   IAROI.obj
 0001:0004f8b0       __unwindfunclet$??1sub_image@@UAE@XZ$0 100508b0 f   IAROI.obj
 0001:0004f8b0       __unwindfunclet$??$GetBoundingGeneral@URect_struct@@@@YAHPBURect_struct@@PAU0@@Z$0 100508b0 f   IAROI.obj
 0001:0004f8b0       __unwindfunclet$??$GetBoundingGeneral@UAnnulus_struct@@@@YAHPBUAnnulus_struct@@PAURect_struct@@@Z$0 100508b0 f   IAROI.obj
 0001:0004f8b0       __unwindfunclet$??$GetBoundingGeneral@URotatedRect_struct@@@@YAHPBURotatedRect_struct@@PAURect_struct@@@Z$0 100508b0 f   IAROI.obj
 0001:0004f8b8       __ehhandler$??1sub_image@@UAE@XZ 100508b8 f   IAROI.obj
 0001:0004f8b8       __ehhandler$??$GetBoundingGeneral@UAnnulus_struct@@@@YAHPBUAnnulus_struct@@PAURect_struct@@@Z 100508b8 f   IAROI.obj
 0001:0004f8b8       __ehhandler$??$GetBoundingGeneral@URotatedRect_struct@@@@YAHPBURotatedRect_struct@@PAURect_struct@@@Z 100508b8 f   IAROI.obj
 0001:0004f8b8       __ehhandler$??$GetBoundingGeneral@URect_struct@@@@YAHPBURect_struct@@PAU0@@Z 100508b8 f   IAROI.obj
 0001:0004f8e0       __unwindfunclet$??$GetTool@UAnnulus_struct@@@@YAHHHPAUAnnulus_struct@@W4ContourType_enum@@@Z$0 100508e0 f   IAROI.obj
 0001:0004f8e0       __unwindfunclet$??$GetTool@URect_struct@@@@YAHHHPAURect_struct@@W4ContourType_enum@@@Z$0 100508e0 f   IAROI.obj
 0001:0004f8e0       __unwindfunclet$??$GetTool@URotatedRect_struct@@@@YAHHHPAURotatedRect_struct@@W4ContourType_enum@@@Z$0 100508e0 f   IAROI.obj
 0001:0004f8e8       __unwindfunclet$??$GetTool@URotatedRect_struct@@@@YAHHHPAURotatedRect_struct@@W4ContourType_enum@@@Z$1 100508e8 f   IAROI.obj
 0001:0004f8e8       __unwindfunclet$??$GetTool@UAnnulus_struct@@@@YAHHHPAUAnnulus_struct@@W4ContourType_enum@@@Z$1 100508e8 f   IAROI.obj
 0001:0004f8e8       __unwindfunclet$??$GetTool@URect_struct@@@@YAHHHPAURect_struct@@W4ContourType_enum@@@Z$1 100508e8 f   IAROI.obj
 0001:0004f8f0       __ehhandler$??$GetTool@URotatedRect_struct@@@@YAHHHPAURotatedRect_struct@@W4ContourType_enum@@@Z 100508f0 f   IAROI.obj
 0001:0004f8f0       __ehhandler$??$GetTool@URect_struct@@@@YAHHHPAURect_struct@@W4ContourType_enum@@@Z 100508f0 f   IAROI.obj
 0001:0004f8f0       __ehhandler$??$GetTool@UAnnulus_struct@@@@YAHHHPAUAnnulus_struct@@W4ContourType_enum@@@Z 100508f0 f   IAROI.obj
 0001:0004f910       __unwindfunclet$??$_Uninit_copy@PBUPointFloat_struct@@PAUpoint@@V?$allocator@Upoint@@@std@@@std@@YAPAUpoint@@PBUPointFloat_struct@@0PAU1@AAV?$allocator@Upoint@@@0@U_Nonscalar_ptr_iterator_tag@0@U_Range_checked_iterator_tag@0@@Z$2 10050910 f   point.obj
 0001:0004f921       __ehhandler$??$_Uninit_copy@PBUPointFloat_struct@@PAUpoint@@V?$allocator@Upoint@@@std@@@std@@YAPAUpoint@@PBUPointFloat_struct@@0PAU1@AAV?$allocator@Upoint@@@0@U_Nonscalar_ptr_iterator_tag@0@U_Range_checked_iterator_tag@0@@Z 10050921 f   point.obj
 0001:0004f940       __ehhandler$??$_Insert@PBUPointFloat_struct@@@?$vector@Upoint@@V?$allocator@Upoint@@@std@@@std@@QAEXV?$_Vector_const_iterator@Upoint@@V?$allocator@Upoint@@@std@@@1@PBUPointFloat_struct@@1Uforward_iterator_tag@1@@Z 10050940 f   point.obj
 0001:0004f960       __unwindfunclet$_IA_SetupWindow$0 10050960 f   sub_image.obj
 0001:0004f960       __unwindfunclet$?get@sub_image@@QAEXPAUImage_struct@@PBURect_struct@@@Z$0 10050960 f   sub_image.obj
 0001:0004f968       __ehhandler$?get@sub_image@@QAEXPAUImage_struct@@PBURect_struct@@@Z 10050968 f   sub_image.obj
 0001:0004f968       __ehhandler$_IA_SetupWindow 10050968 f   sub_image.obj
 0001:0004f990       __unwindfunclet$?edge_tool@@YAPAUEdgeReport_struct@@PAUImage_struct@@Upoint@@1PAH@Z$0 10050990 f   tools_ni.obj
 0001:0004f998       __unwindfunclet$?edge_tool@@YAPAUEdgeReport_struct@@PAUImage_struct@@Upoint@@1PAH@Z$1 10050998 f   tools_ni.obj
 0001:0004f9a0       __ehhandler$?edge_tool@@YAPAUEdgeReport_struct@@PAUImage_struct@@Upoint@@1PAH@Z 100509a0 f   tools_ni.obj
 0001:0004f9c0       __unwindfunclet$?fill_holes_side@@YAHPAUImage_struct@@@Z$0 100509c0 f   tools_ni.obj
 0001:0004f9c8       __ehhandler$?fill_holes_side@@YAHPAUImage_struct@@@Z 100509c8 f   tools_ni.obj
 0001:0004f9f0       __unwindfunclet$?mask_down@@YAHPAUImage_struct@@URect_struct@@@Z$0 100509f0 f   tools_ni.obj
 0001:0004f9f8       __ehhandler$?mask_down@@YAHPAUImage_struct@@URect_struct@@@Z 100509f8 f   tools_ni.obj
 0001:0004fa20       __unwindfunclet$?rake@@YAPAURakeReport_struct@@PAUImage_struct@@W4RakeDirection_enum@@W4EdgeProcess_enum@@URect_struct@@@Z$0 10050a20 f   tools_ni.obj
 0001:0004fa28       __ehhandler$?rake@@YAPAURakeReport_struct@@PAUImage_struct@@W4RakeDirection_enum@@W4EdgeProcess_enum@@URect_struct@@@Z 10050a28 f   tools_ni.obj
 0001:0004fa50       __unwindfunclet$?GetBounding@@YAHHHPAURect_struct@@@Z$0 10050a50 f   Utilities.obj
 0001:0004fa58       __unwindfunclet$?GetBounding@@YAHHHPAURect_struct@@@Z$1 10050a58 f   Utilities.obj
 0001:0004fa60       __ehhandler$?GetBounding@@YAHHHPAURect_struct@@@Z 10050a60 f   Utilities.obj
 0001:0004fa80       __unwindfunclet$?debug_ni_err@@YA?AV?$basic_string@DU?$char_traits@D@std@@V?$allocator@D@2@@std@@H@Z$0 10050a80 f   Utilities.obj
 0001:0004fa88       __unwindfunclet$?debug_ni_err@@YA?AV?$basic_string@DU?$char_traits@D@std@@V?$allocator@D@2@@std@@H@Z$1 10050a88 f   Utilities.obj
 0001:0004faa2       __ehhandler$?debug_ni_err@@YA?AV?$basic_string@DU?$char_traits@D@std@@V?$allocator@D@2@@std@@H@Z 10050aa2 f   Utilities.obj
 0001:0004fac0       __unwindfunclet$??0?$_Container_base_aux_alloc_real@V?$allocator@M@std@@@std@@IAE@V?$allocator@M@1@@Z$0 10050ac0 f   Utilities.obj
 0001:0004fac0       __unwindfunclet$??0?$_Container_base_aux_alloc_real@V?$allocator@UPointFloat_struct@@@std@@@std@@IAE@V?$allocator@UPointFloat_struct@@@1@@Z$0 10050ac0 f   Utilities.obj
 0001:0004fac0       __unwindfunclet$??0?$_Container_base_aux_alloc_real@V?$allocator@U?$pair@Upoint@@U1@@std@@@std@@@std@@IAE@V?$allocator@U?$pair@Upoint@@U1@@std@@@1@@Z$0 10050ac0 f   Utilities.obj
 0001:0004fac0       __unwindfunclet$??0?$_Container_base_aux_alloc_real@V?$allocator@Upoint@@@std@@@std@@IAE@V?$allocator@Upoint@@@1@@Z$0 10050ac0 f   Utilities.obj
 0001:0004fac0       __unwindfunclet$??0?$_Container_base_aux_alloc_real@V?$allocator@N@std@@@std@@IAE@V?$allocator@N@1@@Z$0 10050ac0 f   Utilities.obj
 0001:0004fac0       __unwindfunclet$??0?$_Container_base_aux_alloc_real@V?$allocator@V?$vector@Upoint@@V?$allocator@Upoint@@@std@@@std@@@std@@@std@@IAE@V?$allocator@V?$vector@Upoint@@V?$allocator@Upoint@@@std@@@std@@@1@@Z$0 10050ac0 f   Utilities.obj
 0001:0004fac0       __unwindfunclet$??0?$_Container_base_aux_alloc_real@V?$allocator@H@std@@@std@@IAE@V?$allocator@H@1@@Z$0 10050ac0 f   Utilities.obj
 0001:0004fad1       __ehhandler$??0?$_Container_base_aux_alloc_real@V?$allocator@V?$vector@Upoint@@V?$allocator@Upoint@@@std@@@std@@@std@@@std@@IAE@V?$allocator@V?$vector@Upoint@@V?$allocator@Upoint@@@std@@@std@@@1@@Z 10050ad1 f   Utilities.obj
 0001:0004fad1       __ehhandler$??0?$_Container_base_aux_alloc_real@V?$allocator@H@std@@@std@@IAE@V?$allocator@H@1@@Z 10050ad1 f   Utilities.obj
 0001:0004fad1       __ehhandler$??0?$_Container_base_aux_alloc_real@V?$allocator@N@std@@@std@@IAE@V?$allocator@N@1@@Z 10050ad1 f   Utilities.obj
 0001:0004fad1       __ehhandler$??0?$_Container_base_aux_alloc_real@V?$allocator@Upoint@@@std@@@std@@IAE@V?$allocator@Upoint@@@1@@Z 10050ad1 f   Utilities.obj
 0001:0004fad1       __ehhandler$??0?$_Container_base_aux_alloc_real@V?$allocator@UPointFloat_struct@@@std@@@std@@IAE@V?$allocator@UPointFloat_struct@@@1@@Z 10050ad1 f   Utilities.obj
 0001:0004fad1       __ehhandler$??0?$_Container_base_aux_alloc_real@V?$allocator@M@std@@@std@@IAE@V?$allocator@M@1@@Z 10050ad1 f   Utilities.obj
 0001:0004fad1       __ehhandler$??0?$_Container_base_aux_alloc_real@V?$allocator@U?$pair@Upoint@@U1@@std@@@std@@@std@@IAE@V?$allocator@U?$pair@Upoint@@U1@@std@@@1@@Z 10050ad1 f   Utilities.obj
 0001:0004faf0       __unwindfunclet$??0?$_Vector_val@U?$pair@Upoint@@U1@@std@@V?$allocator@U?$pair@Upoint@@U1@@std@@@2@@std@@IAE@V?$allocator@U?$pair@Upoint@@U1@@std@@@1@@Z$0 10050af0 f   Utilities.obj
 0001:0004faf0       __unwindfunclet$??0?$_Vector_val@MV?$allocator@M@std@@@std@@IAE@V?$allocator@M@1@@Z$0 10050af0 f   Utilities.obj
 0001:0004faf0       __unwindfunclet$??0?$_Vector_val@NV?$allocator@N@std@@@std@@IAE@V?$allocator@N@1@@Z$0 10050af0 f   Utilities.obj
 0001:0004faf0       __unwindfunclet$??0?$_Vector_val@Upoint@@V?$allocator@Upoint@@@std@@@std@@IAE@V?$allocator@Upoint@@@1@@Z$0 10050af0 f   Utilities.obj
 0001:0004faf0       __unwindfunclet$??0?$_Vector_val@HV?$allocator@H@std@@@std@@IAE@V?$allocator@H@1@@Z$0 10050af0 f   Utilities.obj
 0001:0004faf0       __unwindfunclet$??0?$_Vector_val@V?$vector@Upoint@@V?$allocator@Upoint@@@std@@@std@@V?$allocator@V?$vector@Upoint@@V?$allocator@Upoint@@@std@@@std@@@2@@std@@IAE@V?$allocator@V?$vector@Upoint@@V?$allocator@Upoint@@@std@@@std@@@1@@Z$0 10050af0 f   Utilities.obj
 0001:0004faf0       __unwindfunclet$??0?$_Vector_val@UPointFloat_struct@@V?$allocator@UPointFloat_struct@@@std@@@std@@IAE@V?$allocator@UPointFloat_struct@@@1@@Z$0 10050af0 f   Utilities.obj
 0001:0004faf8       __ehhandler$??0?$_Vector_val@Upoint@@V?$allocator@Upoint@@@std@@@std@@IAE@V?$allocator@Upoint@@@1@@Z 10050af8 f   Utilities.obj
 0001:0004faf8       __ehhandler$??0?$_Vector_val@U?$pair@Upoint@@U1@@std@@V?$allocator@U?$pair@Upoint@@U1@@std@@@2@@std@@IAE@V?$allocator@U?$pair@Upoint@@U1@@std@@@1@@Z 10050af8 f   Utilities.obj
 0001:0004faf8       __ehhandler$??0?$_Vector_val@NV?$allocator@N@std@@@std@@IAE@V?$allocator@N@1@@Z 10050af8 f   Utilities.obj
 0001:0004faf8       __ehhandler$??0?$_Vector_val@MV?$allocator@M@std@@@std@@IAE@V?$allocator@M@1@@Z 10050af8 f   Utilities.obj
 0001:0004faf8       __ehhandler$??0?$_Vector_val@UPointFloat_struct@@V?$allocator@UPointFloat_struct@@@std@@@std@@IAE@V?$allocator@UPointFloat_struct@@@1@@Z 10050af8 f   Utilities.obj
 0001:0004faf8       __ehhandler$??0?$_Vector_val@HV?$allocator@H@std@@@std@@IAE@V?$allocator@H@1@@Z 10050af8 f   Utilities.obj
 0001:0004faf8       __ehhandler$??0?$_Vector_val@V?$vector@Upoint@@V?$allocator@Upoint@@@std@@@std@@V?$allocator@V?$vector@Upoint@@V?$allocator@Upoint@@@std@@@std@@@2@@std@@IAE@V?$allocator@V?$vector@Upoint@@V?$allocator@Upoint@@@std@@@std@@@1@@Z 10050af8 f   Utilities.obj
 0001:0004fb20       __unwindfunclet$?CalcDiameter@@YAHPAUImage_struct@@PBUDiameterOptions@@PAUDiameterReport@@@Z$0 10050b20 f   Utilities.obj
 0001:0004fb2b       __unwindfunclet$?CalcDiameter@@YAHPAUImage_struct@@PBUDiameterOptions@@PAUDiameterReport@@@Z$1 10050b2b f   Utilities.obj
 0001:0004fb33       __unwindfunclet$?CalcDiameter@@YAHPAUImage_struct@@PBUDiameterOptions@@PAUDiameterReport@@@Z$2 10050b33 f   Utilities.obj
 0001:0004fb3b       __unwindfunclet$?CalcDiameter@@YAHPAUImage_struct@@PBUDiameterOptions@@PAUDiameterReport@@@Z$3 10050b3b f   Utilities.obj
 0001:0004fb43       __unwindfunclet$?CalcDiameter@@YAHPAUImage_struct@@PBUDiameterOptions@@PAUDiameterReport@@@Z$4 10050b43 f   Utilities.obj
 0001:0004fb4e       __ehhandler$?CalcDiameter@@YAHPAUImage_struct@@PBUDiameterOptions@@PAUDiameterReport@@@Z 10050b4e f   Utilities.obj
 0001:0004fb70       __unwindfunclet$??0CBlob@@QAE@XZ$0 10050b70 f   cvblobslib:blob.obj
 0001:0004fb7b       __ehhandler$??0CBlob@@QAE@XZ 10050b7b f   cvblobslib:blob.obj
 0001:0004fb96       __unwindfunclet$??0CBlob@@QAE@IUCvPoint@@UCvSize@@@Z$0 10050b96 f   cvblobslib:blob.obj
 0001:0004fba4       __unwindfunclet$??0CBlob@@QAE@IUCvPoint@@UCvSize@@@Z$1 10050ba4 f   cvblobslib:blob.obj
 0001:0004fbb5       __unwindfunclet$??0CBlob@@QAE@IUCvPoint@@UCvSize@@@Z$2 10050bb5 f   cvblobslib:blob.obj
 0001:0004fbc0       __ehhandler$??0CBlob@@QAE@IUCvPoint@@UCvSize@@@Z 10050bc0 f   cvblobslib:blob.obj
 0001:0004fbde       __unwindfunclet$??0CBlob@@QAE@ABV0@@Z$0 10050bde f   cvblobslib:blob.obj
 0001:0004fbe9       __unwindfunclet$??0CBlob@@QAE@ABV0@@Z$1 10050be9 f   cvblobslib:blob.obj
 0001:0004fbf7       __ehhandler$??0CBlob@@QAE@ABV0@@Z 10050bf7 f   cvblobslib:blob.obj
 0001:0004fc12       __unwindfunclet$??0CBlob@@QAE@PBV0@@Z$0 10050c12 f   cvblobslib:blob.obj
 0001:0004fc1d       __unwindfunclet$??0CBlob@@QAE@PBV0@@Z$1 10050c1d f   cvblobslib:blob.obj
 0001:0004fc2b       __ehhandler$??0CBlob@@QAE@PBV0@@Z 10050c2b f   cvblobslib:blob.obj
 0001:0004fc46       __unwindfunclet$??4CBlob@@QAEAAV0@ABV0@@Z$0 10050c46 f   cvblobslib:blob.obj
 0001:0004fc51       __unwindfunclet$??4CBlob@@QAEAAV0@ABV0@@Z$1 10050c51 f   cvblobslib:blob.obj
 0001:0004fc5c       __unwindfunclet$??4CBlob@@QAEAAV0@ABV0@@Z$2 10050c5c f   cvblobslib:blob.obj
 0001:0004fc67       __ehhandler$??4CBlob@@QAEAAV0@ABV0@@Z 10050c67 f   cvblobslib:blob.obj
 0001:0004fc85       __unwindfunclet$??1CBlob@@QAE@XZ$0 10050c85 f   cvblobslib:blob.obj
 0001:0004fc90       __unwindfunclet$??1CBlob@@QAE@XZ$1 10050c90 f   cvblobslib:blob.obj
 0001:0004fc9e       __ehhandler$??1CBlob@@QAE@XZ 10050c9e f   cvblobslib:blob.obj
 0001:0004fcc0       __unwindfunclet$??0?$list@VCBlobContour@@V?$allocator@VCBlobContour@@@std@@@std@@QAE@XZ$0 10050cc0 f   cvblobslib:blob.obj
 0001:0004fcc8       __ehhandler$??0?$list@VCBlobContour@@V?$allocator@VCBlobContour@@@std@@@std@@QAE@XZ 10050cc8 f   cvblobslib:blob.obj
 0001:0004fcf0       __unwindfunclet$??0?$list@VCBlobContour@@V?$allocator@VCBlobContour@@@std@@@std@@QAE@I@Z$0 10050cf0 f   cvblobslib:blob.obj
 0001:0004fcfb       __unwindfunclet$??0?$list@VCBlobContour@@V?$allocator@VCBlobContour@@@std@@@std@@QAE@I@Z$1 10050cfb f   cvblobslib:blob.obj
 0001:0004fd06       __ehhandler$??0?$list@VCBlobContour@@V?$allocator@VCBlobContour@@@std@@@std@@QAE@I@Z 10050d06 f   cvblobslib:blob.obj
 0001:0004fd30       __unwindfunclet$??1?$list@VCBlobContour@@V?$allocator@VCBlobContour@@@std@@@std@@QAE@XZ$0 10050d30 f   cvblobslib:blob.obj
 0001:0004fd38       __ehhandler$??1?$list@VCBlobContour@@V?$allocator@VCBlobContour@@@std@@@std@@QAE@XZ 10050d38 f   cvblobslib:blob.obj
 0001:0004fd60       __ehhandler$?_Construct_n@?$list@VCBlobContour@@V?$allocator@VCBlobContour@@@std@@@std@@QAEXIABVCBlobContour@@@Z 10050d60 f   cvblobslib:blob.obj
 0001:0004fd80       __ehhandler$?_Buynode@?$list@VCBlobContour@@V?$allocator@VCBlobContour@@@std@@@std@@IAEPAU_Node@?$_List_nod@VCBlobContour@@V?$allocator@VCBlobContour@@@std@@@2@XZ 10050d80 f   cvblobslib:blob.obj
 0001:0004fda0       __ehhandler$?_Buynode@?$list@VCBlobContour@@V?$allocator@VCBlobContour@@@std@@@std@@IAEPAU_Node@?$_List_nod@VCBlobContour@@V?$allocator@VCBlobContour@@@std@@@2@PAU342@0ABVCBlobContour@@@Z 10050da0 f   cvblobslib:blob.obj
 0001:0004fdc0       __ehhandler$?_Insert_n@?$list@VCBlobContour@@V?$allocator@VCBlobContour@@@std@@@std@@IAEXV?$_Const_iterator@$00@12@IABVCBlobContour@@@Z 10050dc0 f   cvblobslib:blob.obj
 0001:0004fde0       __unwindfunclet$?_Incsize@?$list@VCBlobContour@@V?$allocator@VCBlobContour@@@std@@@std@@IAEXI@Z$0 10050de0 f   cvblobslib:blob.obj
 0001:0004fde9       __ehhandler$?_Incsize@?$list@VCBlobContour@@V?$allocator@VCBlobContour@@@std@@@std@@IAEXI@Z 10050de9 f   cvblobslib:blob.obj
 0001:0004fe10       __ehhandler$??$_Insert@V?$_Const_iterator@$00@?$list@VCBlobContour@@V?$allocator@VCBlobContour@@@std@@@std@@@?$list@VCBlobContour@@V?$allocator@VCBlobContour@@@std@@@std@@QAEXV?$_Const_iterator@$00@01@00Uforward_iterator_tag@1@@Z 10050e10 f   cvblobslib:blob.obj
 0001:0004fe30       __unwindfunclet$??0CBlobResult@@QAE@XZ$0 10050e30 f   cvblobslib:BlobResult.obj
 0001:0004fe3b       __unwindfunclet$??0CBlobResult@@QAE@XZ$1 10050e3b f   cvblobslib:BlobResult.obj
 0001:0004fe43       __ehhandler$??0CBlobResult@@QAE@XZ 10050e43 f   cvblobslib:BlobResult.obj
 0001:0004fe5e       __unwindfunclet$??0CBlobResult@@QAE@PAU_IplImage@@0E@Z$2 10050e5e f   cvblobslib:BlobResult.obj
 0001:0004fe69       __ehhandler$??0CBlobResult@@QAE@PAU_IplImage@@0E@Z 10050e69 f   cvblobslib:BlobResult.obj
 0001:0004fe84       __unwindfunclet$??0CBlobResult@@QAE@ABV0@@Z$0 10050e84 f   cvblobslib:BlobResult.obj
 0001:0004fe8f       __unwindfunclet$??0CBlobResult@@QAE@ABV0@@Z$1 10050e8f f   cvblobslib:BlobResult.obj
 0001:0004fe97       __unwindfunclet$??0CBlobResult@@QAE@ABV0@@Z$2 10050e97 f   cvblobslib:BlobResult.obj
 0001:0004fe9f       __unwindfunclet$??0CBlobResult@@QAE@ABV0@@Z$3 10050e9f f   cvblobslib:BlobResult.obj
 0001:0004feaa       __ehhandler$??0CBlobResult@@QAE@ABV0@@Z 10050eaa f   cvblobslib:BlobResult.obj
 0001:0004fec5       __unwindfunclet$??1CBlobResult@@UAE@XZ$0 10050ec5 f   cvblobslib:BlobResult.obj
 0001:0004fed0       __ehhandler$??1CBlobResult@@UAE@XZ 10050ed0 f   cvblobslib:BlobResult.obj
 0001:0004feeb       __unwindfunclet$??4CBlobResult@@QAEAAV0@ABV0@@Z$0 10050eeb f   cvblobslib:BlobResult.obj
 0001:0004fef3       __unwindfunclet$??4CBlobResult@@QAEAAV0@ABV0@@Z$1 10050ef3 f   cvblobslib:BlobResult.obj
 0001:0004fefe       __ehhandler$??4CBlobResult@@QAEAAV0@ABV0@@Z 10050efe f   cvblobslib:BlobResult.obj
 0001:0004ff19       __unwindfunclet$??HCBlobResult@@QBE?AV0@ABV0@@Z$0 10050f19 f   cvblobslib:BlobResult.obj
 0001:0004ff21       __unwindfunclet$??HCBlobResult@@QBE?AV0@ABV0@@Z$1 10050f21 f   cvblobslib:BlobResult.obj
 0001:0004ff2c       __unwindfunclet$??HCBlobResult@@QBE?AV0@ABV0@@Z$2 10050f2c f   cvblobslib:BlobResult.obj
 0001:0004ff45       __ehhandler$??HCBlobResult@@QBE?AV0@ABV0@@Z 10050f45 f   cvblobslib:BlobResult.obj
 0001:0004ff60       __unwindfunclet$?AddBlob@CBlobResult@@QAEXPAVCBlob@@@Z$0 10050f60 f   cvblobslib:BlobResult.obj
 0001:0004ff6b       __ehhandler$?AddBlob@CBlobResult@@QAEXPAVCBlob@@@Z 10050f6b f   cvblobslib:BlobResult.obj
 0001:0004ff86       __unwindfunclet$?GetSTLResult@CBlobResult@@QBE?AV?$vector@NV?$allocator@N@std@@@std@@PAVCOperadorBlob@@@Z$0 10050f86 f   cvblobslib:BlobResult.obj
 0001:0004ff9f       __unwindfunclet$?GetSTLResult@CBlobResult@@QBE?AV?$vector@NV?$allocator@N@std@@@std@@PAVCOperadorBlob@@@Z$1 10050f9f f   cvblobslib:BlobResult.obj
 0001:0004ffa7       __ehhandler$?GetSTLResult@CBlobResult@@QBE?AV?$vector@NV?$allocator@N@std@@@std@@PAVCOperadorBlob@@@Z 10050fa7 f   cvblobslib:BlobResult.obj
 0001:0004ffc2       __unwindfunclet$?DoFilter@CBlobResult@@ABEXAAV1@HPAVCOperadorBlob@@HNN@Z$0 10050fc2 f   cvblobslib:BlobResult.obj
 0001:0004ffca       __unwindfunclet$?DoFilter@CBlobResult@@ABEXAAV1@HPAVCOperadorBlob@@HNN@Z$1 10050fca f   cvblobslib:BlobResult.obj
 0001:0004ffd2       __unwindfunclet$?DoFilter@CBlobResult@@ABEXAAV1@HPAVCOperadorBlob@@HNN@Z$2 10050fd2 f   cvblobslib:BlobResult.obj
 0001:0004ffdd       __unwindfunclet$?DoFilter@CBlobResult@@ABEXAAV1@HPAVCOperadorBlob@@HNN@Z$3 10050fdd f   cvblobslib:BlobResult.obj
 0001:0004ffe8       __unwindfunclet$?DoFilter@CBlobResult@@ABEXAAV1@HPAVCOperadorBlob@@HNN@Z$4 10050fe8 f   cvblobslib:BlobResult.obj
 0001:0004fff6       __unwindfunclet$?DoFilter@CBlobResult@@ABEXAAV1@HPAVCOperadorBlob@@HNN@Z$5 10050ff6 f   cvblobslib:BlobResult.obj
 0001:00050004       __unwindfunclet$?DoFilter@CBlobResult@@ABEXAAV1@HPAVCOperadorBlob@@HNN@Z$6 10051004 f   cvblobslib:BlobResult.obj
 0001:00050012       __unwindfunclet$?DoFilter@CBlobResult@@ABEXAAV1@HPAVCOperadorBlob@@HNN@Z$7 10051012 f   cvblobslib:BlobResult.obj
 0001:00050020       __unwindfunclet$?DoFilter@CBlobResult@@ABEXAAV1@HPAVCOperadorBlob@@HNN@Z$8 10051020 f   cvblobslib:BlobResult.obj
 0001:0005002e       __unwindfunclet$?DoFilter@CBlobResult@@ABEXAAV1@HPAVCOperadorBlob@@HNN@Z$9 1005102e f   cvblobslib:BlobResult.obj
 0001:0005003c       __ehhandler$?DoFilter@CBlobResult@@ABEXAAV1@HPAVCOperadorBlob@@HNN@Z 1005103c f   cvblobslib:BlobResult.obj
 0001:0005005a       __unwindfunclet$?GetNthBlob@CBlobResult@@QBEXPAVCOperadorBlob@@HAAVCBlob@@@Z$0 1005105a f   cvblobslib:BlobResult.obj
 0001:00050065       __unwindfunclet$?GetNthBlob@CBlobResult@@QBEXPAVCOperadorBlob@@HAAVCBlob@@@Z$1 10051065 f   cvblobslib:BlobResult.obj
 0001:0005006d       __unwindfunclet$?GetNthBlob@CBlobResult@@QBEXPAVCOperadorBlob@@HAAVCBlob@@@Z$2 1005106d f   cvblobslib:BlobResult.obj
 0001:00050075       __unwindfunclet$?GetNthBlob@CBlobResult@@QBEXPAVCOperadorBlob@@HAAVCBlob@@@Z$3 10051075 f   cvblobslib:BlobResult.obj
 0001:00050080       __unwindfunclet$?GetNthBlob@CBlobResult@@QBEXPAVCOperadorBlob@@HAAVCBlob@@@Z$4 10051080 f   cvblobslib:BlobResult.obj
 0001:0005008b       __unwindfunclet$?GetNthBlob@CBlobResult@@QBEXPAVCOperadorBlob@@HAAVCBlob@@@Z$5 1005108b f   cvblobslib:BlobResult.obj
 0001:00050096       __ehhandler$?GetNthBlob@CBlobResult@@QBEXPAVCOperadorBlob@@HAAVCBlob@@@Z 10051096 f   cvblobslib:BlobResult.obj
 0001:000500b4       __unwindfunclet$?RaiseError@CBlobResult@@ABEXH@Z$0 100510b4 f   cvblobslib:BlobResult.obj
 0001:000500bd       __unwindfunclet$?RaiseError@CBlobResult@@ABEXH@Z$1 100510bd f   cvblobslib:BlobResult.obj
 0001:000500c6       __ehhandler$?RaiseError@CBlobResult@@ABEXH@Z 100510c6 f   cvblobslib:BlobResult.obj
 0001:000500e1       __unwindfunclet$?PrintBlobs@CBlobResult@@QBEXPAD@Z$0 100510e1 f   cvblobslib:BlobResult.obj
 0001:000500ec       __unwindfunclet$?PrintBlobs@CBlobResult@@QBEXPAD@Z$1 100510ec f   cvblobslib:BlobResult.obj
 0001:000500f4       __unwindfunclet$?PrintBlobs@CBlobResult@@QBEXPAD@Z$2 100510f4 f   cvblobslib:BlobResult.obj
 0001:000500fc       __unwindfunclet$?PrintBlobs@CBlobResult@@QBEXPAD@Z$3 100510fc f   cvblobslib:BlobResult.obj
 0001:00050107       __unwindfunclet$?PrintBlobs@CBlobResult@@QBEXPAD@Z$4 10051107 f   cvblobslib:BlobResult.obj
 0001:0005010f       __unwindfunclet$?PrintBlobs@CBlobResult@@QBEXPAD@Z$5 1005110f f   cvblobslib:BlobResult.obj
 0001:0005011a       __unwindfunclet$?PrintBlobs@CBlobResult@@QBEXPAD@Z$6 1005111a f   cvblobslib:BlobResult.obj
 0001:00050122       __unwindfunclet$?PrintBlobs@CBlobResult@@QBEXPAD@Z$7 10051122 f   cvblobslib:BlobResult.obj
 0001:0005012d       __unwindfunclet$?PrintBlobs@CBlobResult@@QBEXPAD@Z$8 1005112d f   cvblobslib:BlobResult.obj
 0001:00050138       __unwindfunclet$?PrintBlobs@CBlobResult@@QBEXPAD@Z$9 10051138 f   cvblobslib:BlobResult.obj
 0001:00050143       __unwindfunclet$?PrintBlobs@CBlobResult@@QBEXPAD@Z$10 10051143 f   cvblobslib:BlobResult.obj
 0001:0005014e       __unwindfunclet$?PrintBlobs@CBlobResult@@QBEXPAD@Z$11 1005114e f   cvblobslib:BlobResult.obj
 0001:00050159       __unwindfunclet$?PrintBlobs@CBlobResult@@QBEXPAD@Z$12 10051159 f   cvblobslib:BlobResult.obj
 0001:00050164       __unwindfunclet$?PrintBlobs@CBlobResult@@QBEXPAD@Z$13 10051164 f   cvblobslib:BlobResult.obj
 0001:0005016f       __unwindfunclet$?PrintBlobs@CBlobResult@@QBEXPAD@Z$14 1005116f f   cvblobslib:BlobResult.obj
 0001:0005017a       __unwindfunclet$?PrintBlobs@CBlobResult@@QBEXPAD@Z$15 1005117a f   cvblobslib:BlobResult.obj
 0001:00050185       __unwindfunclet$?PrintBlobs@CBlobResult@@QBEXPAD@Z$16 10051185 f   cvblobslib:BlobResult.obj
 0001:00050190       __unwindfunclet$?PrintBlobs@CBlobResult@@QBEXPAD@Z$17 10051190 f   cvblobslib:BlobResult.obj
 0001:0005019b       __unwindfunclet$?PrintBlobs@CBlobResult@@QBEXPAD@Z$18 1005119b f   cvblobslib:BlobResult.obj
 0001:000501a6       __unwindfunclet$?PrintBlobs@CBlobResult@@QBEXPAD@Z$19 100511a6 f   cvblobslib:BlobResult.obj
 0001:000501b1       __unwindfunclet$?PrintBlobs@CBlobResult@@QBEXPAD@Z$20 100511b1 f   cvblobslib:BlobResult.obj
 0001:000501bc       __ehhandler$?PrintBlobs@CBlobResult@@QBEXPAD@Z 100511bc f   cvblobslib:BlobResult.obj
 0001:000501e0       __unwindfunclet$??0?$vector@PAVCBlob@@V?$allocator@PAVCBlob@@@std@@@std@@QAE@XZ$0 100511e0 f   cvblobslib:BlobResult.obj
 0001:000501e8       __ehhandler$??0?$vector@PAVCBlob@@V?$allocator@PAVCBlob@@@std@@@std@@QAE@XZ 100511e8 f   cvblobslib:BlobResult.obj
 0001:00050210       __unwindfunclet$??0?$vector@PAVCBlob@@V?$allocator@PAVCBlob@@@std@@@std@@QAE@I@Z$0 10051210 f   cvblobslib:BlobResult.obj
 0001:00050218       __ehhandler$??0?$vector@PAVCBlob@@V?$allocator@PAVCBlob@@@std@@@std@@QAE@I@Z 10051218 f   cvblobslib:BlobResult.obj
 0001:00050240       __unwindfunclet$??1?$vector@PAVCBlob@@V?$allocator@PAVCBlob@@@std@@@std@@QAE@XZ$0 10051240 f   cvblobslib:BlobResult.obj
 0001:00050248       __ehhandler$??1?$vector@PAVCBlob@@V?$allocator@PAVCBlob@@@std@@@std@@QAE@XZ 10051248 f   cvblobslib:BlobResult.obj
 0001:00050270       __unwindfunclet$??0?$vector@NV?$allocator@N@std@@@std@@QAE@I@Z$0 10051270 f   cvblobslib:BlobResult.obj
 0001:00050278       __ehhandler$??0?$vector@NV?$allocator@N@std@@@std@@QAE@I@Z 10051278 f   cvblobslib:BlobResult.obj
 0001:000502a0       __unwindfunclet$??0?$vector@NV?$allocator@N@std@@@std@@QAE@ABV01@@Z$2 100512a0 f   cvblobslib:BlobResult.obj
 0001:000502a8       __ehhandler$??0?$vector@NV?$allocator@N@std@@@std@@QAE@ABV01@@Z 100512a8 f   cvblobslib:BlobResult.obj
 0001:000502d0       __ehhandler$?_Construct_n@?$vector@PAVCBlob@@V?$allocator@PAVCBlob@@@std@@@std@@QAEXIABQAVCBlob@@@Z 100512d0 f   cvblobslib:BlobResult.obj
 0001:000502f0       __unwindfunclet$??1?$_Container_base_aux_alloc_real@V?$allocator@PAVCBlob@@@std@@@std@@IAE@XZ$0 100512f0 f   cvblobslib:BlobResult.obj
 0001:000502f0       __unwindfunclet$??1?$_Container_base_aux_alloc_real@V?$allocator@VCBlobContour@@@std@@@std@@IAE@XZ$0 100512f0 f   cvblobslib:BlobResult.obj
 0001:000502f8       __ehhandler$??1?$_Container_base_aux_alloc_real@V?$allocator@PAVCBlob@@@std@@@std@@IAE@XZ 100512f8 f   cvblobslib:BlobResult.obj
 0001:000502f8       __ehhandler$??1?$_Container_base_aux_alloc_real@V?$allocator@VCBlobContour@@@std@@@std@@IAE@XZ 100512f8 f   cvblobslib:BlobResult.obj
 0001:00050320       __ehhandler$?_Construct_n@?$vector@NV?$allocator@N@std@@@std@@QAEXIABN@Z 10051320 f   cvblobslib:BlobResult.obj
 0001:00050340       __ehhandler$?_Insert_n@?$vector@PAVCBlob@@V?$allocator@PAVCBlob@@@std@@@std@@IAEXV?$_Vector_const_iterator@PAVCBlob@@V?$allocator@PAVCBlob@@@std@@@2@IABQAVCBlob@@@Z 10051340 f   cvblobslib:BlobResult.obj
 0001:00050360       __unwindfunclet$?_Xlen@?$vector@PAVCBlob@@V?$allocator@PAVCBlob@@@std@@@std@@KAXXZ$0 10051360 f   cvblobslib:BlobResult.obj
 0001:00050369       __ehhandler$?_Xlen@?$vector@PAVCBlob@@V?$allocator@PAVCBlob@@@std@@@std@@KAXXZ 10051369 f   cvblobslib:BlobResult.obj
 0001:00050390       __unwindfunclet$??0?$_Container_base_aux_alloc_real@V?$allocator@VCBlobContour@@@std@@@std@@IAE@V?$allocator@VCBlobContour@@@1@@Z$0 10051390 f   cvblobslib:BlobResult.obj
 0001:00050390       __unwindfunclet$??0?$_Container_base_aux_alloc_real@V?$allocator@PAVCBlob@@@std@@@std@@IAE@V?$allocator@PAVCBlob@@@1@@Z$0 10051390 f   cvblobslib:BlobResult.obj
 0001:00050398       __unwindfunclet$??0?$_Container_base_aux_alloc_real@V?$allocator@PAVCBlob@@@std@@@std@@IAE@V?$allocator@PAVCBlob@@@1@@Z$1 10051398 f   cvblobslib:BlobResult.obj
 0001:00050398       __unwindfunclet$??0?$_Container_base_aux_alloc_real@V?$allocator@VCBlobContour@@@std@@@std@@IAE@V?$allocator@VCBlobContour@@@1@@Z$1 10051398 f   cvblobslib:BlobResult.obj
 0001:000503a9       __ehhandler$??0?$_Container_base_aux_alloc_real@V?$allocator@VCBlobContour@@@std@@@std@@IAE@V?$allocator@VCBlobContour@@@1@@Z 100513a9 f   cvblobslib:BlobResult.obj
 0001:000503a9       __ehhandler$??0?$_Container_base_aux_alloc_real@V?$allocator@PAVCBlob@@@std@@@std@@IAE@V?$allocator@PAVCBlob@@@1@@Z 100513a9 f   cvblobslib:BlobResult.obj
 0001:000503d0       __unwindfunclet$?ComponentLabeling@@YA_NPAU_IplImage@@0EAAV?$vector@PAVCBlob@@V?$allocator@PAVCBlob@@@std@@@std@@@Z$0 100513d0 f   cvblobslib:ComponentLabeling.obj
 0001:000503de       __unwindfunclet$?ComponentLabeling@@YA_NPAU_IplImage@@0EAAV?$vector@PAVCBlob@@V?$allocator@PAVCBlob@@@std@@@std@@@Z$1 100513de f   cvblobslib:ComponentLabeling.obj
 0001:000503e9       __ehhandler$?ComponentLabeling@@YA_NPAU_IplImage@@0EAAV?$vector@PAVCBlob@@V?$allocator@PAVCBlob@@@std@@@std@@@Z 100513e9 f   cvblobslib:ComponentLabeling.obj
 0001:00050410       __unwindfunclet$??RCBlobGetRoughness@@UAENAAVCBlob@@@Z$0 10051410 f   cvblobslib:BlobOperators.obj
 0001:00050418       __ehhandler$??RCBlobGetRoughness@@UAENAAVCBlob@@@Z 10051418 f   cvblobslib:BlobOperators.obj
 0001:00050433       __unwindfunclet$??RCBlobGetDistanceFromPoint@@UAENAAVCBlob@@@Z$0 10051433 f   cvblobslib:BlobOperators.obj
 0001:0005043b       __unwindfunclet$??RCBlobGetDistanceFromPoint@@UAENAAVCBlob@@@Z$1 1005143b f   cvblobslib:BlobOperators.obj
 0001:00050443       __ehhandler$??RCBlobGetDistanceFromPoint@@UAENAAVCBlob@@@Z 10051443 f   cvblobslib:BlobOperators.obj
 0001:00050460       __unwindfunclet$?formatMessage@Exception@cv@@QAEXXZ$0 10051460 f   cxcore210:cxarray.obj
 0001:00050469       __unwindfunclet$?formatMessage@Exception@cv@@QAEXXZ$1 10051469 f   cxcore210:cxarray.obj
 0001:00050472       __ehhandler$?formatMessage@Exception@cv@@QAEXXZ 10051472 f   cxcore210:cxarray.obj
 0001:00050490       __unwindfunclet$??0Exception@cv@@QAE@HABV?$basic_string@DU?$char_traits@D@std@@V?$allocator@D@2@@std@@00H@Z$0 10051490 f   cxcore210:cxarray.obj
 0001:00050499       __unwindfunclet$??0Exception@cv@@QAE@HABV?$basic_string@DU?$char_traits@D@std@@V?$allocator@D@2@@std@@00H@Z$1 10051499 f   cxcore210:cxarray.obj
 0001:000504a5       __unwindfunclet$??0Exception@cv@@QAE@HABV?$basic_string@DU?$char_traits@D@std@@V?$allocator@D@2@@std@@00H@Z$2 100514a5 f   cxcore210:cxarray.obj
 0001:000504b1       __unwindfunclet$??0Exception@cv@@QAE@HABV?$basic_string@DU?$char_traits@D@std@@V?$allocator@D@2@@std@@00H@Z$3 100514b1 f   cxcore210:cxarray.obj
 0001:000504bd       __unwindfunclet$??0Exception@cv@@QAE@HABV?$basic_string@DU?$char_traits@D@std@@V?$allocator@D@2@@std@@00H@Z$4 100514bd f   cxcore210:cxarray.obj
 0001:000504c9       __ehhandler$??0Exception@cv@@QAE@HABV?$basic_string@DU?$char_traits@D@std@@V?$allocator@D@2@@std@@00H@Z 100514c9 f   cxcore210:cxarray.obj
 0001:000504f0       __unwindfunclet$_cvCreateData$0 100514f0 f   cxcore210:cxarray.obj
 0001:000504fc       __unwindfunclet$_cvCreateData$1 100514fc f   cxcore210:cxarray.obj
 0001:00050508       __unwindfunclet$_cvCreateData$2 10051508 f   cxcore210:cxarray.obj
 0001:00050514       __unwindfunclet$_cvCreateData$3 10051514 f   cxcore210:cxarray.obj
 0001:0005051f       __unwindfunclet$_cvCreateData$4 1005151f f   cxcore210:cxarray.obj
 0001:0005052b       __unwindfunclet$_cvCreateData$5 1005152b f   cxcore210:cxarray.obj
 0001:00050537       __unwindfunclet$_cvCreateData$6 10051537 f   cxcore210:cxarray.obj
 0001:00050543       __unwindfunclet$_cvCreateData$7 10051543 f   cxcore210:cxarray.obj
 0001:0005054e       __unwindfunclet$_cvCreateData$8 1005154e f   cxcore210:cxarray.obj
 0001:0005055a       __unwindfunclet$_cvCreateData$9 1005155a f   cxcore210:cxarray.obj
 0001:00050566       __unwindfunclet$_cvCreateData$10 10051566 f   cxcore210:cxarray.obj
 0001:00050572       __unwindfunclet$_cvCreateData$11 10051572 f   cxcore210:cxarray.obj
 0001:0005057d       __unwindfunclet$_cvCreateData$12 1005157d f   cxcore210:cxarray.obj
 0001:00050589       __unwindfunclet$_cvCreateData$13 10051589 f   cxcore210:cxarray.obj
 0001:00050595       __unwindfunclet$_cvCreateData$14 10051595 f   cxcore210:cxarray.obj
 0001:000505a1       __unwindfunclet$_cvCreateData$15 100515a1 f   cxcore210:cxarray.obj
 0001:000505ac       __unwindfunclet$_cvCreateData$16 100515ac f   cxcore210:cxarray.obj
 0001:000505b8       __unwindfunclet$_cvCreateData$17 100515b8 f   cxcore210:cxarray.obj
 0001:000505c4       __unwindfunclet$_cvCreateData$18 100515c4 f   cxcore210:cxarray.obj
 0001:000505d0       __unwindfunclet$_cvCreateData$19 100515d0 f   cxcore210:cxarray.obj
 0001:000505db       __ehhandler$_cvCreateData  100515db f   cxcore210:cxarray.obj
 0001:00050600       __unwindfunclet$_cvGetMat$0 10051600 f   cxcore210:cxarray.obj
 0001:0005060c       __unwindfunclet$_cvGetMat$1 1005160c f   cxcore210:cxarray.obj
 0001:00050618       __unwindfunclet$_cvGetMat$2 10051618 f   cxcore210:cxarray.obj
 0001:00050624       __unwindfunclet$_cvGetMat$3 10051624 f   cxcore210:cxarray.obj
 0001:0005062f       __unwindfunclet$_cvGetMat$4 1005162f f   cxcore210:cxarray.obj
 0001:0005063b       __unwindfunclet$_cvGetMat$5 1005163b f   cxcore210:cxarray.obj
 0001:00050647       __unwindfunclet$_cvGetMat$6 10051647 f   cxcore210:cxarray.obj
 0001:00050653       __unwindfunclet$_cvGetMat$7 10051653 f   cxcore210:cxarray.obj
 0001:0005065e       __unwindfunclet$_cvGetMat$8 1005165e f   cxcore210:cxarray.obj
 0001:0005066a       __unwindfunclet$_cvGetMat$9 1005166a f   cxcore210:cxarray.obj
 0001:00050676       __unwindfunclet$_cvGetMat$10 10051676 f   cxcore210:cxarray.obj
 0001:00050682       __unwindfunclet$_cvGetMat$11 10051682 f   cxcore210:cxarray.obj
 0001:0005068d       __unwindfunclet$_cvGetMat$12 1005168d f   cxcore210:cxarray.obj
 0001:00050699       __unwindfunclet$_cvGetMat$13 10051699 f   cxcore210:cxarray.obj
 0001:000506a5       __unwindfunclet$_cvGetMat$14 100516a5 f   cxcore210:cxarray.obj
 0001:000506b1       __unwindfunclet$_cvGetMat$15 100516b1 f   cxcore210:cxarray.obj
 0001:000506bc       __unwindfunclet$_cvGetMat$16 100516bc f   cxcore210:cxarray.obj
 0001:000506c8       __unwindfunclet$_cvGetMat$17 100516c8 f   cxcore210:cxarray.obj
 0001:000506d4       __unwindfunclet$_cvGetMat$18 100516d4 f   cxcore210:cxarray.obj
 0001:000506e0       __unwindfunclet$_cvGetMat$19 100516e0 f   cxcore210:cxarray.obj
 0001:000506eb       __unwindfunclet$_cvGetMat$20 100516eb f   cxcore210:cxarray.obj
 0001:000506f7       __unwindfunclet$_cvGetMat$21 100516f7 f   cxcore210:cxarray.obj
 0001:00050703       __unwindfunclet$_cvGetMat$22 10051703 f   cxcore210:cxarray.obj
 0001:0005070f       __unwindfunclet$_cvGetMat$23 1005170f f   cxcore210:cxarray.obj
 0001:0005071a       __unwindfunclet$_cvGetMat$24 1005171a f   cxcore210:cxarray.obj
 0001:00050726       __unwindfunclet$_cvGetMat$25 10051726 f   cxcore210:cxarray.obj
 0001:00050732       __unwindfunclet$_cvGetMat$26 10051732 f   cxcore210:cxarray.obj
 0001:0005073e       __unwindfunclet$_cvGetMat$27 1005173e f   cxcore210:cxarray.obj
 0001:00050749       __unwindfunclet$_cvGetMat$28 10051749 f   cxcore210:cxarray.obj
 0001:00050755       __unwindfunclet$_cvGetMat$29 10051755 f   cxcore210:cxarray.obj
 0001:00050761       __unwindfunclet$_cvGetMat$30 10051761 f   cxcore210:cxarray.obj
 0001:0005076d       __unwindfunclet$_cvGetMat$31 1005176d f   cxcore210:cxarray.obj
 0001:00050778       __unwindfunclet$_cvGetMat$32 10051778 f   cxcore210:cxarray.obj
 0001:00050784       __unwindfunclet$_cvGetMat$33 10051784 f   cxcore210:cxarray.obj
 0001:00050790       __unwindfunclet$_cvGetMat$34 10051790 f   cxcore210:cxarray.obj
 0001:0005079c       __unwindfunclet$_cvGetMat$35 1005179c f   cxcore210:cxarray.obj
 0001:000507a7       __unwindfunclet$_cvGetMat$36 100517a7 f   cxcore210:cxarray.obj
 0001:000507b3       __unwindfunclet$_cvGetMat$37 100517b3 f   cxcore210:cxarray.obj
 0001:000507bf       __unwindfunclet$_cvGetMat$38 100517bf f   cxcore210:cxarray.obj
 0001:000507cb       __unwindfunclet$_cvGetMat$39 100517cb f   cxcore210:cxarray.obj
 0001:000507d6       __ehhandler$_cvGetMat      100517d6 f   cxcore210:cxarray.obj
 0001:00050800       __unwindfunclet$_cvInitImageHeader$0 10051800 f   cxcore210:cxarray.obj
 0001:0005080c       __unwindfunclet$_cvInitImageHeader$1 1005180c f   cxcore210:cxarray.obj
 0001:00050818       __unwindfunclet$_cvInitImageHeader$2 10051818 f   cxcore210:cxarray.obj
 0001:00050824       __unwindfunclet$_cvInitImageHeader$3 10051824 f   cxcore210:cxarray.obj
 0001:0005082f       __unwindfunclet$_cvInitImageHeader$4 1005182f f   cxcore210:cxarray.obj
 0001:0005083b       __unwindfunclet$_cvInitImageHeader$5 1005183b f   cxcore210:cxarray.obj
 0001:00050847       __unwindfunclet$_cvInitImageHeader$6 10051847 f   cxcore210:cxarray.obj
 0001:00050853       __unwindfunclet$_cvInitImageHeader$7 10051853 f   cxcore210:cxarray.obj
 0001:0005085e       __unwindfunclet$_cvInitImageHeader$8 1005185e f   cxcore210:cxarray.obj
 0001:0005086a       __unwindfunclet$_cvInitImageHeader$9 1005186a f   cxcore210:cxarray.obj
 0001:00050876       __unwindfunclet$_cvInitImageHeader$10 10051876 f   cxcore210:cxarray.obj
 0001:00050882       __unwindfunclet$_cvInitImageHeader$11 10051882 f   cxcore210:cxarray.obj
 0001:0005088d       __unwindfunclet$_cvInitImageHeader$12 1005188d f   cxcore210:cxarray.obj
 0001:00050899       __unwindfunclet$_cvInitImageHeader$13 10051899 f   cxcore210:cxarray.obj
 0001:000508a5       __unwindfunclet$_cvInitImageHeader$14 100518a5 f   cxcore210:cxarray.obj
 0001:000508b1       __unwindfunclet$_cvInitImageHeader$15 100518b1 f   cxcore210:cxarray.obj
 0001:000508bc       __unwindfunclet$_cvInitImageHeader$16 100518bc f   cxcore210:cxarray.obj
 0001:000508c8       __unwindfunclet$_cvInitImageHeader$17 100518c8 f   cxcore210:cxarray.obj
 0001:000508d4       __unwindfunclet$_cvInitImageHeader$18 100518d4 f   cxcore210:cxarray.obj
 0001:000508e0       __unwindfunclet$_cvInitImageHeader$19 100518e0 f   cxcore210:cxarray.obj
 0001:000508eb       __ehhandler$_cvInitImageHeader 100518eb f   cxcore210:cxarray.obj
 0001:00050910       __unwindfunclet$_cvCreateSeqBlock$0 10051910 f   cxcore210:cxarray.obj
 0001:00050910       __unwindfunclet$_cvResetImageROI$0 10051910 f   cxcore210:cxarray.obj
 0001:00050910       __unwindfunclet$_cvStartAppendToSeq$0 10051910 f   cxcore210:cxarray.obj
 0001:00050910       __unwindfunclet$_cvStartWriteSeq$0 10051910 f   cxcore210:cxarray.obj
 0001:00050910       __unwindfunclet$_cvReleaseImage$0 10051910 f   cxcore210:cxarray.obj
 0001:00050910       __unwindfunclet$_cvReleaseMemStorage$0 10051910 f   cxcore210:cxarray.obj
 0001:00050910       __unwindfunclet$_cvReleaseImageHeader$0 10051910 f   cxcore210:cxarray.obj
 0001:00050910       __unwindfunclet$_cvSaveMemStoragePos$0 10051910 f   cxcore210:cxarray.obj
 0001:0005091c       __unwindfunclet$_cvStartAppendToSeq$1 1005191c f   cxcore210:cxarray.obj
 0001:0005091c       __unwindfunclet$_cvSaveMemStoragePos$1 1005191c f   cxcore210:cxarray.obj
 0001:0005091c       __unwindfunclet$_cvReleaseImage$1 1005191c f   cxcore210:cxarray.obj
 0001:0005091c       __unwindfunclet$_cvReleaseMemStorage$1 1005191c f   cxcore210:cxarray.obj
 0001:0005091c       __unwindfunclet$_cvResetImageROI$1 1005191c f   cxcore210:cxarray.obj
 0001:0005091c       __unwindfunclet$_cvCreateSeqBlock$1 1005191c f   cxcore210:cxarray.obj
 0001:0005091c       __unwindfunclet$_cvStartWriteSeq$1 1005191c f   cxcore210:cxarray.obj
 0001:0005091c       __unwindfunclet$_cvReleaseImageHeader$1 1005191c f   cxcore210:cxarray.obj
 0001:00050928       __unwindfunclet$_cvStartWriteSeq$2 10051928 f   cxcore210:cxarray.obj
 0001:00050928       __unwindfunclet$_cvSaveMemStoragePos$2 10051928 f   cxcore210:cxarray.obj
 0001:00050928       __unwindfunclet$_cvReleaseImage$2 10051928 f   cxcore210:cxarray.obj
 0001:00050928       __unwindfunclet$_cvResetImageROI$2 10051928 f   cxcore210:cxarray.obj
 0001:00050928       __unwindfunclet$_cvReleaseImageHeader$2 10051928 f   cxcore210:cxarray.obj
 0001:00050928       __unwindfunclet$_cvStartAppendToSeq$2 10051928 f   cxcore210:cxarray.obj
 0001:00050928       __unwindfunclet$_cvReleaseMemStorage$2 10051928 f   cxcore210:cxarray.obj
 0001:00050928       __unwindfunclet$_cvCreateSeqBlock$2 10051928 f   cxcore210:cxarray.obj
 0001:00050934       __unwindfunclet$_cvCreateSeqBlock$3 10051934 f   cxcore210:cxarray.obj
 0001:00050934       __unwindfunclet$_cvStartWriteSeq$3 10051934 f   cxcore210:cxarray.obj
 0001:00050934       __unwindfunclet$_cvSaveMemStoragePos$3 10051934 f   cxcore210:cxarray.obj
 0001:00050934       __unwindfunclet$_cvReleaseImage$3 10051934 f   cxcore210:cxarray.obj
 0001:00050934       __unwindfunclet$_cvReleaseImageHeader$3 10051934 f   cxcore210:cxarray.obj
 0001:00050934       __unwindfunclet$_cvResetImageROI$3 10051934 f   cxcore210:cxarray.obj
 0001:00050934       __unwindfunclet$_cvStartAppendToSeq$3 10051934 f   cxcore210:cxarray.obj
 0001:00050934       __unwindfunclet$_cvReleaseMemStorage$3 10051934 f   cxcore210:cxarray.obj
 0001:0005093f       __ehhandler$_cvResetImageROI 1005193f f   cxcore210:cxarray.obj
 0001:0005093f       __ehhandler$_cvStartAppendToSeq 1005193f f   cxcore210:cxarray.obj
 0001:0005093f       __ehhandler$_cvCreateSeqBlock 1005193f f   cxcore210:cxarray.obj
 0001:0005093f       __ehhandler$_cvReleaseMemStorage 1005193f f   cxcore210:cxarray.obj
 0001:0005093f       __ehhandler$_cvReleaseImage 1005193f f   cxcore210:cxarray.obj
 0001:0005093f       __ehhandler$_cvStartWriteSeq 1005193f f   cxcore210:cxarray.obj
 0001:0005093f       __ehhandler$_cvReleaseImageHeader 1005193f f   cxcore210:cxarray.obj
 0001:0005093f       __ehhandler$_cvSaveMemStoragePos 1005193f f   cxcore210:cxarray.obj
 0001:00050960       __unwindfunclet$_cvSetImageROI$0 10051960 f   cxcore210:cxarray.obj
 0001:0005096c       __unwindfunclet$_cvSetImageROI$1 1005196c f   cxcore210:cxarray.obj
 0001:00050978       __unwindfunclet$_cvSetImageROI$2 10051978 f   cxcore210:cxarray.obj
 0001:00050984       __unwindfunclet$_cvSetImageROI$3 10051984 f   cxcore210:cxarray.obj
 0001:0005098f       __unwindfunclet$_cvSetImageROI$4 1005198f f   cxcore210:cxarray.obj
 0001:0005099b       __unwindfunclet$_cvSetImageROI$5 1005199b f   cxcore210:cxarray.obj
 0001:000509a7       __unwindfunclet$_cvSetImageROI$6 100519a7 f   cxcore210:cxarray.obj
 0001:000509b3       __unwindfunclet$_cvSetImageROI$7 100519b3 f   cxcore210:cxarray.obj
 0001:000509be       __ehhandler$_cvSetImageROI 100519be f   cxcore210:cxarray.obj
 0001:000509e0       __unwindfunclet$_cvSetSeqBlockSize$0 100519e0 f   cxcore210:cxdatastructs.obj
 0001:000509e0       __unwindfunclet$_cvCreateSeq$0 100519e0 f   cxcore210:cxdatastructs.obj
 0001:000509e0       __unwindfunclet$_cvSetSeqReaderPos$0 100519e0 f   cxcore210:cxdatastructs.obj
 0001:000509e0       __unwindfunclet$_cvMakeSeqHeaderForArray$0 100519e0 f   cxcore210:cxdatastructs.obj
 0001:000509ec       __unwindfunclet$_cvSetSeqBlockSize$1 100519ec f   cxcore210:cxdatastructs.obj
 0001:000509ec       __unwindfunclet$_cvMakeSeqHeaderForArray$1 100519ec f   cxcore210:cxdatastructs.obj
 0001:000509ec       __unwindfunclet$_cvSetSeqReaderPos$1 100519ec f   cxcore210:cxdatastructs.obj
 0001:000509ec       __unwindfunclet$_cvCreateSeq$1 100519ec f   cxcore210:cxdatastructs.obj
 0001:000509f8       __unwindfunclet$_cvCreateSeq$2 100519f8 f   cxcore210:cxdatastructs.obj
 0001:000509f8       __unwindfunclet$_cvSetSeqBlockSize$2 100519f8 f   cxcore210:cxdatastructs.obj
 0001:000509f8       __unwindfunclet$_cvSetSeqReaderPos$2 100519f8 f   cxcore210:cxdatastructs.obj
 0001:000509f8       __unwindfunclet$_cvMakeSeqHeaderForArray$2 100519f8 f   cxcore210:cxdatastructs.obj
 0001:00050a04       __unwindfunclet$_cvCreateSeq$3 10051a04 f   cxcore210:cxdatastructs.obj
 0001:00050a04       __unwindfunclet$_cvSetSeqReaderPos$3 10051a04 f   cxcore210:cxdatastructs.obj
 0001:00050a04       __unwindfunclet$_cvSetSeqBlockSize$3 10051a04 f   cxcore210:cxdatastructs.obj
 0001:00050a04       __unwindfunclet$_cvMakeSeqHeaderForArray$3 10051a04 f   cxcore210:cxdatastructs.obj
 0001:00050a0f       __unwindfunclet$_cvSetSeqBlockSize$4 10051a0f f   cxcore210:cxdatastructs.obj
 0001:00050a0f       __unwindfunclet$_cvCreateSeq$4 10051a0f f   cxcore210:cxdatastructs.obj
 0001:00050a0f       __unwindfunclet$_cvSetSeqReaderPos$4 10051a0f f   cxcore210:cxdatastructs.obj
 0001:00050a0f       __unwindfunclet$_cvMakeSeqHeaderForArray$4 10051a0f f   cxcore210:cxdatastructs.obj
 0001:00050a1b       __unwindfunclet$_cvMakeSeqHeaderForArray$5 10051a1b f   cxcore210:cxdatastructs.obj
 0001:00050a1b       __unwindfunclet$_cvCreateSeq$5 10051a1b f   cxcore210:cxdatastructs.obj
 0001:00050a1b       __unwindfunclet$_cvSetSeqReaderPos$5 10051a1b f   cxcore210:cxdatastructs.obj
 0001:00050a1b       __unwindfunclet$_cvSetSeqBlockSize$5 10051a1b f   cxcore210:cxdatastructs.obj
 0001:00050a27       __unwindfunclet$_cvCreateSeq$6 10051a27 f   cxcore210:cxdatastructs.obj
 0001:00050a27       __unwindfunclet$_cvMakeSeqHeaderForArray$6 10051a27 f   cxcore210:cxdatastructs.obj
 0001:00050a27       __unwindfunclet$_cvSetSeqBlockSize$6 10051a27 f   cxcore210:cxdatastructs.obj
 0001:00050a27       __unwindfunclet$_cvSetSeqReaderPos$6 10051a27 f   cxcore210:cxdatastructs.obj
 0001:00050a33       __unwindfunclet$_cvMakeSeqHeaderForArray$7 10051a33 f   cxcore210:cxdatastructs.obj
 0001:00050a33       __unwindfunclet$_cvCreateSeq$7 10051a33 f   cxcore210:cxdatastructs.obj
 0001:00050a33       __unwindfunclet$_cvSetSeqReaderPos$7 10051a33 f   cxcore210:cxdatastructs.obj
 0001:00050a33       __unwindfunclet$_cvSetSeqBlockSize$7 10051a33 f   cxcore210:cxdatastructs.obj
 0001:00050a3e       __unwindfunclet$_cvSetSeqReaderPos$8 10051a3e f   cxcore210:cxdatastructs.obj
 0001:00050a3e       __unwindfunclet$_cvMakeSeqHeaderForArray$8 10051a3e f   cxcore210:cxdatastructs.obj
 0001:00050a3e       __unwindfunclet$_cvCreateSeq$8 10051a3e f   cxcore210:cxdatastructs.obj
 0001:00050a3e       __unwindfunclet$_cvSetSeqBlockSize$8 10051a3e f   cxcore210:cxdatastructs.obj
 0001:00050a4a       __unwindfunclet$_cvSetSeqBlockSize$9 10051a4a f   cxcore210:cxdatastructs.obj
 0001:00050a4a       __unwindfunclet$_cvCreateSeq$9 10051a4a f   cxcore210:cxdatastructs.obj
 0001:00050a4a       __unwindfunclet$_cvSetSeqReaderPos$9 10051a4a f   cxcore210:cxdatastructs.obj
 0001:00050a4a       __unwindfunclet$_cvMakeSeqHeaderForArray$9 10051a4a f   cxcore210:cxdatastructs.obj
 0001:00050a56       __unwindfunclet$_cvMakeSeqHeaderForArray$10 10051a56 f   cxcore210:cxdatastructs.obj
 0001:00050a56       __unwindfunclet$_cvSetSeqBlockSize$10 10051a56 f   cxcore210:cxdatastructs.obj
 0001:00050a56       __unwindfunclet$_cvCreateSeq$10 10051a56 f   cxcore210:cxdatastructs.obj
 0001:00050a56       __unwindfunclet$_cvSetSeqReaderPos$10 10051a56 f   cxcore210:cxdatastructs.obj
 0001:00050a62       __unwindfunclet$_cvCreateSeq$11 10051a62 f   cxcore210:cxdatastructs.obj
 0001:00050a62       __unwindfunclet$_cvSetSeqBlockSize$11 10051a62 f   cxcore210:cxdatastructs.obj
 0001:00050a62       __unwindfunclet$_cvMakeSeqHeaderForArray$11 10051a62 f   cxcore210:cxdatastructs.obj
 0001:00050a62       __unwindfunclet$_cvSetSeqReaderPos$11 10051a62 f   cxcore210:cxdatastructs.obj
 0001:00050a6d       __ehhandler$_cvMakeSeqHeaderForArray 10051a6d f   cxcore210:cxdatastructs.obj
 0001:00050a6d       __ehhandler$_cvSetSeqReaderPos 10051a6d f   cxcore210:cxdatastructs.obj
 0001:00050a6d       __ehhandler$_cvSetSeqBlockSize 10051a6d f   cxcore210:cxdatastructs.obj
 0001:00050a6d       __ehhandler$_cvCreateSeq   10051a6d f   cxcore210:cxdatastructs.obj
 0001:00050a90       __unwindfunclet$_cvClearSeq$0 10051a90 f   cxcore210:cxdatastructs.obj
 0001:00050a90       __unwindfunclet$_cvGetImageCOI$0 10051a90 f   cxcore210:cxdatastructs.obj
 0001:00050a90       __unwindfunclet$_cvChangeSeqBlock$0 10051a90 f   cxcore210:cxdatastructs.obj
 0001:00050a90       __unwindfunclet$_cvReleaseData$0 10051a90 f   cxcore210:cxdatastructs.obj
 0001:00050a90       __unwindfunclet$?icvInitMemStorage@@YAXPAUCvMemStorage@@H@Z$0 10051a90 f   cxcore210:cxdatastructs.obj
 0001:00050a9c       __unwindfunclet$_cvClearSeq$1 10051a9c f   cxcore210:cxdatastructs.obj
 0001:00050a9c       __unwindfunclet$_cvChangeSeqBlock$1 10051a9c f   cxcore210:cxdatastructs.obj
 0001:00050a9c       __unwindfunclet$_cvGetImageCOI$1 10051a9c f   cxcore210:cxdatastructs.obj
 0001:00050a9c       __unwindfunclet$_cvReleaseData$1 10051a9c f   cxcore210:cxdatastructs.obj
 0001:00050a9c       __unwindfunclet$?icvInitMemStorage@@YAXPAUCvMemStorage@@H@Z$1 10051a9c f   cxcore210:cxdatastructs.obj
 0001:00050aa8       __unwindfunclet$_cvReleaseData$2 10051aa8 f   cxcore210:cxdatastructs.obj
 0001:00050aa8       __unwindfunclet$_cvClearSeq$2 10051aa8 f   cxcore210:cxdatastructs.obj
 0001:00050aa8       __unwindfunclet$_cvGetImageCOI$2 10051aa8 f   cxcore210:cxdatastructs.obj
 0001:00050aa8       __unwindfunclet$_cvChangeSeqBlock$2 10051aa8 f   cxcore210:cxdatastructs.obj
 0001:00050aa8       __unwindfunclet$?icvInitMemStorage@@YAXPAUCvMemStorage@@H@Z$2 10051aa8 f   cxcore210:cxdatastructs.obj
 0001:00050ab4       __unwindfunclet$_cvGetImageCOI$3 10051ab4 f   cxcore210:cxdatastructs.obj
 0001:00050ab4       __unwindfunclet$?icvInitMemStorage@@YAXPAUCvMemStorage@@H@Z$3 10051ab4 f   cxcore210:cxdatastructs.obj
 0001:00050ab4       __unwindfunclet$_cvChangeSeqBlock$3 10051ab4 f   cxcore210:cxdatastructs.obj
 0001:00050ab4       __unwindfunclet$_cvClearSeq$3 10051ab4 f   cxcore210:cxdatastructs.obj
 0001:00050ab4       __unwindfunclet$_cvReleaseData$3 10051ab4 f   cxcore210:cxdatastructs.obj
 0001:00050abf       __ehhandler$_cvChangeSeqBlock 10051abf f   cxcore210:cxdatastructs.obj
 0001:00050abf       __ehhandler$_cvGetImageCOI 10051abf f   cxcore210:cxdatastructs.obj
 0001:00050abf       __ehhandler$_cvClearSeq    10051abf f   cxcore210:cxdatastructs.obj
 0001:00050abf       __ehhandler$?icvInitMemStorage@@YAXPAUCvMemStorage@@H@Z 10051abf f   cxcore210:cxdatastructs.obj
 0001:00050abf       __ehhandler$_cvReleaseData 10051abf f   cxcore210:cxdatastructs.obj
 0001:00050ae0       __unwindfunclet$_cvRestoreMemStoragePos$0 10051ae0 f   cxcore210:cxdatastructs.obj
 0001:00050ae0       __unwindfunclet$_cvInitTreeNodeIterator$0 10051ae0 f   cxcore210:cxdatastructs.obj
 0001:00050aec       __unwindfunclet$_cvRestoreMemStoragePos$1 10051aec f   cxcore210:cxdatastructs.obj
 0001:00050aec       __unwindfunclet$_cvInitTreeNodeIterator$1 10051aec f   cxcore210:cxdatastructs.obj
 0001:00050af8       __unwindfunclet$_cvRestoreMemStoragePos$2 10051af8 f   cxcore210:cxdatastructs.obj
 0001:00050af8       __unwindfunclet$_cvInitTreeNodeIterator$2 10051af8 f   cxcore210:cxdatastructs.obj
 0001:00050b04       __unwindfunclet$_cvRestoreMemStoragePos$3 10051b04 f   cxcore210:cxdatastructs.obj
 0001:00050b04       __unwindfunclet$_cvInitTreeNodeIterator$3 10051b04 f   cxcore210:cxdatastructs.obj
 0001:00050b0f       __unwindfunclet$_cvRestoreMemStoragePos$4 10051b0f f   cxcore210:cxdatastructs.obj
 0001:00050b0f       __unwindfunclet$_cvInitTreeNodeIterator$4 10051b0f f   cxcore210:cxdatastructs.obj
 0001:00050b1b       __unwindfunclet$_cvInitTreeNodeIterator$5 10051b1b f   cxcore210:cxdatastructs.obj
 0001:00050b1b       __unwindfunclet$_cvRestoreMemStoragePos$5 10051b1b f   cxcore210:cxdatastructs.obj
 0001:00050b27       __unwindfunclet$_cvRestoreMemStoragePos$6 10051b27 f   cxcore210:cxdatastructs.obj
 0001:00050b27       __unwindfunclet$_cvInitTreeNodeIterator$6 10051b27 f   cxcore210:cxdatastructs.obj
 0001:00050b33       __unwindfunclet$_cvInitTreeNodeIterator$7 10051b33 f   cxcore210:cxdatastructs.obj
 0001:00050b33       __unwindfunclet$_cvRestoreMemStoragePos$7 10051b33 f   cxcore210:cxdatastructs.obj
 0001:00050b3e       __ehhandler$_cvRestoreMemStoragePos 10051b3e f   cxcore210:cxdatastructs.obj
 0001:00050b3e       __ehhandler$_cvInitTreeNodeIterator 10051b3e f   cxcore210:cxdatastructs.obj
 0001:00050b60       __unwindfunclet$_cvStartReadSeq$0 10051b60 f   cxcore210:cxdatastructs.obj
 0001:00050b60       __unwindfunclet$?divide@cv@@YAXNABVMat@1@AAV21@@Z$0 10051b60 f   cxcore210:cxdatastructs.obj
 0001:00050b60       __unwindfunclet$_cvNextTreeNode$0 10051b60 f   cxcore210:cxdatastructs.obj
 0001:00050b60       __unwindfunclet$?icvDestroyMemStorage@@YAXPAUCvMemStorage@@@Z$0 10051b60 f   cxcore210:cxdatastructs.obj
 0001:00050b60       __unwindfunclet$_cvEndWriteSeq$0 10051b60 f   cxcore210:cxdatastructs.obj
 0001:00050b6c       __unwindfunclet$_cvNextTreeNode$1 10051b6c f   cxcore210:cxdatastructs.obj
 0001:00050b6c       __unwindfunclet$_cvEndWriteSeq$1 10051b6c f   cxcore210:cxdatastructs.obj
 0001:00050b6c       __unwindfunclet$?icvDestroyMemStorage@@YAXPAUCvMemStorage@@@Z$1 10051b6c f   cxcore210:cxdatastructs.obj
